 colorer

 Timestamp is 5c3fd947 (Thu Jan 17 04:24:23 2019)

 Preferred load address is 10000000

 Start         Length     Name                   Class
 0001:00000000 00002190H .text$di                CODE
 0001:00002190 000f1b00H .text$mn                CODE
 0001:000f3c90 00008530H .text$x                 CODE
 0001:000fc1c0 00000681H .text$yd                CODE
 0002:00000000 000001b0H .idata$5                DATA
 0002:000001b0 00000004H .00cfg                  DATA
 0002:000001b4 00000004H .CRT$XCA                DATA
 0002:000001b8 00000194H .CRT$XCU                DATA
 0002:0000034c 00000004H .CRT$XCZ                DATA
 0002:00000350 00000004H .CRT$XIA                DATA
 0002:00000354 00000010H .CRT$XIC                DATA
 0002:00000364 00000004H .CRT$XIZ                DATA
 0002:00000368 00000004H .CRT$XPA                DATA
 0002:0000036c 00000008H .CRT$XPX                DATA
 0002:00000374 00000004H .CRT$XPXA               DATA
 0002:00000378 00000004H .CRT$XPZ                DATA
 0002:0000037c 00000004H .CRT$XTA                DATA
 0002:00000380 00000010H .CRT$XTZ                DATA
 0002:00000384 00000000H .gfids$y                DATA
 0002:00000390 000803e0H .rdata                  DATA
 0002:00080770 0000a4d0H .rdata$r                DATA
 0002:0008ac40 00000c78H .rdata$sxdata           DATA
 0002:0008b8b8 000002d4H .rdata$zzzdbg           DATA
 0002:0008bb8c 00000004H .rtc$IAA                DATA
 0002:0008bb90 00000004H .rtc$IZZ                DATA
 0002:0008bb94 00000004H .rtc$TAA                DATA
 0002:0008bb98 00000008H .rtc$TZZ                DATA
 0002:0008bba0 00014130H .xdata$x                DATA
 0002:0009fcd0 00000110H .edata                  DATA
 0002:0009fde0 0000003cH .idata$2                DATA
 0002:0009fe1c 00000014H .idata$3                DATA
 0002:0009fe30 000001b0H .idata$4                DATA
 0002:0009ffe0 0000080eH .idata$6                DATA
 0003:00000000 00024e00H .data                   DATA
 0003:00024e00 00006c00H .data$r                 DATA
 0003:0002ba00 00001018H .bss                    DATA
 0004:00000000 00000060H .rsrc$01                DATA
 0004:00000060 00000328H .rsrc$02                DATA

  Address         Publics by Value              Rva+Base       Lib:Object

 0000:00000000       ___guard_longjmp_table     00000000     <absolute>
 0000:00000000       ___guard_fids_table        00000000     <absolute>
 0000:00000000       ___guard_fids_count        00000000     <absolute>
 0000:00000000       ___hybrid_code_map_count   00000000     <absolute>
 0000:00000000       __except_list              00000000     <absolute>
 0000:00000000       ___enclave_config          00000000     <absolute>
 0000:00000000       ___hybrid_auxiliary_iat    00000000     <absolute>
 0000:00000000       ___guard_longjmp_count     00000000     <absolute>
 0000:00000000       ___guard_iat_count         00000000     <absolute>
 0000:00000000       ___hybrid_code_map         00000000     <absolute>
 0000:00000000       ___dynamic_value_reloc_table 00000000     <absolute>
 0000:00000000       ___guard_iat_table         00000000     <absolute>
 0000:00000100       ___guard_flags             00000100     <absolute>
 0000:0000031e       ___safe_se_handler_count   0000031e     <absolute>
 0000:00000000       ___ImageBase               10000000     <linker-defined>
 0001:00002190       _DllMain@12                10003190 f   pcolorer.cpp.obj
 0001:000022d0       _GetGlobalInfoW@4          100032d0 f   pcolorer.cpp.obj
 0001:00002360       _SetStartupInfoW@4         10003360 f   pcolorer.cpp.obj
 0001:000023a0       _GetPluginInfoW@4          100033a0 f   pcolorer.cpp.obj
 0001:00002410       _ExitFARW@4                10003410 f   pcolorer.cpp.obj
 0001:00002440       _OpenW@4                   10003440 f   pcolorer.cpp.obj
 0001:00002730       _ConfigureW@4              10003730 f   pcolorer.cpp.obj
 0001:00002780       _ProcessEditorEventW@4     10003780 f   pcolorer.cpp.obj
 0001:00002830       _ProcessEditorInputW@4     10003830 f   pcolorer.cpp.obj
 0001:000028f0       _GetMinFarVersionW@0       100038f0 f   pcolorer.cpp.obj
 0001:00002900       ?orphanChild@CMAny@xercesc_3_1@@UAEXXZ 10003900 f i xerces-c_3_1:CMAny.cpp.obj
 0001:00002900       ?normalize@DOMProcessingInstructionImpl@xercesc_3_1@@UAEXXZ 10003900 f i xerces-c_3_1:DOMProcessingInstructionImpl.cpp.obj
 0001:00002900       ?reset@DTDAttDef@xercesc_3_1@@UAEXXZ 10003900 f i xerces-c_3_1:DTDAttDef.cpp.obj
 0001:00002900       ?resetErrors@AnnotationErrorReporter@xercesc_3_1@@UAEXXZ 10003900 f i xerces-c_3_1:TraverseSchema.cpp.obj
 0001:00002900       ?release@DOMTreeWalkerImpl@xercesc_3_1@@UAEXXZ 10003900 f i xerces-c_3_1:DOMTreeWalkerImpl.cpp.obj
 0001:00002900       ?normalize@DOMTextImpl@xercesc_3_1@@UAEXXZ 10003900 f i xerces-c_3_1:DOMTextImpl.cpp.obj
 0001:00002900       ??3@YAXPAXPAVDOMDocument@xercesc_3_1@@W4NodeObjectType@DOMMemoryManager@1@@Z 10003900 f i xerces-c_3_1:DOMDocumentTypeImpl.cpp.obj
 0001:00002900       ?__global_delete@@YAXPAXI@Z 10003900 f i * CIL library *:* CIL module *
 0001:00002900       ?orphanChild@CMLeaf@xercesc_3_1@@UAEXXZ 10003900 f i xerces-c_3_1:DFAContentModel.cpp.obj
 0001:00002900       ?endExtSubset@AbstractDOMParser@xercesc_3_1@@UAEXXZ 10003900 f i xerces-c_3_1:AbstractDOMParser.cpp.obj
 0001:00002900       ?normalize@DOMNotationImpl@xercesc_3_1@@UAEXXZ 10003900 f i xerces-c_3_1:DOMNotationImpl.cpp.obj
 0001:00002900       ??3@YAXPAXPAVDOMDocumentImpl@xercesc_3_1@@@Z 10003900 f i xerces-c_3_1:AbstractDOMParser.cpp.obj
 0001:00002900       ?__empty_global_delete@@YAXPAXI@Z 10003900 f i pcolorer.cpp.obj
 0001:00002900       ??1OutOfMemoryException@xercesc_3_1@@QAE@XZ 10003900 f i xerces-c_3_1:MemoryManagerImpl.cpp.obj
 0001:00002900       ?inheritAdditionalFacet@AbstractStringValidator@xercesc_3_1@@MAEXXZ 10003900 f i xerces-c_3_1:AbstractStringValidator.cpp.obj
 0001:00002900       ?reset@DTDValidator@xercesc_3_1@@UAEXXZ 10003900 f i xerces-c_3_1:DTDValidator.cpp.obj
 0001:00002900       ?reset@SchemaAttDef@xercesc_3_1@@UAEXXZ 10003900 f i xerces-c_3_1:SchemaAttDef.cpp.obj
 0001:00002900       ?startExtSubset@AbstractDOMParser@xercesc_3_1@@UAEXXZ 10003900 f i xerces-c_3_1:AbstractDOMParser.cpp.obj
 0001:00002900       ?flush@XMLFormatTarget@xercesc_3_1@@UAEXXZ 10003900 f i xerces-c_3_1:MemBufFormatTarget.cpp.obj
 0001:00002900       ??3@YAXPAXPAVDOMDocumentImpl@xercesc_3_1@@W4NodeObjectType@DOMMemoryManager@1@@Z 10003900 f i xerces-c_3_1:AbstractDOMParser.cpp.obj
 0001:00002900       ?normalize@DOMCommentImpl@xercesc_3_1@@UAEXXZ 10003900 f i xerces-c_3_1:DOMCommentImpl.cpp.obj
 0001:00002900       @_guard_check_icall_nop@4  10003900 f i LIBCMT:guard_support.obj
 0001:00002900       ?resetErrors@XercesDOMParser@xercesc_3_1@@UAEXXZ 10003900 f i xerces-c_3_1:XercesDOMParser.cpp.obj
 0001:00002900       ?postParseValidation@SchemaValidator@xercesc_3_1@@UAEXXZ 10003900 f i xerces-c_3_1:SchemaValidator.cpp.obj
 0001:00002900       ?resetErrors@DOMLSParserImpl@xercesc_3_1@@UAEXXZ 10003900 f i xerces-c_3_1:DOMLSParserImpl.cpp.obj
 0001:00002900       ?inheritAdditionalFacet@AbstractNumericFacetValidator@xercesc_3_1@@MAEXXZ 10003900 f i xerces-c_3_1:AbstractNumericFacetValidator.cpp.obj
 0001:00002900       ?resetEntities@DOMLSParserImpl@xercesc_3_1@@UAEXXZ 10003900 f i xerces-c_3_1:DOMLSParserImpl.cpp.obj
 0001:00002900       ??1EndOfEntityException@xercesc_3_1@@QAE@XZ 10003900 f i xerces-c_3_1:ReaderMgr.cpp.obj
 0001:00002900       ?normalize@DOMCDATASectionImpl@xercesc_3_1@@UAEXXZ 10003900 f i xerces-c_3_1:DOMCDATASectionImpl.cpp.obj
 0001:00002900       ??3@YAXPAXPAVDOMDocument@xercesc_3_1@@@Z 10003900 f i xerces-c_3_1:AbstractDOMParser.cpp.obj
 0001:00002900       ?resetEntities@XercesDOMParser@xercesc_3_1@@UAEXXZ 10003900 f i xerces-c_3_1:XercesDOMParser.cpp.obj
 0001:00002900       ?resetCachedGrammar@XMLScanner@xercesc_3_1@@UAEXXZ 10003900 f i xerces-c_3_1:XMLScanner.cpp.obj
 0001:00002900       ?postParseValidation@DTDValidator@xercesc_3_1@@UAEXXZ 10003900 f i xerces-c_3_1:DTDValidator.cpp.obj
 0001:00002910       ?reset@?$unique_ptr@VSString@@U?$default_delete@VSString@@@std@@@std@@QAEXPAVSString@@@Z 10003910 f i pcolorer.cpp.obj
 0001:00002930       ??1?$unique_ptr@VStringBuffer@@U?$default_delete@VStringBuffer@@@std@@@std@@QAE@XZ 10003930 f i colorer_lib:Outliner.cpp.obj
 0001:00002930       ??1?$unique_ptr@VSString@@U?$default_delete@VSString@@@std@@@std@@QAE@XZ 10003930 f i pcolorer.cpp.obj
 0001:00002930       ??1?$unique_ptr@VParserFactory@@U?$default_delete@VParserFactory@@@std@@@std@@QAE@XZ 10003930 f i FarEditorSet.cpp.obj
 0001:00002940       ___local_stdio_printf_options 10003940 f i FarEditorSet.cpp.obj
 0001:00002950       __vsnwprintf_l             10003950 f i FarEditorSet.cpp.obj
 0001:00002990       __snwprintf                10003990 f i FarEditorSet.cpp.obj
 0001:000029b0       ?cast@StyledRegion@@SAPBV1@PBVRegionDefine@@@Z 100039b0 f i FarEditorSet.cpp.obj
 0001:00002a30       ?equals@XMLString@xercesc_3_1@@SA_NPB_W0@Z 10003a30 f i FarEditorSet.cpp.obj
 0001:00002a90       ?Get@SettingsControl@@QAEHIPB_WH@Z 10003a90 f i FarEditorSet.cpp.obj
 0001:00002ab0       ?Get@SettingsControl@@QAE_NIPB_W_N@Z 10003ab0 f i FarEditorSet.cpp.obj
 0001:00002af0       ?Set@SettingsControl@@QAE_NIPB_WH@Z 10003af0 f i FarEditorSet.cpp.obj
 0001:00002b40       ?Set@SettingsControl@@QAE_NIPB_W_N@Z 10003b40 f i FarEditorSet.cpp.obj
 0001:00002ba0       ??_EErrorHandler@xercesc_3_1@@UAEPAXI@Z 10003ba0 f i * CIL library *:* CIL module *
 0001:00002ba0       ??_GErrorHandler@xercesc_3_1@@UAEPAXI@Z 10003ba0 f i FarEditorSet.cpp.obj
 0001:00002bd0       ??1XMLInternalErrorHandler@xercesc_3_1@@UAE@XZ 10003bd0 f i xerces-c_3_1:XIncludeUtils.cpp.obj
 0001:00002bd0       ??1XmlParserErrorHandler@@UAE@XZ 10003bd0 f i FarEditorSet.cpp.obj
 0001:00002be0       ??_GXmlParserErrorHandler@@UAEPAXI@Z 10003be0 f i FarEditorSet.cpp.obj
 0001:00002be0       ??_EXmlParserErrorHandler@@UAEPAXI@Z 10003be0 f i * CIL library *:* CIL module *
 0001:00002c10       ?resetErrors@XmlParserErrorHandler@@UAEXXZ 10003c10 f i FarEditorSet.cpp.obj
 0001:00002c20       ??0ParserFactoryException@@QAE@ABVString@@@Z 10003c20 f i FarEditorSet.cpp.obj
 0001:00002d00       ??_EParserFactoryException@@UAEPAXI@Z 10003d00 f i * CIL library *:* CIL module *
 0001:00002d00       ??_GException@@UAEPAXI@Z   10003d00 f i colorer_lib:Exception.cpp.obj
 0001:00002d00       ??_EInputSourceException@@UAEPAXI@Z 10003d00 f i * CIL library *:* CIL module *
 0001:00002d00       ??_ESettingsControlException@@UAEPAXI@Z 10003d00 f i * CIL library *:* CIL module *
 0001:00002d00       ??_GFarHrcSettingsException@@UAEPAXI@Z 10003d00 f i FarHrcSettings.cpp.obj
 0001:00002d00       ??_EFarHrcSettingsException@@UAEPAXI@Z 10003d00 f i * CIL library *:* CIL module *
 0001:00002d00       ??_EHRCParserException@@UAEPAXI@Z 10003d00 f i * CIL library *:* CIL module *
 0001:00002d00       ??_GStringIndexOutOfBoundsException@@UAEPAXI@Z 10003d00 f i colorer_lib:SString.cpp.obj
 0001:00002d00       ??_EStringIndexOutOfBoundsException@@UAEPAXI@Z 10003d00 f i * CIL library *:* CIL module *
 0001:00002d00       ??_GParserFactoryException@@UAEPAXI@Z 10003d00 f i FarEditorSet.cpp.obj
 0001:00002d00       ??_GUnsupportedEncodingException@@UAEPAXI@Z 10003d00 f i colorer_lib:DString.cpp.obj
 0001:00002d00       ??_GInputSourceException@@UAEPAXI@Z 10003d00 f i colorer_lib:Exception.cpp.obj
 0001:00002d00       ??_EException@@UAEPAXI@Z   10003d00 f i * CIL library *:* CIL module *
 0001:00002d00       ??_GSettingsControlException@@UAEPAXI@Z 10003d00 f i SettingsControl.cpp.obj
 0001:00002d00       ??_EUnsupportedEncodingException@@UAEPAXI@Z 10003d00 f i * CIL library *:* CIL module *
 0001:00002d00       ??_GHRCParserException@@UAEPAXI@Z 10003d00 f i colorer_lib:HRCParserImpl.cpp.obj
 0001:00002d30       ??1UnsupportedEncodingException@@UAE@XZ 10003d30 f i colorer_lib:DString.cpp.obj
 0001:00002d30       ??1HRCParserException@@UAE@XZ 10003d30 f i colorer_lib:HRCParserImpl.cpp.obj
 0001:00002d30       ??1SettingsControlException@@UAE@XZ 10003d30 f i SettingsControl.cpp.obj
 0001:00002d30       ??1ParserFactoryException@@UAE@XZ 10003d30 f i FarEditorSet.cpp.obj
 0001:00002d30       ??1InputSourceException@@UAE@XZ 10003d30 f i colorer_lib:Exception.cpp.obj
 0001:00002d30       ??1StringIndexOutOfBoundsException@@UAE@XZ 10003d30 f i colorer_lib:SString.cpp.obj
 0001:00002d30       ??1FarHrcSettingsException@@UAE@XZ 10003d30 f i FarHrcSettings.cpp.obj
 0001:00002d30       ??1Exception@@UAE@XZ       10003d30 f i colorer_lib:Exception.cpp.obj
 0001:00002d50       ??0FarEditorSet@@QAE@XZ    10003d50 f   FarEditorSet.cpp.obj
 0001:00002f10       ??1?$unordered_map@HPAVFarEditor@@U?$hash@H@std@@U?$equal_to@H@3@V?$allocator@U?$pair@$$CBHPAVFarEditor@@@std@@@3@@std@@QAE@XZ 10003f10 f i FarEditorSet.cpp.obj
 0001:00002f20       ??1?$_Hash@V?$_Umap_traits@HPAVFarEditor@@V?$_Uhash_compare@HU?$hash@H@std@@U?$equal_to@H@2@@std@@V?$allocator@U?$pair@$$CBHPAVFarEditor@@@std@@@3@$0A@@std@@@std@@QAE@XZ 10003f20 f i FarEditorSet.cpp.obj
 0001:00002fc0       ??1FarEditorSet@@QAE@XZ    10003fc0 f   FarEditorSet.cpp.obj
 0001:00003140       ?openMenu@FarEditorSet@@QAEXH@Z 10004140 f   FarEditorSet.cpp.obj
 0001:00003920       ?viewFile@FarEditorSet@@QAEXABVString@@@Z 10004920 f   FarEditorSet.cpp.obj
 0001:00003bb0       ?FillTypeMenu@FarEditorSet@@ABEXPAVChooseTypeMenu@@PAVFileType@@@Z 10004bb0 f   FarEditorSet.cpp.obj
 0001:00003d40       ?KeyDialogProc@@YGHPAXHH0@Z 10004d40 f   FarEditorSet.cpp.obj
 0001:00003e40       ?chooseType@FarEditorSet@@AAEXXZ 10004e40 f   FarEditorSet.cpp.obj
 0001:000047d0       ?getHRDescription@FarEditorSet@@QBEPBVString@@ABV2@ABVDString@@@Z 100057d0 f   FarEditorSet.cpp.obj
 0001:00004800       ?SettingDialogProc@@YGHPAXHH0@Z 10005800 f   FarEditorSet.cpp.obj
 0001:00004de0       ?configure@FarEditorSet@@QAEX_N@Z 10005de0 f   FarEditorSet.cpp.obj
 0001:00006750       ?chooseHRDName@FarEditorSet@@QAE?BVSString@@PBVString@@ABVDString@@@Z 10007750 f   FarEditorSet.cpp.obj
 0001:00006ac0       ?editorEvent@FarEditorSet@@QAEHPBUProcessEditorEventInfo@@@Z 10007ac0 f   FarEditorSet.cpp.obj
 0001:00006df0       ?TestLoadBase@FarEditorSet@@QAE_NPB_W00HW4HRC_MODE@1@@Z 10007df0 f   FarEditorSet.cpp.obj
 0001:00007510       ?ReloadBase@FarEditorSet@@AAEXXZ 10008510 f   FarEditorSet.cpp.obj
 0001:00007930       ?addCurrentEditor@FarEditorSet@@AAEPAVFarEditor@@XZ 10008930 f   FarEditorSet.cpp.obj
 0001:00007ad0       ?getCurrentFileName@FarEditorSet@@AAEPAVString@@XZ 10008ad0 f   FarEditorSet.cpp.obj
 0001:00007ca0       ?getCurrentEditor@FarEditorSet@@AAEPAVFarEditor@@XZ 10008ca0 f   FarEditorSet.cpp.obj
 0001:00007d30       ?disableColorer@FarEditorSet@@QAEXXZ 10008d30 f   FarEditorSet.cpp.obj
 0001:00007dd0       ?dropCurrentEditor@FarEditorSet@@AAEX_N@Z 10008dd0 f   FarEditorSet.cpp.obj
 0001:00007f60       ?ReadSettings@FarEditorSet@@QAEXXZ 10008f60 f   FarEditorSet.cpp.obj
 0001:00008760       ?setLogPath@FarEditorSet@@QAEXPB_W@Z 10009760 f   FarEditorSet.cpp.obj
 0001:000089a0       ?SaveSettings@FarEditorSet@@ABEXXZ 100099a0 f   FarEditorSet.cpp.obj
 0001:00008c20       ?SetBgEditor@FarEditorSet@@QBE_NXZ 10009c20 f   FarEditorSet.cpp.obj
 0001:00008da0       ?LoadUserHrd@FarEditorSet@@QAEXPBVString@@PAVParserFactory@@@Z 10009da0 f   FarEditorSet.cpp.obj
 0001:00009070       ??0ParserFactoryException@@QAE@ABV0@@Z 1000a070 f i FarEditorSet.cpp.obj
 0001:00009090       ?LoadUserHrc@FarEditorSet@@QAEXPBVString@@PAVParserFactory@@@Z 1000a090 f   FarEditorSet.cpp.obj
 0001:00009140       ?getParamDefValue@FarEditorSet@@ABEPBVString@@PAVFileTypeImpl@@VSString@@@Z 1000a140 f   FarEditorSet.cpp.obj
 0001:00009310       ?buildHrcList@FarEditorSet@@ABEPAUFarList@@XZ 1000a310 f   FarEditorSet.cpp.obj
 0001:00009560       ?buildParamsList@FarEditorSet@@ABEPAUFarList@@PAVFileTypeImpl@@@Z 1000a560 f   FarEditorSet.cpp.obj
 0001:00009790       ?setCrossValueListToCombobox@FarEditorSet@@AAEXPAVFileTypeImpl@@PAX@Z 1000a790 f   FarEditorSet.cpp.obj
 0001:000099c0       ?setCrossPosValueListToCombobox@FarEditorSet@@AAEXPAVFileTypeImpl@@PAX@Z 1000a9c0 f   FarEditorSet.cpp.obj
 0001:00009bb0       ?setYNListValueToCombobox@FarEditorSet@@AAEXPAVFileTypeImpl@@PAXVDString@@@Z 1000abb0 f   FarEditorSet.cpp.obj
 0001:00009da0       ?setTFListValueToCombobox@FarEditorSet@@AAEXPAVFileTypeImpl@@PAXVDString@@@Z 1000ada0 f   FarEditorSet.cpp.obj
 0001:00009f90       ?setCustomListValueToCombobox@FarEditorSet@@AAEXPAVFileTypeImpl@@PAXVDString@@@Z 1000af90 f   FarEditorSet.cpp.obj
 0001:0000a140       ?getCurrentTypeInDialog@FarEditorSet@@ABEPAVFileTypeImpl@@PAX@Z 1000b140 f   FarEditorSet.cpp.obj
 0001:0000a1f0       ?OnChangeHrc@FarEditorSet@@QAEXPAX@Z 1000b1f0 f   FarEditorSet.cpp.obj
 0001:0000a280       ?SaveChangedValueParam@FarEditorSet@@AAEXPAX@Z 1000b280 f   FarEditorSet.cpp.obj
 0001:0000a4b0       ?OnChangeParam@FarEditorSet@@QAEXPAXH@Z 1000b4b0 f   FarEditorSet.cpp.obj
 0001:0000a7c0       ?SettingHrcDialogProc@@YGHPAXHH0@Z 1000b7c0 f   FarEditorSet.cpp.obj
 0001:0000a8c0       ?configureHrc@FarEditorSet@@QAEXXZ 1000b8c0 f   FarEditorSet.cpp.obj
 0001:0000ae40       ?showExceptionMessage@FarEditorSet@@QAEXPB_W@Z 1000be40 f   FarEditorSet.cpp.obj
 0001:0000aeb0       ??1?$unique_ptr@VErrorHandler@colorer@@U?$default_delete@VErrorHandler@colorer@@@std@@@std@@QAE@XZ 1000beb0 f i FarEditorSet.cpp.obj
 0001:0000aec0       ?reset@?$unique_ptr@VRegionMapper@@U?$default_delete@VRegionMapper@@@std@@@std@@QAEXPAVRegionMapper@@@Z 1000bec0 f i FarEditorSet.cpp.obj
 0001:0000aee0       ??1?$unique_ptr@VRegionMapper@@U?$default_delete@VRegionMapper@@@std@@@std@@QAE@XZ 1000bee0 f i FarEditorSet.cpp.obj
 0001:0000aef0       ??1?$vector@PAVSchemeNode@@V?$allocator@PAVSchemeNode@@@std@@@std@@QAE@XZ 1000bef0 f i colorer_lib:HRCParserImpl.cpp.obj
 0001:0000aef0       ??1?$vector@V?$_List_unchecked_iterator@V?$_List_val@U?$_List_simple_types@U?$pair@$$CBVSString@@PAV?$vector@PBVString@@V?$allocator@PBVString@@@std@@@std@@@std@@@std@@@std@@@std@@V?$allocator@V?$_List_unchecked_iterator@V?$_List_val@U?$_List_simple_types@U?$pair@$$CBVSString@@PAV?$vector@PBVString@@V?$allocator@PBVString@@@std@@@std@@@std@@@std@@@std@@@std@@@2@@std@@QAE@XZ 1000bef0 f i colorer_lib:ParserFactory.cpp.obj
 0001:0000aef0       ??1?$vector@V?$_List_unchecked_iterator@V?$_List_val@U?$_List_simple_types@U?$pair@$$CBVSString@@PAVTypeParameter@@@std@@@std@@@std@@@std@@V?$allocator@V?$_List_unchecked_iterator@V?$_List_val@U?$_List_simple_types@U?$pair@$$CBVSString@@PAVTypeParameter@@@std@@@std@@@std@@@std@@@2@@std@@QAE@XZ 1000bef0 f i colorer_lib:FileTypeImpl.cpp.obj
 0001:0000aef0       ??1?$vector@V?$_List_unchecked_iterator@V?$_List_val@U?$_List_simple_types@U?$pair@$$CBVSString@@PBVString@@@std@@@std@@@std@@@std@@V?$allocator@V?$_List_unchecked_iterator@V?$_List_val@U?$_List_simple_types@U?$pair@$$CBVSString@@PBVString@@@std@@@std@@@std@@@std@@@2@@std@@QAE@XZ 1000bef0 f i colorer_lib:ParserFactory.cpp.obj
 0001:0000aef0       ??1?$vector@V?$_List_unchecked_iterator@V?$_List_val@U?$_List_simple_types@U?$pair@$$CBVSString@@PAVRegionDefine@@@std@@@std@@@std@@@std@@V?$allocator@V?$_List_unchecked_iterator@V?$_List_val@U?$_List_simple_types@U?$pair@$$CBVSString@@PAVRegionDefine@@@std@@@std@@@std@@@std@@@2@@std@@QAE@XZ 1000bef0 f i colorer_lib:StyledHRDMapper.cpp.obj
 0001:0000aef0       ??1?$vector@PAVOutlineItem@@V?$allocator@PAVOutlineItem@@@std@@@std@@QAE@XZ 1000bef0 f i colorer_lib:Outliner.cpp.obj
 0001:0000aef0       ??1?$vector@PAVFileTypeImpl@@V?$allocator@PAVFileTypeImpl@@@std@@@std@@QAE@XZ 1000bef0 f i colorer_lib:HRCParserImpl.cpp.obj
 0001:0000aef0       ??1?$vector@HV?$allocator@H@std@@@std@@QAE@XZ 1000bef0 f i FarEditor.cpp.obj
 0001:0000aef0       ??1?$vector@V?$_List_unchecked_iterator@V?$_List_val@U?$_List_simple_types@U?$pair@$$CBVSString@@PAVSharedInputSource@@@std@@@std@@@std@@@std@@V?$allocator@V?$_List_unchecked_iterator@V?$_List_val@U?$_List_simple_types@U?$pair@$$CBVSString@@PAVSharedInputSource@@@std@@@std@@@std@@@std@@@2@@std@@QAE@XZ 1000bef0 f i colorer_lib:SharedInputSource.cpp.obj
 0001:0000aef0       ??1?$vector@PBVString@@V?$allocator@PBVString@@@std@@@std@@QAE@XZ 1000bef0 f i colorer_lib:ParserFactory.cpp.obj
 0001:0000aef0       ??1?$vector@PAVEditorListener@@V?$allocator@PAVEditorListener@@@std@@@std@@QAE@XZ 1000bef0 f i colorer_lib:BaseEditor.cpp.obj
 0001:0000aef0       ??1?$vector@V?$_List_unchecked_iterator@V?$_List_val@U?$_List_simple_types@U?$pair@$$CBVSString@@PAVString@@@std@@@std@@@std@@@std@@V?$allocator@V?$_List_unchecked_iterator@V?$_List_val@U?$_List_simple_types@U?$pair@$$CBVSString@@PAVString@@@std@@@std@@@std@@@std@@@2@@std@@QAE@XZ 1000bef0 f i colorer_lib:HRCParserImpl.cpp.obj
 0001:0000aef0       ??1?$vector@V?$_List_unchecked_iterator@V?$_List_val@U?$_List_simple_types@U?$pair@$$CBVSString@@PAV?$unordered_map@VSString@@PAV?$vector@PBVString@@V?$allocator@PBVString@@@std@@@std@@U?$hash@VSString@@@3@U?$equal_to@VSString@@@3@V?$allocator@U?$pair@$$CBVSString@@PAV?$vector@PBVString@@V?$allocator@PBVString@@@std@@@std@@@std@@@3@@std@@@std@@@std@@@std@@@std@@V?$allocator@V?$_List_unchecked_iterator@V?$_List_val@U?$_List_simple_types@U?$pair@$$CBVSString@@PAV?$unordered_map@VSString@@PAV?$vector@PBVString@@V?$allocator@PBVString@@@std@@@std@@U?$hash@VSString@@@3@U?$equal_to@VSString@@@3@V?$allocator@U?$pair@$$CBVSString@@PAV?$vector@PBVString@@V?$allocator@PBVString@@@std@@@std@@@std@@@3@@std@@@std@@@std@@@std@@@std@@@2@@std@@QAE@XZ 1000bef0 f i colorer_lib:ParserFactory.cpp.obj
 0001:0000aef0       ??1?$vector@PAVFileTypeChooser@@V?$allocator@PAVFileTypeChooser@@@std@@@std@@QAE@XZ 1000bef0 f i colorer_lib:FileTypeImpl.cpp.obj
 0001:0000aef0       ??1?$vector@V?$_List_unchecked_iterator@V?$_List_val@U?$_List_simple_types@U?$pair@$$CBVSString@@H@std@@@std@@@std@@@std@@V?$allocator@V?$_List_unchecked_iterator@V?$_List_val@U?$_List_simple_types@U?$pair@$$CBVSString@@H@std@@@std@@@std@@@std@@@2@@std@@QAE@XZ 1000bef0 f i colorer_lib:HRCParserImpl.cpp.obj
 0001:0000aef0       ??1?$vector@V?$_List_unchecked_iterator@V?$_List_val@U?$_List_simple_types@U?$pair@$$CBVSString@@PAVSchemeImpl@@@std@@@std@@@std@@@std@@V?$allocator@V?$_List_unchecked_iterator@V?$_List_val@U?$_List_simple_types@U?$pair@$$CBVSString@@PAVSchemeImpl@@@std@@@std@@@std@@@std@@@2@@std@@QAE@XZ 1000bef0 f i colorer_lib:HRCParserImpl.cpp.obj
 0001:0000aef0       ??1?$vector@PAVRegionHandler@@V?$allocator@PAVRegionHandler@@@std@@@std@@QAE@XZ 1000bef0 f i colorer_lib:BaseEditor.cpp.obj
 0001:0000aef0       ??1?$vector@V?$_List_unchecked_iterator@V?$_List_val@U?$_List_simple_types@U?$pair@$$CBVSString@@PAVFileTypeImpl@@@std@@@std@@@std@@@std@@V?$allocator@V?$_List_unchecked_iterator@V?$_List_val@U?$_List_simple_types@U?$pair@$$CBVSString@@PAVFileTypeImpl@@@std@@@std@@@std@@@std@@@2@@std@@QAE@XZ 1000bef0 f i colorer_lib:HRCParserImpl.cpp.obj
 0001:0000aef0       ??1?$vector@PAVVirtualEntry@@V?$allocator@PAVVirtualEntry@@@std@@@std@@QAE@XZ 1000bef0 f i colorer_lib:HRCParserHelpers.cpp.obj
 0001:0000aef0       ??1?$vector@V?$_List_unchecked_iterator@V?$_List_val@U?$_List_simple_types@U?$pair@$$CBVSString@@PAVSharedXmlInputSource@@@std@@@std@@@std@@@std@@V?$allocator@V?$_List_unchecked_iterator@V?$_List_val@U?$_List_simple_types@U?$pair@$$CBVSString@@PAVSharedXmlInputSource@@@std@@@std@@@std@@@std@@@2@@std@@QAE@XZ 1000bef0 f i colorer_lib:SharedXmlInputSource.cpp.obj
 0001:0000aef0       ??1?$vector@PBVRegion@@V?$allocator@PBVRegion@@@std@@@std@@QAE@XZ 1000bef0 f i colorer_lib:HRCParserImpl.cpp.obj
 0001:0000aef0       ??1?$vector@V?$_List_unchecked_iterator@V?$_List_val@U?$_List_simple_types@U?$pair@$$CBVSString@@PBVRegion@@@std@@@std@@@std@@@std@@V?$allocator@V?$_List_unchecked_iterator@V?$_List_val@U?$_List_simple_types@U?$pair@$$CBVSString@@PBVRegion@@@std@@@std@@@std@@@std@@@2@@std@@QAE@XZ 1000bef0 f i colorer_lib:HRCParserImpl.cpp.obj
 0001:0000aef0       ??1?$vector@PAVString@@V?$allocator@PAVString@@@std@@@std@@QAE@XZ 1000bef0 f i colorer_lib:ParserFactory.cpp.obj
 0001:0000aef0       ??1?$vector@V?$_List_unchecked_iterator@V?$_List_val@U?$_List_simple_types@U?$pair@$$CBHPAVFarEditor@@@std@@@std@@@std@@@std@@V?$allocator@V?$_List_unchecked_iterator@V?$_List_val@U?$_List_simple_types@U?$pair@$$CBHPAVFarEditor@@@std@@@std@@@std@@@std@@@2@@std@@QAE@XZ 1000bef0 f i FarEditorSet.cpp.obj
 0001:0000af50       ??1?$list@U?$pair@$$CBHPAVFarEditor@@@std@@V?$allocator@U?$pair@$$CBHPAVFarEditor@@@std@@@2@@std@@QAE@XZ 1000bf50 f i FarEditorSet.cpp.obj
 0001:0000afa0       ?clear@?$_Hash@V?$_Umap_traits@HPAVFarEditor@@V?$_Uhash_compare@HU?$hash@H@std@@U?$equal_to@H@2@@std@@V?$allocator@U?$pair@$$CBHPAVFarEditor@@@std@@@3@$0A@@std@@@std@@QAEXXZ 1000bfa0 f i FarEditorSet.cpp.obj
 0001:0000b010       ?erase@?$_Hash@V?$_Umap_traits@HPAVFarEditor@@V?$_Uhash_compare@HU?$hash@H@std@@U?$equal_to@H@2@@std@@V?$allocator@U?$pair@$$CBHPAVFarEditor@@@std@@@3@$0A@@std@@@std@@QAEIABH@Z 1000c010 f i FarEditorSet.cpp.obj
 0001:0000b1f0       ??1?$vector@VSString@@V?$allocator@VSString@@@std@@@std@@QAE@XZ 1000c1f0 f i FarEditorSet.cpp.obj
 0001:0000b270       ?_Init@?$_Hash@V?$_Umap_traits@HPAVFarEditor@@V?$_Uhash_compare@HU?$hash@H@std@@U?$equal_to@H@2@@std@@V?$allocator@U?$pair@$$CBHPAVFarEditor@@@std@@@3@$0A@@std@@@std@@IAEXI@Z 1000c270 f i FarEditorSet.cpp.obj
 0001:0000b270       ?_Init@?$_Hash@V?$_Umap_traits@VSString@@PAVSharedXmlInputSource@@V?$_Uhash_compare@VSString@@U?$hash@VSString@@@std@@U?$equal_to@VSString@@@3@@std@@V?$allocator@U?$pair@$$CBVSString@@PAVSharedXmlInputSource@@@std@@@4@$0A@@std@@@std@@IAEXI@Z 1000c270 f i colorer_lib:SharedXmlInputSource.cpp.obj
 0001:0000b270       ?_Init@?$_Hash@V?$_Umap_traits@VSString@@PAV?$vector@PBVString@@V?$allocator@PBVString@@@std@@@std@@V?$_Uhash_compare@VSString@@U?$hash@VSString@@@std@@U?$equal_to@VSString@@@3@@3@V?$allocator@U?$pair@$$CBVSString@@PAV?$vector@PBVString@@V?$allocator@PBVString@@@std@@@std@@@std@@@3@$0A@@std@@@std@@IAEXI@Z 1000c270 f i colorer_lib:ParserFactory.cpp.obj
 0001:0000b270       ?_Init@?$_Hash@V?$_Umap_traits@VSString@@PAVString@@V?$_Uhash_compare@VSString@@U?$hash@VSString@@@std@@U?$equal_to@VSString@@@3@@std@@V?$allocator@U?$pair@$$CBVSString@@PAVString@@@std@@@4@$0A@@std@@@std@@IAEXI@Z 1000c270 f i colorer_lib:HRCParserImpl.cpp.obj
 0001:0000b270       ?_Init@?$_Hash@V?$_Umap_traits@VSString@@PAV?$unordered_map@VSString@@PAV?$vector@PBVString@@V?$allocator@PBVString@@@std@@@std@@U?$hash@VSString@@@3@U?$equal_to@VSString@@@3@V?$allocator@U?$pair@$$CBVSString@@PAV?$vector@PBVString@@V?$allocator@PBVString@@@std@@@std@@@std@@@3@@std@@V?$_Uhash_compare@VSString@@U?$hash@VSString@@@std@@U?$equal_to@VSString@@@3@@3@V?$allocator@U?$pair@$$CBVSString@@PAV?$unordered_map@VSString@@PAV?$vector@PBVString@@V?$allocator@PBVString@@@std@@@std@@U?$hash@VSString@@@3@U?$equal_to@VSString@@@3@V?$allocator@U?$pair@$$CBVSString@@PAV?$vector@PBVString@@V?$allocator@PBVString@@@std@@@std@@@std@@@3@@std@@@std@@@3@$0A@@std@@@std@@IAEXI@Z 1000c270 f i colorer_lib:ParserFactory.cpp.obj
 0001:0000b270       ?_Init@?$_Hash@V?$_Umap_traits@VSString@@PAVSharedInputSource@@V?$_Uhash_compare@VSString@@U?$hash@VSString@@@std@@U?$equal_to@VSString@@@3@@std@@V?$allocator@U?$pair@$$CBVSString@@PAVSharedInputSource@@@std@@@4@$0A@@std@@@std@@IAEXI@Z 1000c270 f i colorer_lib:SharedInputSource.cpp.obj
 0001:0000b270       ?_Init@?$_Hash@V?$_Umap_traits@VSString@@PAVFileTypeImpl@@V?$_Uhash_compare@VSString@@U?$hash@VSString@@@std@@U?$equal_to@VSString@@@3@@std@@V?$allocator@U?$pair@$$CBVSString@@PAVFileTypeImpl@@@std@@@4@$0A@@std@@@std@@IAEXI@Z 1000c270 f i colorer_lib:HRCParserImpl.cpp.obj
 0001:0000b270       ?_Init@?$_Hash@V?$_Umap_traits@VSString@@PAVSchemeImpl@@V?$_Uhash_compare@VSString@@U?$hash@VSString@@@std@@U?$equal_to@VSString@@@3@@std@@V?$allocator@U?$pair@$$CBVSString@@PAVSchemeImpl@@@std@@@4@$0A@@std@@@std@@IAEXI@Z 1000c270 f i colorer_lib:HRCParserImpl.cpp.obj
 0001:0000b270       ?_Init@?$_Hash@V?$_Umap_traits@VSString@@PAVRegionDefine@@V?$_Uhash_compare@VSString@@U?$hash@VSString@@@std@@U?$equal_to@VSString@@@3@@std@@V?$allocator@U?$pair@$$CBVSString@@PAVRegionDefine@@@std@@@4@$0A@@std@@@std@@IAEXI@Z 1000c270 f i colorer_lib:StyledHRDMapper.cpp.obj
 0001:0000b270       ?_Init@?$_Hash@V?$_Umap_traits@VSString@@PBVString@@V?$_Uhash_compare@VSString@@U?$hash@VSString@@@std@@U?$equal_to@VSString@@@3@@std@@V?$allocator@U?$pair@$$CBVSString@@PBVString@@@std@@@4@$0A@@std@@@std@@IAEXI@Z 1000c270 f i colorer_lib:ParserFactory.cpp.obj
 0001:0000b270       ?_Init@?$_Hash@V?$_Umap_traits@VSString@@PAVTypeParameter@@V?$_Uhash_compare@VSString@@U?$hash@VSString@@@std@@U?$equal_to@VSString@@@3@@std@@V?$allocator@U?$pair@$$CBVSString@@PAVTypeParameter@@@std@@@4@$0A@@std@@@std@@IAEXI@Z 1000c270 f i colorer_lib:FileTypeImpl.cpp.obj
 0001:0000b270       ?_Init@?$_Hash@V?$_Umap_traits@VSString@@PBVRegion@@V?$_Uhash_compare@VSString@@U?$hash@VSString@@@std@@U?$equal_to@VSString@@@3@@std@@V?$allocator@U?$pair@$$CBVSString@@PBVRegion@@@std@@@4@$0A@@std@@@std@@IAEXI@Z 1000c270 f i colorer_lib:HRCParserImpl.cpp.obj
 0001:0000b2d0       ?_Xrange@?$vector@PAVSchemeNode@@V?$allocator@PAVSchemeNode@@@std@@@std@@CAXXZ 1000c2d0 f i colorer_lib:TextParserImpl.cpp.obj
 0001:0000b2d0       ?_Xrange@?$vector@PAVOutlineItem@@V?$allocator@PAVOutlineItem@@@std@@@std@@CAXXZ 1000c2d0 f i colorer_lib:Outliner.cpp.obj
 0001:0000b2d0       ?_Xrange@?$vector@VSString@@V?$allocator@VSString@@@std@@@std@@CAXXZ 1000c2d0 f i FarEditorSet.cpp.obj
 0001:0000b2d0       ?_Xrange@?$vector@PBVRegionDefine@@V?$allocator@PBVRegionDefine@@@std@@@std@@CAXXZ 1000c2d0 f i colorer_lib:StyledHRDMapper.cpp.obj
 0001:0000b2d0       ?_Xrange@?$vector@PAVLineRegion@@V?$allocator@PAVLineRegion@@@std@@@std@@CAXXZ 1000c2d0 f i colorer_lib:LineRegionsSupport.cpp.obj
 0001:0000b2d0       ?_Xrange@?$vector@PAVFileTypeImpl@@V?$allocator@PAVFileTypeImpl@@@std@@@std@@CAXXZ 1000c2d0 f i colorer_lib:HRCParserImpl.cpp.obj
 0001:0000b2d0       ?_Xrange@?$vector@PAVVirtualEntry@@V?$allocator@PAVVirtualEntry@@@std@@@std@@CAXXZ 1000c2d0 f i colorer_lib:HRCParserImpl.cpp.obj
 0001:0000b2d0       ?_Xrange@?$vector@PAEV?$allocator@PAE@std@@@std@@CAXXZ 1000c2d0 f i colorer_lib:MemoryChunks.cpp.obj
 0001:0000b2d0       ?_Xrange@?$vector@PBVString@@V?$allocator@PBVString@@@std@@@std@@CAXXZ 1000c2d0 f i colorer_lib:ParserFactory.cpp.obj
 0001:0000b2d0       ?_Xrange@?$vector@PAVString@@V?$allocator@PAVString@@@std@@@std@@CAXXZ 1000c2d0 f i colorer_lib:ParserFactory.cpp.obj
 0001:0000b2d0       ?_Xrange@?$vector@PAVFileTypeChooser@@V?$allocator@PAVFileTypeChooser@@@std@@@std@@CAXXZ 1000c2d0 f i colorer_lib:FileTypeImpl.cpp.obj
 0001:0000b2d0       ?_Xrange@?$vector@PAVRegionHandler@@V?$allocator@PAVRegionHandler@@@std@@@std@@CAXXZ 1000c2d0 f i colorer_lib:BaseEditor.cpp.obj
 0001:0000b2e0       ?assign@?$vector@V?$_List_unchecked_iterator@V?$_List_val@U?$_List_simple_types@U?$pair@$$CBVSString@@PAVTypeParameter@@@std@@@std@@@std@@@std@@V?$allocator@V?$_List_unchecked_iterator@V?$_List_val@U?$_List_simple_types@U?$pair@$$CBVSString@@PAVTypeParameter@@@std@@@std@@@std@@@std@@@2@@std@@QAEXIABV?$_List_unchecked_iterator@V?$_List_val@U?$_List_simple_types@U?$pair@$$CBVSString@@PAVTypeParameter@@@std@@@std@@@std@@@2@@Z 1000c2e0 f i colorer_lib:FileTypeImpl.cpp.obj
 0001:0000b2e0       ?assign@?$vector@V?$_List_unchecked_iterator@V?$_List_val@U?$_List_simple_types@U?$pair@$$CBVSString@@PBVString@@@std@@@std@@@std@@@std@@V?$allocator@V?$_List_unchecked_iterator@V?$_List_val@U?$_List_simple_types@U?$pair@$$CBVSString@@PBVString@@@std@@@std@@@std@@@std@@@2@@std@@QAEXIABV?$_List_unchecked_iterator@V?$_List_val@U?$_List_simple_types@U?$pair@$$CBVSString@@PBVString@@@std@@@std@@@std@@@2@@Z 1000c2e0 f i colorer_lib:ParserFactory.cpp.obj
 0001:0000b2e0       ?assign@?$vector@V?$_List_unchecked_iterator@V?$_List_val@U?$_List_simple_types@U?$pair@$$CBVSString@@PAV?$unordered_map@VSString@@PAV?$vector@PBVString@@V?$allocator@PBVString@@@std@@@std@@U?$hash@VSString@@@3@U?$equal_to@VSString@@@3@V?$allocator@U?$pair@$$CBVSString@@PAV?$vector@PBVString@@V?$allocator@PBVString@@@std@@@std@@@std@@@3@@std@@@std@@@std@@@std@@@std@@V?$allocator@V?$_List_unchecked_iterator@V?$_List_val@U?$_List_simple_types@U?$pair@$$CBVSString@@PAV?$unordered_map@VSString@@PAV?$vector@PBVString@@V?$allocator@PBVString@@@std@@@std@@U?$hash@VSString@@@3@U?$equal_to@VSString@@@3@V?$allocator@U?$pair@$$CBVSString@@PAV?$vector@PBVString@@V?$allocator@PBVString@@@std@@@std@@@std@@@3@@std@@@std@@@std@@@std@@@std@@@2@@std@@QAEXIABV?$_List_unchecked_iterator@V?$_List_val@U?$_List_simple_types@U?$pair@$$CBVSString@@PAV?$unordered_map@VSString@@PAV?$vector@PBVString@@V?$allocator@PBVString@@@std@@@std@@U?$hash@VSString@@@3@U?$equal_to@VSString@@@3@V?$allocator@U?$pair@$$CBVSString@@PAV?$vector@PBVString@@V?$allocator@PBVString@@@std@@@std@@@std@@@3@@std@@@std@@@std@@@std@@@2@@Z 1000c2e0 f i colorer_lib:ParserFactory.cpp.obj
 0001:0000b2e0       ?assign@?$vector@V?$_List_unchecked_iterator@V?$_List_val@U?$_List_simple_types@U?$pair@$$CBVSString@@PBVRegion@@@std@@@std@@@std@@@std@@V?$allocator@V?$_List_unchecked_iterator@V?$_List_val@U?$_List_simple_types@U?$pair@$$CBVSString@@PBVRegion@@@std@@@std@@@std@@@std@@@2@@std@@QAEXIABV?$_List_unchecked_iterator@V?$_List_val@U?$_List_simple_types@U?$pair@$$CBVSString@@PBVRegion@@@std@@@std@@@std@@@2@@Z 1000c2e0 f i colorer_lib:HRCParserImpl.cpp.obj
 0001:0000b2e0       ?assign@?$vector@V?$_List_unchecked_iterator@V?$_List_val@U?$_List_simple_types@U?$pair@$$CBVSString@@PAVSharedInputSource@@@std@@@std@@@std@@@std@@V?$allocator@V?$_List_unchecked_iterator@V?$_List_val@U?$_List_simple_types@U?$pair@$$CBVSString@@PAVSharedInputSource@@@std@@@std@@@std@@@std@@@2@@std@@QAEXIABV?$_List_unchecked_iterator@V?$_List_val@U?$_List_simple_types@U?$pair@$$CBVSString@@PAVSharedInputSource@@@std@@@std@@@std@@@2@@Z 1000c2e0 f i colorer_lib:SharedInputSource.cpp.obj
 0001:0000b2e0       ?assign@?$vector@V?$_List_unchecked_iterator@V?$_List_val@U?$_List_simple_types@U?$pair@$$CBVSString@@PAVRegionDefine@@@std@@@std@@@std@@@std@@V?$allocator@V?$_List_unchecked_iterator@V?$_List_val@U?$_List_simple_types@U?$pair@$$CBVSString@@PAVRegionDefine@@@std@@@std@@@std@@@std@@@2@@std@@QAEXIABV?$_List_unchecked_iterator@V?$_List_val@U?$_List_simple_types@U?$pair@$$CBVSString@@PAVRegionDefine@@@std@@@std@@@std@@@2@@Z 1000c2e0 f i colorer_lib:StyledHRDMapper.cpp.obj
 0001:0000b2e0       ?assign@?$vector@V?$_List_unchecked_iterator@V?$_List_val@U?$_List_simple_types@U?$pair@$$CBHPAVFarEditor@@@std@@@std@@@std@@@std@@V?$allocator@V?$_List_unchecked_iterator@V?$_List_val@U?$_List_simple_types@U?$pair@$$CBHPAVFarEditor@@@std@@@std@@@std@@@std@@@2@@std@@QAEXIABV?$_List_unchecked_iterator@V?$_List_val@U?$_List_simple_types@U?$pair@$$CBHPAVFarEditor@@@std@@@std@@@std@@@2@@Z 1000c2e0 f i FarEditorSet.cpp.obj
 0001:0000b2e0       ?assign@?$vector@V?$_List_unchecked_iterator@V?$_List_val@U?$_List_simple_types@U?$pair@$$CBVSString@@PAVString@@@std@@@std@@@std@@@std@@V?$allocator@V?$_List_unchecked_iterator@V?$_List_val@U?$_List_simple_types@U?$pair@$$CBVSString@@PAVString@@@std@@@std@@@std@@@std@@@2@@std@@QAEXIABV?$_List_unchecked_iterator@V?$_List_val@U?$_List_simple_types@U?$pair@$$CBVSString@@PAVString@@@std@@@std@@@std@@@2@@Z 1000c2e0 f i colorer_lib:HRCParserImpl.cpp.obj
 0001:0000b2e0       ?assign@?$vector@V?$_List_unchecked_iterator@V?$_List_val@U?$_List_simple_types@U?$pair@$$CBVSString@@PAV?$vector@PBVString@@V?$allocator@PBVString@@@std@@@std@@@std@@@std@@@std@@@std@@V?$allocator@V?$_List_unchecked_iterator@V?$_List_val@U?$_List_simple_types@U?$pair@$$CBVSString@@PAV?$vector@PBVString@@V?$allocator@PBVString@@@std@@@std@@@std@@@std@@@std@@@std@@@2@@std@@QAEXIABV?$_List_unchecked_iterator@V?$_List_val@U?$_List_simple_types@U?$pair@$$CBVSString@@PAV?$vector@PBVString@@V?$allocator@PBVString@@@std@@@std@@@std@@@std@@@std@@@2@@Z 1000c2e0 f i colorer_lib:ParserFactory.cpp.obj
 0001:0000b2e0       ?assign@?$vector@V?$_List_unchecked_iterator@V?$_List_val@U?$_List_simple_types@U?$pair@$$CBVSString@@PAVSchemeImpl@@@std@@@std@@@std@@@std@@V?$allocator@V?$_List_unchecked_iterator@V?$_List_val@U?$_List_simple_types@U?$pair@$$CBVSString@@PAVSchemeImpl@@@std@@@std@@@std@@@std@@@2@@std@@QAEXIABV?$_List_unchecked_iterator@V?$_List_val@U?$_List_simple_types@U?$pair@$$CBVSString@@PAVSchemeImpl@@@std@@@std@@@std@@@2@@Z 1000c2e0 f i colorer_lib:HRCParserImpl.cpp.obj
 0001:0000b2e0       ?assign@?$vector@V?$_List_unchecked_iterator@V?$_List_val@U?$_List_simple_types@U?$pair@$$CBVSString@@PAVSharedXmlInputSource@@@std@@@std@@@std@@@std@@V?$allocator@V?$_List_unchecked_iterator@V?$_List_val@U?$_List_simple_types@U?$pair@$$CBVSString@@PAVSharedXmlInputSource@@@std@@@std@@@std@@@std@@@2@@std@@QAEXIABV?$_List_unchecked_iterator@V?$_List_val@U?$_List_simple_types@U?$pair@$$CBVSString@@PAVSharedXmlInputSource@@@std@@@std@@@std@@@2@@Z 1000c2e0 f i colorer_lib:SharedXmlInputSource.cpp.obj
 0001:0000b2e0       ?assign@?$vector@V?$_List_unchecked_iterator@V?$_List_val@U?$_List_simple_types@U?$pair@$$CBVSString@@PAVFileTypeImpl@@@std@@@std@@@std@@@std@@V?$allocator@V?$_List_unchecked_iterator@V?$_List_val@U?$_List_simple_types@U?$pair@$$CBVSString@@PAVFileTypeImpl@@@std@@@std@@@std@@@std@@@2@@std@@QAEXIABV?$_List_unchecked_iterator@V?$_List_val@U?$_List_simple_types@U?$pair@$$CBVSString@@PAVFileTypeImpl@@@std@@@std@@@std@@@2@@Z 1000c2e0 f i colorer_lib:HRCParserImpl.cpp.obj
 0001:0000b460       ?erase@?$_Hash@V?$_Umap_traits@HPAVFarEditor@@V?$_Uhash_compare@HU?$hash@H@std@@U?$equal_to@H@2@@std@@V?$allocator@U?$pair@$$CBHPAVFarEditor@@@std@@@3@$0A@@std@@@std@@QAE?AV?$_List_iterator@V?$_List_val@U?$_List_simple_types@U?$pair@$$CBHPAVFarEditor@@@std@@@std@@@std@@@2@V?$_List_const_iterator@V?$_List_val@U?$_List_simple_types@U?$pair@$$CBHPAVFarEditor@@@std@@@std@@@std@@@2@@Z 1000c460 f i FarEditorSet.cpp.obj
 0001:0000b510       ?_Make_iter@?$_Hash@V?$_Umap_traits@VSString@@PAVRegionDefine@@V?$_Uhash_compare@VSString@@U?$hash@VSString@@@std@@U?$equal_to@VSString@@@3@@std@@V?$allocator@U?$pair@$$CBVSString@@PAVRegionDefine@@@std@@@4@$0A@@std@@@std@@QBE?AV?$_List_iterator@V?$_List_val@U?$_List_simple_types@U?$pair@$$CBVSString@@PAVRegionDefine@@@std@@@std@@@std@@@2@V?$_List_unchecked_const_iterator@V?$_List_val@U?$_List_simple_types@U?$pair@$$CBVSString@@PAVRegionDefine@@@std@@@std@@@std@@U_Iterator_base0@2@@2@@Z 1000c510 f i colorer_lib:StyledHRDMapper.cpp.obj
 0001:0000b510       ?_Make_iter@?$_Hash@V?$_Umap_traits@VSString@@PAVFileTypeImpl@@V?$_Uhash_compare@VSString@@U?$hash@VSString@@@std@@U?$equal_to@VSString@@@3@@std@@V?$allocator@U?$pair@$$CBVSString@@PAVFileTypeImpl@@@std@@@4@$0A@@std@@@std@@QBE?AV?$_List_iterator@V?$_List_val@U?$_List_simple_types@U?$pair@$$CBVSString@@PAVFileTypeImpl@@@std@@@std@@@std@@@2@V?$_List_unchecked_const_iterator@V?$_List_val@U?$_List_simple_types@U?$pair@$$CBVSString@@PAVFileTypeImpl@@@std@@@std@@@std@@U_Iterator_base0@2@@2@@Z 1000c510 f i colorer_lib:HRCParserImpl.cpp.obj
 0001:0000b510       ?_Make_iter@?$_Hash@V?$_Umap_traits@VSString@@PAVSharedInputSource@@V?$_Uhash_compare@VSString@@U?$hash@VSString@@@std@@U?$equal_to@VSString@@@3@@std@@V?$allocator@U?$pair@$$CBVSString@@PAVSharedInputSource@@@std@@@4@$0A@@std@@@std@@QBE?AV?$_List_iterator@V?$_List_val@U?$_List_simple_types@U?$pair@$$CBVSString@@PAVSharedInputSource@@@std@@@std@@@std@@@2@V?$_List_unchecked_const_iterator@V?$_List_val@U?$_List_simple_types@U?$pair@$$CBVSString@@PAVSharedInputSource@@@std@@@std@@@std@@U_Iterator_base0@2@@2@@Z 1000c510 f i colorer_lib:SharedInputSource.cpp.obj
 0001:0000b510       ?_Make_iter@?$_Hash@V?$_Umap_traits@VSString@@PAVTypeParameter@@V?$_Uhash_compare@VSString@@U?$hash@VSString@@@std@@U?$equal_to@VSString@@@3@@std@@V?$allocator@U?$pair@$$CBVSString@@PAVTypeParameter@@@std@@@4@$0A@@std@@@std@@QBE?AV?$_List_iterator@V?$_List_val@U?$_List_simple_types@U?$pair@$$CBVSString@@PAVTypeParameter@@@std@@@std@@@std@@@2@V?$_List_unchecked_const_iterator@V?$_List_val@U?$_List_simple_types@U?$pair@$$CBVSString@@PAVTypeParameter@@@std@@@std@@@std@@U_Iterator_base0@2@@2@@Z 1000c510 f i colorer_lib:FileTypeImpl.cpp.obj
 0001:0000b510       ?_Make_iter@?$_Hash@V?$_Umap_traits@VSString@@PAVSharedXmlInputSource@@V?$_Uhash_compare@VSString@@U?$hash@VSString@@@std@@U?$equal_to@VSString@@@3@@std@@V?$allocator@U?$pair@$$CBVSString@@PAVSharedXmlInputSource@@@std@@@4@$0A@@std@@@std@@QBE?AV?$_List_iterator@V?$_List_val@U?$_List_simple_types@U?$pair@$$CBVSString@@PAVSharedXmlInputSource@@@std@@@std@@@std@@@2@V?$_List_unchecked_const_iterator@V?$_List_val@U?$_List_simple_types@U?$pair@$$CBVSString@@PAVSharedXmlInputSource@@@std@@@std@@@std@@U_Iterator_base0@2@@2@@Z 1000c510 f i colorer_lib:ZipXmlInputSource.cpp.obj
 0001:0000b510       ?_Make_iter@?$_Hash@V?$_Umap_traits@VSString@@PAVSchemeImpl@@V?$_Uhash_compare@VSString@@U?$hash@VSString@@@std@@U?$equal_to@VSString@@@3@@std@@V?$allocator@U?$pair@$$CBVSString@@PAVSchemeImpl@@@std@@@4@$0A@@std@@@std@@QBE?AV?$_List_iterator@V?$_List_val@U?$_List_simple_types@U?$pair@$$CBVSString@@PAVSchemeImpl@@@std@@@std@@@std@@@2@V?$_List_unchecked_const_iterator@V?$_List_val@U?$_List_simple_types@U?$pair@$$CBVSString@@PAVSchemeImpl@@@std@@@std@@@std@@U_Iterator_base0@2@@2@@Z 1000c510 f i colorer_lib:HRCParserImpl.cpp.obj
 0001:0000b510       ?_Make_iter@?$_Hash@V?$_Umap_traits@VSString@@PAV?$unordered_map@VSString@@PAV?$vector@PBVString@@V?$allocator@PBVString@@@std@@@std@@U?$hash@VSString@@@3@U?$equal_to@VSString@@@3@V?$allocator@U?$pair@$$CBVSString@@PAV?$vector@PBVString@@V?$allocator@PBVString@@@std@@@std@@@std@@@3@@std@@V?$_Uhash_compare@VSString@@U?$hash@VSString@@@std@@U?$equal_to@VSString@@@3@@3@V?$allocator@U?$pair@$$CBVSString@@PAV?$unordered_map@VSString@@PAV?$vector@PBVString@@V?$allocator@PBVString@@@std@@@std@@U?$hash@VSString@@@3@U?$equal_to@VSString@@@3@V?$allocator@U?$pair@$$CBVSString@@PAV?$vector@PBVString@@V?$allocator@PBVString@@@std@@@std@@@std@@@3@@std@@@std@@@3@$0A@@std@@@std@@QBE?AV?$_List_iterator@V?$_List_val@U?$_List_simple_types@U?$pair@$$CBVSString@@PAV?$unordered_map@VSString@@PAV?$vector@PBVString@@V?$allocator@PBVString@@@std@@@std@@U?$hash@VSString@@@3@U?$equal_to@VSString@@@3@V?$allocator@U?$pair@$$CBVSString@@PAV?$vector@PBVString@@V?$allocator@PBVString@@@std@@@std@@@std@@@3@@std@@@std@@@std@@@std@@@2@V?$_List_unchecked_const_iterator@V?$_List_val@U?$_List_simple_types@U?$pair@$$CBVSString@@PAV?$unordered_map@VSString@@PAV?$vector@PBVString@@V?$allocator@PBVString@@@std@@@std@@U?$hash@VSString@@@3@U?$equal_to@VSString@@@3@V?$allocator@U?$pair@$$CBVSString@@PAV?$vector@PBVString@@V?$allocator@PBVString@@@std@@@std@@@std@@@3@@std@@@std@@@std@@@std@@U_Iterator_base0@2@@2@@Z 1000c510 f i colorer_lib:ParserFactory.cpp.obj
 0001:0000b510       ?_Make_iter@?$_Hash@V?$_Umap_traits@VSString@@PAVString@@V?$_Uhash_compare@VSString@@U?$hash@VSString@@@std@@U?$equal_to@VSString@@@3@@std@@V?$allocator@U?$pair@$$CBVSString@@PAVString@@@std@@@4@$0A@@std@@@std@@QBE?AV?$_List_iterator@V?$_List_val@U?$_List_simple_types@U?$pair@$$CBVSString@@PAVString@@@std@@@std@@@std@@@2@V?$_List_unchecked_const_iterator@V?$_List_val@U?$_List_simple_types@U?$pair@$$CBVSString@@PAVString@@@std@@@std@@@std@@U_Iterator_base0@2@@2@@Z 1000c510 f i colorer_lib:HRCParserImpl.cpp.obj
 0001:0000b510       ?_Make_iter@?$_Hash@V?$_Umap_traits@VSString@@PBVRegion@@V?$_Uhash_compare@VSString@@U?$hash@VSString@@@std@@U?$equal_to@VSString@@@3@@std@@V?$allocator@U?$pair@$$CBVSString@@PBVRegion@@@std@@@4@$0A@@std@@@std@@QBE?AV?$_List_iterator@V?$_List_val@U?$_List_simple_types@U?$pair@$$CBVSString@@PBVRegion@@@std@@@std@@@std@@@2@V?$_List_unchecked_const_iterator@V?$_List_val@U?$_List_simple_types@U?$pair@$$CBVSString@@PBVRegion@@@std@@@std@@@std@@U_Iterator_base0@2@@2@@Z 1000c510 f i colorer_lib:HRCParserImpl.cpp.obj
 0001:0000b510       ?_Make_iter@?$_Hash@V?$_Umap_traits@VSString@@PBVString@@V?$_Uhash_compare@VSString@@U?$hash@VSString@@@std@@U?$equal_to@VSString@@@3@@std@@V?$allocator@U?$pair@$$CBVSString@@PBVString@@@std@@@4@$0A@@std@@@std@@QBE?AV?$_List_iterator@V?$_List_val@U?$_List_simple_types@U?$pair@$$CBVSString@@PBVString@@@std@@@std@@@std@@@2@V?$_List_unchecked_const_iterator@V?$_List_val@U?$_List_simple_types@U?$pair@$$CBVSString@@PBVString@@@std@@@std@@@std@@U_Iterator_base0@2@@2@@Z 1000c510 f i colorer_lib:ParserFactory.cpp.obj
 0001:0000b510       ?_Make_iter@?$_Hash@V?$_Umap_traits@HPAVFarEditor@@V?$_Uhash_compare@HU?$hash@H@std@@U?$equal_to@H@2@@std@@V?$allocator@U?$pair@$$CBHPAVFarEditor@@@std@@@3@$0A@@std@@@std@@QBE?AV?$_List_iterator@V?$_List_val@U?$_List_simple_types@U?$pair@$$CBHPAVFarEditor@@@std@@@std@@@std@@@2@V?$_List_unchecked_const_iterator@V?$_List_val@U?$_List_simple_types@U?$pair@$$CBHPAVFarEditor@@@std@@@std@@@std@@U_Iterator_base0@2@@2@@Z 1000c510 f i FarEditorSet.cpp.obj
 0001:0000b510       ?_Make_iter@?$_Hash@V?$_Umap_traits@VSString@@PAV?$vector@PBVString@@V?$allocator@PBVString@@@std@@@std@@V?$_Uhash_compare@VSString@@U?$hash@VSString@@@std@@U?$equal_to@VSString@@@3@@3@V?$allocator@U?$pair@$$CBVSString@@PAV?$vector@PBVString@@V?$allocator@PBVString@@@std@@@std@@@std@@@3@$0A@@std@@@std@@QBE?AV?$_List_iterator@V?$_List_val@U?$_List_simple_types@U?$pair@$$CBVSString@@PAV?$vector@PBVString@@V?$allocator@PBVString@@@std@@@std@@@std@@@std@@@std@@@2@V?$_List_unchecked_const_iterator@V?$_List_val@U?$_List_simple_types@U?$pair@$$CBVSString@@PAV?$vector@PBVString@@V?$allocator@PBVString@@@std@@@std@@@std@@@std@@@std@@U_Iterator_base0@2@@2@@Z 1000c510 f i colorer_lib:ParserFactory.cpp.obj
 0001:0000b520       ?_Destroy@?$vector@VSString@@V?$allocator@VSString@@@std@@@std@@AAEXPAVSString@@0@Z 1000c520 f i FarEditorSet.cpp.obj
 0001:0000b550       ?deallocate@?$allocator@VSString@@@std@@QAEXQAVSString@@I@Z 1000c550 f i FarEditorSet.cpp.obj
 0001:0000b590       ?_Xlength@?$vector@PAVVirtualEntry@@V?$allocator@PAVVirtualEntry@@@std@@@std@@CAXXZ 1000c590 f i colorer_lib:HRCParserImpl.cpp.obj
 0001:0000b590       ?_Xlength@?$vector@PBVString@@V?$allocator@PBVString@@@std@@@std@@CAXXZ 1000c590 f i colorer_lib:ParserFactory.cpp.obj
 0001:0000b590       ?_Xlength@?$vector@PAVEditorListener@@V?$allocator@PAVEditorListener@@@std@@@std@@CAXXZ 1000c590 f i colorer_lib:BaseEditor.cpp.obj
 0001:0000b590       ?_Xlength@?$vector@V?$_List_unchecked_iterator@V?$_List_val@U?$_List_simple_types@U?$pair@$$CBVSString@@PAVString@@@std@@@std@@@std@@@std@@V?$allocator@V?$_List_unchecked_iterator@V?$_List_val@U?$_List_simple_types@U?$pair@$$CBVSString@@PAVString@@@std@@@std@@@std@@@std@@@2@@std@@CAXXZ 1000c590 f i colorer_lib:HRCParserImpl.cpp.obj
 0001:0000b590       ?_Xlength@?$vector@PAVSchemeNode@@V?$allocator@PAVSchemeNode@@@std@@@std@@CAXXZ 1000c590 f i colorer_lib:HRCParserImpl.cpp.obj
 0001:0000b590       ?_Xlength@?$vector@V?$_List_unchecked_iterator@V?$_List_val@U?$_List_simple_types@U?$pair@$$CBVSString@@PAVSharedInputSource@@@std@@@std@@@std@@@std@@V?$allocator@V?$_List_unchecked_iterator@V?$_List_val@U?$_List_simple_types@U?$pair@$$CBVSString@@PAVSharedInputSource@@@std@@@std@@@std@@@std@@@2@@std@@CAXXZ 1000c590 f i colorer_lib:SharedInputSource.cpp.obj
 0001:0000b590       ?_Xlength@?$vector@V?$_List_unchecked_iterator@V?$_List_val@U?$_List_simple_types@U?$pair@$$CBVSString@@PAVFileTypeImpl@@@std@@@std@@@std@@@std@@V?$allocator@V?$_List_unchecked_iterator@V?$_List_val@U?$_List_simple_types@U?$pair@$$CBVSString@@PAVFileTypeImpl@@@std@@@std@@@std@@@std@@@2@@std@@CAXXZ 1000c590 f i colorer_lib:HRCParserImpl.cpp.obj
 0001:0000b590       ?_Xlength@?$vector@VSString@@V?$allocator@VSString@@@std@@@std@@CAXXZ 1000c590 f i colorer_lib:ParserFactory.cpp.obj
 0001:0000b590       ?_Xlength@?$vector@PBVRegion@@V?$allocator@PBVRegion@@@std@@@std@@CAXXZ 1000c590 f i colorer_lib:HRCParserImpl.cpp.obj
 0001:0000b590       ?_Xlength@?$vector@PAEV?$allocator@PAE@std@@@std@@CAXXZ 1000c590 f i colorer_lib:MemoryChunks.cpp.obj
 0001:0000b590       ?_Xlength@?$vector@V?$_List_unchecked_iterator@V?$_List_val@U?$_List_simple_types@U?$pair@$$CBVSString@@PBVString@@@std@@@std@@@std@@@std@@V?$allocator@V?$_List_unchecked_iterator@V?$_List_val@U?$_List_simple_types@U?$pair@$$CBVSString@@PBVString@@@std@@@std@@@std@@@std@@@2@@std@@CAXXZ 1000c590 f i colorer_lib:ParserFactory.cpp.obj
 0001:0000b590       ?_Xlength@?$vector@PAVFileTypeChooser@@V?$allocator@PAVFileTypeChooser@@@std@@@std@@CAXXZ 1000c590 f i colorer_lib:HRCParserImpl.cpp.obj
 0001:0000b590       ?_Xlength@?$vector@PAVRegionHandler@@V?$allocator@PAVRegionHandler@@@std@@@std@@CAXXZ 1000c590 f i colorer_lib:BaseEditor.cpp.obj
 0001:0000b590       ?_Xlength@?$vector@V?$_List_unchecked_iterator@V?$_List_val@U?$_List_simple_types@U?$pair@$$CBHPAVFarEditor@@@std@@@std@@@std@@@std@@V?$allocator@V?$_List_unchecked_iterator@V?$_List_val@U?$_List_simple_types@U?$pair@$$CBHPAVFarEditor@@@std@@@std@@@std@@@std@@@2@@std@@CAXXZ 1000c590 f i FarEditorSet.cpp.obj
 0001:0000b590       ?_Xlength@?$vector@PAVOutlineItem@@V?$allocator@PAVOutlineItem@@@std@@@std@@CAXXZ 1000c590 f i colorer_lib:Outliner.cpp.obj
 0001:0000b590       ?_Xlength@?$vector@V?$_List_unchecked_iterator@V?$_List_val@U?$_List_simple_types@U?$pair@$$CBVSString@@PAVTypeParameter@@@std@@@std@@@std@@@std@@V?$allocator@V?$_List_unchecked_iterator@V?$_List_val@U?$_List_simple_types@U?$pair@$$CBVSString@@PAVTypeParameter@@@std@@@std@@@std@@@std@@@2@@std@@CAXXZ 1000c590 f i colorer_lib:FileTypeImpl.cpp.obj
 0001:0000b590       ?_Xlength@?$vector@PBVRegionDefine@@V?$allocator@PBVRegionDefine@@@std@@@std@@CAXXZ 1000c590 f i colorer_lib:RegionMapperImpl.cpp.obj
 0001:0000b590       ?_Xlength@?$vector@PAVFileTypeImpl@@V?$allocator@PAVFileTypeImpl@@@std@@@std@@CAXXZ 1000c590 f i colorer_lib:HRCParserImpl.cpp.obj
 0001:0000b590       ?_Xlength@?$vector@V?$_List_unchecked_iterator@V?$_List_val@U?$_List_simple_types@U?$pair@$$CBVSString@@PBVRegion@@@std@@@std@@@std@@@std@@V?$allocator@V?$_List_unchecked_iterator@V?$_List_val@U?$_List_simple_types@U?$pair@$$CBVSString@@PBVRegion@@@std@@@std@@@std@@@std@@@2@@std@@CAXXZ 1000c590 f i colorer_lib:HRCParserImpl.cpp.obj
 0001:0000b590       ?_Xlength@?$vector@V?$_List_unchecked_iterator@V?$_List_val@U?$_List_simple_types@U?$pair@$$CBVSString@@PAVSharedXmlInputSource@@@std@@@std@@@std@@@std@@V?$allocator@V?$_List_unchecked_iterator@V?$_List_val@U?$_List_simple_types@U?$pair@$$CBVSString@@PAVSharedXmlInputSource@@@std@@@std@@@std@@@std@@@2@@std@@CAXXZ 1000c590 f i colorer_lib:SharedXmlInputSource.cpp.obj
 0001:0000b590       ?_Xlength@?$vector@V?$_List_unchecked_iterator@V?$_List_val@U?$_List_simple_types@U?$pair@$$CBVSString@@PAV?$unordered_map@VSString@@PAV?$vector@PBVString@@V?$allocator@PBVString@@@std@@@std@@U?$hash@VSString@@@3@U?$equal_to@VSString@@@3@V?$allocator@U?$pair@$$CBVSString@@PAV?$vector@PBVString@@V?$allocator@PBVString@@@std@@@std@@@std@@@3@@std@@@std@@@std@@@std@@@std@@V?$allocator@V?$_List_unchecked_iterator@V?$_List_val@U?$_List_simple_types@U?$pair@$$CBVSString@@PAV?$unordered_map@VSString@@PAV?$vector@PBVString@@V?$allocator@PBVString@@@std@@@std@@U?$hash@VSString@@@3@U?$equal_to@VSString@@@3@V?$allocator@U?$pair@$$CBVSString@@PAV?$vector@PBVString@@V?$allocator@PBVString@@@std@@@std@@@std@@@3@@std@@@std@@@std@@@std@@@std@@@2@@std@@CAXXZ 1000c590 f i colorer_lib:ParserFactory.cpp.obj
 0001:0000b590       ?_Xlength@?$vector@HV?$allocator@H@std@@@std@@CAXXZ 1000c590 f i colorer_lib:Outliner.cpp.obj
 0001:0000b590       ?_Xlength@?$vector@V?$_List_unchecked_iterator@V?$_List_val@U?$_List_simple_types@U?$pair@$$CBVSString@@PAV?$vector@PBVString@@V?$allocator@PBVString@@@std@@@std@@@std@@@std@@@std@@@std@@V?$allocator@V?$_List_unchecked_iterator@V?$_List_val@U?$_List_simple_types@U?$pair@$$CBVSString@@PAV?$vector@PBVString@@V?$allocator@PBVString@@@std@@@std@@@std@@@std@@@std@@@std@@@2@@std@@CAXXZ 1000c590 f i colorer_lib:ParserFactory.cpp.obj
 0001:0000b590       ?_Xlength@?$vector@PAVLineRegion@@V?$allocator@PAVLineRegion@@@std@@@std@@CAXXZ 1000c590 f i colorer_lib:LineRegionsSupport.cpp.obj
 0001:0000b590       ?_Xlength@?$vector@V?$_List_unchecked_iterator@V?$_List_val@U?$_List_simple_types@U?$pair@$$CBVSString@@H@std@@@std@@@std@@@std@@V?$allocator@V?$_List_unchecked_iterator@V?$_List_val@U?$_List_simple_types@U?$pair@$$CBVSString@@H@std@@@std@@@std@@@std@@@2@@std@@CAXXZ 1000c590 f i colorer_lib:HRCParserImpl.cpp.obj
 0001:0000b590       ?_Xlength@?$vector@PAVString@@V?$allocator@PAVString@@@std@@@std@@CAXXZ 1000c590 f i colorer_lib:ParserFactory.cpp.obj
 0001:0000b590       ?_Xlength@?$vector@V?$_List_unchecked_iterator@V?$_List_val@U?$_List_simple_types@U?$pair@$$CBVSString@@PAVRegionDefine@@@std@@@std@@@std@@@std@@V?$allocator@V?$_List_unchecked_iterator@V?$_List_val@U?$_List_simple_types@U?$pair@$$CBVSString@@PAVRegionDefine@@@std@@@std@@@std@@@std@@@2@@std@@CAXXZ 1000c590 f i colorer_lib:StyledHRDMapper.cpp.obj
 0001:0000b590       ?_Xlength@?$vector@V?$_List_unchecked_iterator@V?$_List_val@U?$_List_simple_types@U?$pair@$$CBVSString@@PAVSchemeImpl@@@std@@@std@@@std@@@std@@V?$allocator@V?$_List_unchecked_iterator@V?$_List_val@U?$_List_simple_types@U?$pair@$$CBVSString@@PAVSchemeImpl@@@std@@@std@@@std@@@std@@@2@@std@@CAXXZ 1000c590 f i colorer_lib:HRCParserImpl.cpp.obj
 0001:0000b5a0       ?_Reallocate_exactly@?$vector@V?$_List_unchecked_iterator@V?$_List_val@U?$_List_simple_types@U?$pair@$$CBVSString@@PAV?$unordered_map@VSString@@PAV?$vector@PBVString@@V?$allocator@PBVString@@@std@@@std@@U?$hash@VSString@@@3@U?$equal_to@VSString@@@3@V?$allocator@U?$pair@$$CBVSString@@PAV?$vector@PBVString@@V?$allocator@PBVString@@@std@@@std@@@std@@@3@@std@@@std@@@std@@@std@@@std@@V?$allocator@V?$_List_unchecked_iterator@V?$_List_val@U?$_List_simple_types@U?$pair@$$CBVSString@@PAV?$unordered_map@VSString@@PAV?$vector@PBVString@@V?$allocator@PBVString@@@std@@@std@@U?$hash@VSString@@@3@U?$equal_to@VSString@@@3@V?$allocator@U?$pair@$$CBVSString@@PAV?$vector@PBVString@@V?$allocator@PBVString@@@std@@@std@@@std@@@3@@std@@@std@@@std@@@std@@@std@@@2@@std@@AAEXI@Z 1000c5a0 f i colorer_lib:ParserFactory.cpp.obj
 0001:0000b5a0       ?_Reallocate_exactly@?$vector@V?$_List_unchecked_iterator@V?$_List_val@U?$_List_simple_types@U?$pair@$$CBVSString@@PAVTypeParameter@@@std@@@std@@@std@@@std@@V?$allocator@V?$_List_unchecked_iterator@V?$_List_val@U?$_List_simple_types@U?$pair@$$CBVSString@@PAVTypeParameter@@@std@@@std@@@std@@@std@@@2@@std@@AAEXI@Z 1000c5a0 f i colorer_lib:FileTypeImpl.cpp.obj
 0001:0000b5a0       ?_Reallocate_exactly@?$vector@V?$_List_unchecked_iterator@V?$_List_val@U?$_List_simple_types@U?$pair@$$CBVSString@@PAVSharedInputSource@@@std@@@std@@@std@@@std@@V?$allocator@V?$_List_unchecked_iterator@V?$_List_val@U?$_List_simple_types@U?$pair@$$CBVSString@@PAVSharedInputSource@@@std@@@std@@@std@@@std@@@2@@std@@AAEXI@Z 1000c5a0 f i colorer_lib:SharedInputSource.cpp.obj
 0001:0000b5a0       ?_Reallocate_exactly@?$vector@V?$_List_unchecked_iterator@V?$_List_val@U?$_List_simple_types@U?$pair@$$CBVSString@@PAVFileTypeImpl@@@std@@@std@@@std@@@std@@V?$allocator@V?$_List_unchecked_iterator@V?$_List_val@U?$_List_simple_types@U?$pair@$$CBVSString@@PAVFileTypeImpl@@@std@@@std@@@std@@@std@@@2@@std@@AAEXI@Z 1000c5a0 f i colorer_lib:HRCParserImpl.cpp.obj
 0001:0000b5a0       ?_Reallocate_exactly@?$vector@V?$_List_unchecked_iterator@V?$_List_val@U?$_List_simple_types@U?$pair@$$CBVSString@@PAVString@@@std@@@std@@@std@@@std@@V?$allocator@V?$_List_unchecked_iterator@V?$_List_val@U?$_List_simple_types@U?$pair@$$CBVSString@@PAVString@@@std@@@std@@@std@@@std@@@2@@std@@AAEXI@Z 1000c5a0 f i colorer_lib:HRCParserImpl.cpp.obj
 0001:0000b5a0       ?_Reallocate_exactly@?$vector@V?$_List_unchecked_iterator@V?$_List_val@U?$_List_simple_types@U?$pair@$$CBVSString@@PAVRegionDefine@@@std@@@std@@@std@@@std@@V?$allocator@V?$_List_unchecked_iterator@V?$_List_val@U?$_List_simple_types@U?$pair@$$CBVSString@@PAVRegionDefine@@@std@@@std@@@std@@@std@@@2@@std@@AAEXI@Z 1000c5a0 f i colorer_lib:StyledHRDMapper.cpp.obj
 0001:0000b5a0       ?_Reallocate_exactly@?$vector@V?$_List_unchecked_iterator@V?$_List_val@U?$_List_simple_types@U?$pair@$$CBHPAVFarEditor@@@std@@@std@@@std@@@std@@V?$allocator@V?$_List_unchecked_iterator@V?$_List_val@U?$_List_simple_types@U?$pair@$$CBHPAVFarEditor@@@std@@@std@@@std@@@std@@@2@@std@@AAEXI@Z 1000c5a0 f i FarEditorSet.cpp.obj
 0001:0000b5a0       ?_Reallocate_exactly@?$vector@V?$_List_unchecked_iterator@V?$_List_val@U?$_List_simple_types@U?$pair@$$CBVSString@@PBVString@@@std@@@std@@@std@@@std@@V?$allocator@V?$_List_unchecked_iterator@V?$_List_val@U?$_List_simple_types@U?$pair@$$CBVSString@@PBVString@@@std@@@std@@@std@@@std@@@2@@std@@AAEXI@Z 1000c5a0 f i colorer_lib:ParserFactory.cpp.obj
 0001:0000b5a0       ?_Reallocate_exactly@?$vector@V?$_List_unchecked_iterator@V?$_List_val@U?$_List_simple_types@U?$pair@$$CBVSString@@PAV?$vector@PBVString@@V?$allocator@PBVString@@@std@@@std@@@std@@@std@@@std@@@std@@V?$allocator@V?$_List_unchecked_iterator@V?$_List_val@U?$_List_simple_types@U?$pair@$$CBVSString@@PAV?$vector@PBVString@@V?$allocator@PBVString@@@std@@@std@@@std@@@std@@@std@@@std@@@2@@std@@AAEXI@Z 1000c5a0 f i colorer_lib:ParserFactory.cpp.obj
 0001:0000b5a0       ?_Reallocate_exactly@?$vector@V?$_List_unchecked_iterator@V?$_List_val@U?$_List_simple_types@U?$pair@$$CBVSString@@PAVSharedXmlInputSource@@@std@@@std@@@std@@@std@@V?$allocator@V?$_List_unchecked_iterator@V?$_List_val@U?$_List_simple_types@U?$pair@$$CBVSString@@PAVSharedXmlInputSource@@@std@@@std@@@std@@@std@@@2@@std@@AAEXI@Z 1000c5a0 f i colorer_lib:SharedXmlInputSource.cpp.obj
 0001:0000b5a0       ?_Reallocate_exactly@?$vector@V?$_List_unchecked_iterator@V?$_List_val@U?$_List_simple_types@U?$pair@$$CBVSString@@PAVSchemeImpl@@@std@@@std@@@std@@@std@@V?$allocator@V?$_List_unchecked_iterator@V?$_List_val@U?$_List_simple_types@U?$pair@$$CBVSString@@PAVSchemeImpl@@@std@@@std@@@std@@@std@@@2@@std@@AAEXI@Z 1000c5a0 f i colorer_lib:HRCParserImpl.cpp.obj
 0001:0000b5a0       ?_Reallocate_exactly@?$vector@V?$_List_unchecked_iterator@V?$_List_val@U?$_List_simple_types@U?$pair@$$CBVSString@@PBVRegion@@@std@@@std@@@std@@@std@@V?$allocator@V?$_List_unchecked_iterator@V?$_List_val@U?$_List_simple_types@U?$pair@$$CBVSString@@PBVRegion@@@std@@@std@@@std@@@std@@@2@@std@@AAEXI@Z 1000c5a0 f i colorer_lib:HRCParserImpl.cpp.obj
 0001:0000b670       ??$_Allocate@$07U_Default_allocate_traits@std@@$0A@@std@@YAPAXI@Z 1000c670 f i FarEditorSet.cpp.obj
 0001:0000b6d0       ??$_Insert@AAU?$pair@$$CBHPAVFarEditor@@@std@@V?$_List_unchecked_iterator@V?$_List_val@U?$_List_simple_types@U?$pair@$$CBHPAVFarEditor@@@std@@@std@@@std@@@2@@?$_Hash@V?$_Umap_traits@HPAVFarEditor@@V?$_Uhash_compare@HU?$hash@H@std@@U?$equal_to@H@2@@std@@V?$allocator@U?$pair@$$CBHPAVFarEditor@@@std@@@3@$0A@@std@@@std@@IAE?AU?$pair@V?$_List_iterator@V?$_List_val@U?$_List_simple_types@U?$pair@$$CBHPAVFarEditor@@@std@@@std@@@std@@@std@@_N@1@AAU?$pair@$$CBHPAVFarEditor@@@1@V?$_List_unchecked_iterator@V?$_List_val@U?$_List_simple_types@U?$pair@$$CBHPAVFarEditor@@@std@@@std@@@std@@@1@@Z 1000c6d0 f i FarEditorSet.cpp.obj
 0001:0000b8f0       ?_Buynode0@?$_List_alloc@U?$_List_base_types@U?$pair@$$CBHPAVFarEditor@@@std@@V?$allocator@U?$pair@$$CBHPAVFarEditor@@@std@@@2@@std@@@std@@QAEPAU?$_List_node@U?$pair@$$CBHPAVFarEditor@@@std@@PAX@2@PAU32@0@Z 1000c8f0 f i FarEditorSet.cpp.obj
 0001:0000b920       ??$erase@V?$_List_iterator@V?$_List_val@U?$_List_simple_types@U?$pair@$$CBHPAVFarEditor@@@std@@@std@@@std@@@std@@X@?$_Hash@V?$_Umap_traits@HPAVFarEditor@@V?$_Uhash_compare@HU?$hash@H@std@@U?$equal_to@H@2@@std@@V?$allocator@U?$pair@$$CBHPAVFarEditor@@@std@@@3@$0A@@std@@@std@@QAE?AV?$_List_iterator@V?$_List_val@U?$_List_simple_types@U?$pair@$$CBHPAVFarEditor@@@std@@@std@@@std@@@1@V21@@Z 1000c920 f i FarEditorSet.cpp.obj
 0001:0000b940       ??$_Buynode@AAU?$pair@HPAVFarEditor@@@std@@@?$_List_buy@U?$pair@$$CBHPAVFarEditor@@@std@@V?$allocator@U?$pair@$$CBHPAVFarEditor@@@std@@@2@@std@@QAEPAU?$_List_node@U?$pair@$$CBHPAVFarEditor@@@std@@PAX@1@PAU21@0AAU?$pair@HPAVFarEditor@@@1@@Z 1000c940 f i FarEditorSet.cpp.obj
 0001:0000b960       ?setElemStack@ValidationContext@xercesc_3_1@@UAEXPAVElemStack@2@@Z 1000c960 f i xerces-c_3_1:ValidationContextImpl.cpp.obj
 0001:0000b960       ?startJob@LineSource@@UAEXI@Z 1000c960 f i FarEditor.cpp.obj
 0001:0000b960       ?endEntityReference@XSDDOMParser@xercesc_3_1@@UAEXABVXMLEntityDecl@2@@Z 1000c960 f i xerces-c_3_1:XSDDOMParser.cpp.obj
 0001:0000b960       ?setNodeValue@DOMDocumentImpl@xercesc_3_1@@UAEXPB_W@Z 1000c960 f i xerces-c_3_1:DOMDocumentImpl.cpp.obj
 0001:0000b960       ?validateElement@DTDValidator@xercesc_3_1@@UAEXPBVXMLElementDecl@2@@Z 1000c960 f i xerces-c_3_1:DTDValidator.cpp.obj
 0001:0000b960       ?setContentModel@SchemaElementDecl@xercesc_3_1@@UAEXQAVXMLContentModel@2@@Z 1000c960 f i xerces-c_3_1:SchemaElementDecl.cpp.obj
 0001:0000b960       ?endParsing@RegionHandler@@UAEXI@Z 1000c960 f i colorer_lib:BaseEditor.cpp.obj
 0001:0000b960       ?setNamespaceScope@ValidationContext@xercesc_3_1@@UAEXPAVNamespaceScope@2@@Z 1000c960 f i xerces-c_3_1:ValidationContextImpl.cpp.obj
 0001:0000b960       ?setNodeValue@DOMEntityImpl@xercesc_3_1@@UAEXPB_W@Z 1000c960 f i xerces-c_3_1:DOMEntityImpl.cpp.obj
 0001:0000b960       ?startParsing@RegionHandler@@UAEXI@Z 1000c960 f i colorer_lib:BaseEditor.cpp.obj
 0001:0000b960       ?error@DefaultErrorHandler@@UAEXABVString@@@Z 1000c960 f i colorer_lib:ParserFactory.cpp.obj
 0001:0000b960       ?fatalError@DefaultErrorHandler@@UAEXABVString@@@Z 1000c960 f i colorer_lib:ParserFactory.cpp.obj
 0001:0000b960       ?startInputSource@DOMLSParserImpl@xercesc_3_1@@UAEXABVInputSource@2@@Z 1000c960 f i xerces-c_3_1:DOMLSParserImpl.cpp.obj
 0001:0000b960       ?startEntityReference@XSDDOMParser@xercesc_3_1@@UAEXABVXMLEntityDecl@2@@Z 1000c960 f i xerces-c_3_1:XSDDOMParser.cpp.obj
 0001:0000b960       ?warning@DefaultErrorHandler@@UAEXABVString@@@Z 1000c960 f i colorer_lib:ParserFactory.cpp.obj
 0001:0000b960       ?endJob@LineSource@@UAEXI@Z 1000c960 f i FarEditor.cpp.obj
 0001:0000b960       ?checkAdditionalFacetConstraints@AbstractStringValidator@xercesc_3_1@@MBEXQAVMemoryManager@2@@Z 1000c960 f i xerces-c_3_1:AbstractStringValidator.cpp.obj
 0001:0000b960       ?setContentSpec@SchemaElementDecl@xercesc_3_1@@UAEXPAVContentSpecNode@2@@Z 1000c960 f i xerces-c_3_1:SchemaElementDecl.cpp.obj
 0001:0000b960       ?checkAdditionalFacetConstraints@AbstractNumericFacetValidator@xercesc_3_1@@MBEXQAVMemoryManager@2@@Z 1000c960 f i xerces-c_3_1:AbstractNumericFacetValidator.cpp.obj
 0001:0000b960       ?setScanner@ValidationContext@xercesc_3_1@@UAEXPAVXMLScanner@2@@Z 1000c960 f i xerces-c_3_1:ValidationContextImpl.cpp.obj
 0001:0000b960       ?endInputSource@XercesDOMParser@xercesc_3_1@@UAEXABVInputSource@2@@Z 1000c960 f i xerces-c_3_1:XercesDOMParser.cpp.obj
 0001:0000b960       ?setNodeValue@DOMNotationImpl@xercesc_3_1@@UAEXPB_W@Z 1000c960 f i xerces-c_3_1:DOMNotationImpl.cpp.obj
 0001:0000b960       ?checkAdditionalFacetConstraintsBase@AbstractNumericFacetValidator@xercesc_3_1@@MBEXQAVMemoryManager@2@@Z 1000c960 f i xerces-c_3_1:AbstractNumericFacetValidator.cpp.obj
 0001:0000b960       ?setNodeValue@DOMEntityReferenceImpl@xercesc_3_1@@UAEXPB_W@Z 1000c960 f i xerces-c_3_1:DOMEntityReferenceImpl.cpp.obj
 0001:0000b960       ?setNodeValue@DOMElementImpl@xercesc_3_1@@UAEXPB_W@Z 1000c960 f i xerces-c_3_1:DOMElementImpl.cpp.obj
 0001:0000b960       ?startInputSource@XercesDOMParser@xercesc_3_1@@UAEXABVInputSource@2@@Z 1000c960 f i xerces-c_3_1:XercesDOMParser.cpp.obj
 0001:0000b960       ?setNodeValue@DOMDocumentTypeImpl@xercesc_3_1@@UAEXPB_W@Z 1000c960 f i xerces-c_3_1:DOMDocumentTypeImpl.cpp.obj
 0001:0000b960       ?endInputSource@DOMLSParserImpl@xercesc_3_1@@UAEXABVInputSource@2@@Z 1000c960 f i xerces-c_3_1:DOMLSParserImpl.cpp.obj
 0001:0000b960       ?setNodeValue@DOMDocumentFragmentImpl@xercesc_3_1@@UAEXPB_W@Z 1000c960 f i xerces-c_3_1:DOMDocumentFragmentImpl.cpp.obj
 0001:0000b960       ?setMax@Token@xercesc_3_1@@UAEXH@Z 1000c960 f i xerces-c_3_1:Token.cpp.obj
 0001:0000b960       ?setMin@Token@xercesc_3_1@@UAEXH@Z 1000c960 f i xerces-c_3_1:Token.cpp.obj
 0001:0000b970       ??1LineSource@@MAE@XZ      1000c970 f i FarEditor.cpp.obj
 0001:0000b980       ??_GLineSource@@MAEPAXI@Z  1000c980 f i FarEditor.cpp.obj
 0001:0000b980       ??_ELineSource@@MAEPAXI@Z  1000c980 f i * CIL library *:* CIL module *
 0001:0000b9b0       ??_GLineRegion@@QAEPAXI@Z  1000c9b0 f i FarEditor.cpp.obj
 0001:0000b9e0       ??0FarEditor@@QAE@PAUPluginStartupInfo@@PAVParserFactory@@@Z 1000c9e0 f   FarEditor.cpp.obj
 0001:0000bd20       ??_GFarEditor@@UAEPAXI@Z   1000cd20 f i FarEditor.cpp.obj
 0001:0000bd20       ??_EFarEditor@@UAEPAXI@Z   1000cd20 f i * CIL library *:* CIL module *
 0001:0000be20       ?getLine@FarEditor@@UAEPAVString@@I@Z 1000ce20 f   FarEditor.cpp.obj
 0001:0000bf50       ?chooseFileType@FarEditor@@QAEXPAVString@@@Z 1000cf50 f   FarEditor.cpp.obj
 0001:0000bfa0       ?setFileType@FarEditor@@QAEXPAVFileType@@@Z 1000cfa0 f   FarEditor.cpp.obj
 0001:0000bfe0       ?reloadTypeSettings@FarEditor@@AAEXXZ 1000cfe0 f   FarEditor.cpp.obj
 0001:0000c160       ?setDrawCross@FarEditor@@QAEXHH@Z 1000d160 f   FarEditor.cpp.obj
 0001:0000c270       ?setRegionMapper@FarEditor@@QAEXPAVRegionMapper@@@Z 1000d270 f   FarEditor.cpp.obj
 0001:0000c360       ?getNameCurrentScheme@FarEditor@@QAEXXZ 1000d360 f   FarEditor.cpp.obj
 0001:0000c6b0       ?locateFunction@FarEditor@@QAEXXZ 1000d6b0 f   FarEditor.cpp.obj
 0001:0000ca10       ?getSuitableColor@FarEditor@@CAKKK@Z 1000da10 f   FarEditor.cpp.obj
 0001:0000ca50       ?editorEvent@FarEditor@@QAEHHPAX@Z 1000da50 f   FarEditor.cpp.obj
 0001:0000d2a0       ?showOutliner@FarEditor@@AAEXPAVOutliner@@@Z 1000e2a0 f   FarEditor.cpp.obj
 0001:0000e740       ?enterHandler@FarEditor@@AAE?AUEditorInfo@@XZ 1000f740 f   FarEditor.cpp.obj
 0001:0000e790       ?convert@FarEditor@@ABE?AUFarColor@@PBVStyledRegion@@@Z 1000f790 f   FarEditor.cpp.obj
 0001:0000e890       ?deleteFarColor@FarEditor@@ABEXHH@Z 1000f890 f   FarEditor.cpp.obj
 0001:0000e8f0       ?addFARColor@FarEditor@@ABEXHHHABUFarColor@@_K@Z 1000f8f0 f   FarEditor.cpp.obj
 0001:0000e9a0       ??1ChooseTypeMenu@@QAE@XZ  1000f9a0 f   ChooseTypeMenu.cpp.obj
 0001:0000e9e0       ?AddItem@ChooseTypeMenu@@AAEIPB_W_KPBVFileType@@I@Z 1000f9e0 f   ChooseTypeMenu.cpp.obj
 0001:0000eaf0       ?AddFavorite@ChooseTypeMenu@@QAEIPBVFileType@@@Z 1000faf0 f   ChooseTypeMenu.cpp.obj
 0001:0000eb70       ?DelFromFavorites@ChooseTypeMenu@@QAEXI@Z 1000fb70 f   ChooseTypeMenu.cpp.obj
 0001:0000ecb0       ?AddItemInGroup@ChooseTypeMenu@@QAEIPAVFileType@@@Z 1000fcb0 f   ChooseTypeMenu.cpp.obj
 0001:0000ee80       ?GenerateName@ChooseTypeMenu@@QAEPAVStringBuffer@@PBVFileType@@@Z 1000fe80 f   ChooseTypeMenu.cpp.obj
 0001:0000f050       ??0FarHrcSettingsException@@QAE@ABVString@@@Z 10010050 f i FarHrcSettings.cpp.obj
 0001:0000f130       ?readProfile@FarHrcSettings@@QAEXXZ 10010130 f   FarHrcSettings.cpp.obj
 0001:0000f240       ?readXML@FarHrcSettings@@QAEXPAVString@@_N@Z 10010240 f   FarHrcSettings.cpp.obj
 0001:0000f4e0       ??0FarHrcSettingsException@@QAE@ABV0@@Z 100104e0 f i FarHrcSettings.cpp.obj
 0001:0000f500       ?UpdatePrototype@FarHrcSettings@@AAEXPAVDOMElement@xercesc_3_1@@_N@Z 10010500 f   FarHrcSettings.cpp.obj
 0001:0000fab0       ?readProfileFromRegistry@FarHrcSettings@@AAEXXZ 10010ab0 f   FarHrcSettings.cpp.obj
 0001:0000fe60       ?writeProfileToRegistry@FarHrcSettings@@AAEXXZ 10010e60 f   FarHrcSettings.cpp.obj
 0001:000100d0       ??0SettingsControlException@@QAE@ABVString@@@Z 100110d0 f i SettingsControl.cpp.obj
 0001:000101b0       ??0SettingsControl@@QAE@XZ 100111b0 f   SettingsControl.cpp.obj
 0001:00010260       ??0SettingsControlException@@QAE@ABV0@@Z 10011260 f i SettingsControl.cpp.obj
 0001:00010280       ??1SettingsControl@@QAE@XZ 10011280 f   SettingsControl.cpp.obj
 0001:000102c0       ?Get@SettingsControl@@QAE_KIPB_W_K@Z 100112c0 f   SettingsControl.cpp.obj
 0001:00010320       ?PathToFull@@YAPA_WPB_W_N@Z 10011320 f   tools.cpp.obj
 0001:000104d0       ?PathToFullS@@YAPAVSString@@PB_W_N@Z 100114d0 f   tools.cpp.obj
 0001:00010550       _EncodePointerWrapper@4    10011550 f   vc_crt_fix_impl.cpp.obj
 0001:000105a0       _DecodePointerWrapper@4    100115a0 f   vc_crt_fix_impl.cpp.obj
 0001:000105e0       _GetModuleHandleExWWrapper@12 100115e0 f   vc_crt_fix_impl.cpp.obj
 0001:00010650       _InitializeSListHeadWrapper@4 10011650 f   vc_crt_fix_impl.cpp.obj
 0001:000106a0       _InterlockedFlushSListWrapper@4 100116a0 f   vc_crt_fix_impl.cpp.obj
 0001:000106f0       _InterlockedPopEntrySListWrapper@4 100116f0 f   vc_crt_fix_impl.cpp.obj
 0001:00010730       _InterlockedPushEntrySListWrapper@8 10011730 f   vc_crt_fix_impl.cpp.obj
 0001:00010780       _InterlockedPushListSListExWrapper@16 10011780 f   vc_crt_fix_impl.cpp.obj
 0001:000107d0       _RtlFirstEntrySListWrapper@4 100117d0 f   vc_crt_fix_impl.cpp.obj
 0001:00010810       _QueryDepthSListWrapper@4  10011810 f   vc_crt_fix_impl.cpp.obj
 0001:00010850       ??3@YAXPAX@Z               10011850 f   colorer_lib:MemoryChunks.cpp.obj
 0001:00010890       ?chunk_alloc@@YAPAXI@Z     10011890 f   colorer_lib:MemoryChunks.cpp.obj
 0001:00010a10       ?chunk_free@@YAXPAX@Z      10011a10 f   colorer_lib:MemoryChunks.cpp.obj
 0001:00010aa0       ??$_Emplace_reallocate@ABH@?$vector@HV?$allocator@H@std@@@std@@QAEPAHQAHABH@Z 10011aa0 f i colorer_lib:Outliner.cpp.obj
 0001:00010aa0       ??$_Emplace_reallocate@ABQAVSchemeNode@@@?$vector@PAVSchemeNode@@V?$allocator@PAVSchemeNode@@@std@@@std@@QAEPAPAVSchemeNode@@QAPAV2@ABQAV2@@Z 10011aa0 f i colorer_lib:HRCParserImpl.cpp.obj
 0001:00010aa0       ??$_Emplace_reallocate@ABQAE@?$vector@PAEV?$allocator@PAE@std@@@std@@QAEPAPAEQAPAEABQAE@Z 10011aa0 f i colorer_lib:MemoryChunks.cpp.obj
 0001:00010aa0       ??$_Emplace_reallocate@ABQAVEditorListener@@@?$vector@PAVEditorListener@@V?$allocator@PAVEditorListener@@@std@@@std@@QAEPAPAVEditorListener@@QAPAV2@ABQAV2@@Z 10011aa0 f i colorer_lib:BaseEditor.cpp.obj
 0001:00010aa0       ??$_Emplace_reallocate@ABQAVFileTypeChooser@@@?$vector@PAVFileTypeChooser@@V?$allocator@PAVFileTypeChooser@@@std@@@std@@QAEPAPAVFileTypeChooser@@QAPAV2@ABQAV2@@Z 10011aa0 f i colorer_lib:HRCParserImpl.cpp.obj
 0001:00010aa0       ??$_Emplace_reallocate@PBVString@@@?$vector@PBVString@@V?$allocator@PBVString@@@std@@@std@@QAEPAPBVString@@QAPBV2@$$QAPBV2@@Z 10011aa0 f i colorer_lib:ParserFactory.cpp.obj
 0001:00010aa0       ??$_Emplace_reallocate@ABQAVRegionHandler@@@?$vector@PAVRegionHandler@@V?$allocator@PAVRegionHandler@@@std@@@std@@QAEPAPAVRegionHandler@@QAPAV2@ABQAV2@@Z 10011aa0 f i colorer_lib:BaseEditor.cpp.obj
 0001:00010bc0       ??0StringBuffer@@QAE@XZ    10011bc0 f   colorer_lib:StringBuffer.cpp.obj
 0001:00010c40       ??_GStringBuffer@@UAEPAXI@Z 10011c40 f i colorer_lib:StringBuffer.cpp.obj
 0001:00010c40       ??_EStringBuffer@@UAEPAXI@Z 10011c40 f i * CIL library *:* CIL module *
 0001:00010cd0       ??0StringBuffer@@QAE@PBDHH@Z 10011cd0 f   colorer_lib:StringBuffer.cpp.obj
 0001:00010d60       ??0StringBuffer@@QAE@PBVString@@HH@Z 10011d60 f   colorer_lib:StringBuffer.cpp.obj
 0001:00010d60       ??0StringBuffer@@QAE@ABVString@@HH@Z 10011d60 f   colorer_lib:StringBuffer.cpp.obj
 0001:00010dd0       ??1?$pair@VSString@@PAV?$unordered_map@VSString@@PAV?$vector@PBVString@@V?$allocator@PBVString@@@std@@@std@@U?$hash@VSString@@@3@U?$equal_to@VSString@@@3@V?$allocator@U?$pair@$$CBVSString@@PAV?$vector@PBVString@@V?$allocator@PBVString@@@std@@@std@@@std@@@3@@std@@@std@@QAE@XZ 10011dd0 f   colorer_lib:ParserFactory.cpp.obj
 0001:00010dd0       ??1StringBuffer@@UAE@XZ    10011dd0 f   colorer_lib:StringBuffer.cpp.obj
 0001:00010dd0       ??1?$pair@VSString@@PBVRegion@@@std@@QAE@XZ 10011dd0 f   colorer_lib:HRCParserImpl.cpp.obj
 0001:00010dd0       ??1?$pair@VSString@@PAVFileTypeImpl@@@std@@QAE@XZ 10011dd0 f   colorer_lib:HRCParserImpl.cpp.obj
 0001:00010dd0       ??1?$pair@VSString@@PAVSharedXmlInputSource@@@std@@QAE@XZ 10011dd0 f   colorer_lib:SharedXmlInputSource.cpp.obj
 0001:00010dd0       ??1?$pair@VSString@@PAVRegionDefine@@@std@@QAE@XZ 10011dd0 f   colorer_lib:StyledHRDMapper.cpp.obj
 0001:00010dd0       ??1?$pair@VSString@@PAVTypeParameter@@@std@@QAE@XZ 10011dd0 f   colorer_lib:FileTypeImpl.cpp.obj
 0001:00010dd0       ??1SString@@UAE@XZ         10011dd0 f   colorer_lib:SString.cpp.obj
 0001:00010dd0       ??1?$pair@VSString@@PBVString@@@std@@QAE@XZ 10011dd0 f   colorer_lib:ParserFactory.cpp.obj
 0001:00010dd0       ??1?$pair@VSString@@PAVString@@@std@@QAE@XZ 10011dd0 f   colorer_lib:HRCParserImpl.cpp.obj
 0001:00010dd0       ??1?$pair@VSString@@PAVSharedInputSource@@@std@@QAE@XZ 10011dd0 f   colorer_lib:SharedInputSource.cpp.obj
 0001:00010dd0       ??1?$pair@VSString@@PAVSchemeImpl@@@std@@QAE@XZ 10011dd0 f   colorer_lib:HRCParserImpl.cpp.obj
 0001:00010dd0       ??1?$pair@VSString@@PAV?$vector@PBVString@@V?$allocator@PBVString@@@std@@@std@@@std@@QAE@XZ 10011dd0 f   colorer_lib:ParserFactory.cpp.obj
 0001:00010e50       ?append@StringBuffer@@QAEAAV1@PBVString@@@Z 10011e50 f   colorer_lib:StringBuffer.cpp.obj
 0001:00010ef0       ?append@StringBuffer@@QAEAAV1@ABVString@@@Z 10011ef0 f   colorer_lib:StringBuffer.cpp.obj
 0001:00010fe0       ??HStringBuffer@@QAEAAV0@ABVString@@@Z 10011fe0 f   colorer_lib:StringBuffer.cpp.obj
 0001:00010ff0       ??HStringBuffer@@QAEAAV0@PBVString@@@Z 10011ff0 f   colorer_lib:StringBuffer.cpp.obj
 0001:00011000       ??HStringBuffer@@QAEAAV0@PBD@Z 10012000 f   colorer_lib:StringBuffer.cpp.obj
 0001:000110a0       __vsnprintf_l              100120a0 f i colorer_lib:SString.cpp.obj
 0001:000110e0       _sprintf                   100120e0 f i colorer_lib:SString.cpp.obj
 0001:00011100       ?construct@SString@@IAEXPBVString@@HH@Z 10012100 f   colorer_lib:SString.cpp.obj
 0001:000111f0       ??0SString@@QAE@ABVString@@HH@Z 100121f0 f   colorer_lib:SString.cpp.obj
 0001:000111f0       ??0SString@@QAE@PBVString@@HH@Z 100121f0 f   colorer_lib:SString.cpp.obj
 0001:00011250       ??_GSString@@UAEPAXI@Z     10012250 f i colorer_lib:SString.cpp.obj
 0001:00011250       ??_ESString@@UAEPAXI@Z     10012250 f i * CIL library *:* CIL module *
 0001:000112e0       ??0SString@@QAE@PADH@Z     100122e0 f   colorer_lib:SString.cpp.obj
 0001:000113a0       ??0SString@@QAE@PA_W@Z     100123a0 f   colorer_lib:SString.cpp.obj
 0001:00011450       ??0SString@@QAE@H@Z        10012450 f   colorer_lib:SString.cpp.obj
 0001:000114e0       ??ASString@@UBE_WH@Z       100124e0 f   colorer_lib:SString.cpp.obj
 0001:00011550       ??0StringIndexOutOfBoundsException@@QAE@ABV0@@Z 10012550 f i colorer_lib:SString.cpp.obj
 0001:00011570       ?getScanner@XMLValidator@xercesc_3_1@@IAEPAVXMLScanner@2@XZ 10012570 f   xerces-c_3_1:SchemaValidator.cpp.obj
 0001:00011570       ?getID@Region@@UBEHXZ      10012570 f   colorer_lib:HRCParserImpl.cpp.obj
 0001:00011570       ?getNextSibling@DOMCDATASectionImpl@xercesc_3_1@@UBEPAVDOMNode@2@XZ 10012570 f   xerces-c_3_1:DOMCDATASectionImpl.cpp.obj
 0001:00011570       ?getMemoryManager@?$ValueVectorOf@URE_RuntimeContext@xercesc_3_1@@@xercesc_3_1@@QBEPAVMemoryManager@2@XZ 10012570 f   xerces-c_3_1:RegularExpression.cpp.obj
 0001:00011570       ?getOwnerDocument@DOMElementImpl@xercesc_3_1@@UBEPAVDOMDocument@2@XZ 10012570 f   xerces-c_3_1:DOMElementImpl.cpp.obj
 0001:00011570       ?getMemoryManager@?$ValueVectorOf@_N@xercesc_3_1@@QBEPAVMemoryManager@2@XZ 10012570 f   xerces-c_3_1:SGXMLScanner.cpp.obj
 0001:00011570       ?length@SString@@UBEHXZ    10012570 f   colorer_lib:SString.cpp.obj
 0001:00011570       ?getOwnerDocument@DOMDocumentFragmentImpl@xercesc_3_1@@UBEPAVDOMDocument@2@XZ 10012570 f   xerces-c_3_1:DOMDocumentFragmentImpl.cpp.obj
 0001:00011570       ?getChild@ChildOp@xercesc_3_1@@UBEPBVOp@2@XZ 10012570 f   xerces-c_3_1:Op.cpp.obj
 0001:00011570       ?getOwnerDocument@DOMAttrImpl@xercesc_3_1@@UBEPAVDOMDocument@2@XZ 10012570 f   xerces-c_3_1:DOMAttrImpl.cpp.obj
 0001:00011570       ?getData@CharOp@xercesc_3_1@@UBEHXZ 10012570 f   xerces-c_3_1:Op.cpp.obj
 0001:00011570       ?getGroup@FileTypeImpl@@UBEPBVString@@XZ 10012570 f   colorer_lib:FileTypeImpl.cpp.obj
 0001:00011570       ?getFilter@DOMNodeIteratorImpl@xercesc_3_1@@UAEPAVDOMNodeFilter@2@XZ 10012570 f   xerces-c_3_1:DOMNodeIteratorImpl.cpp.obj
 0001:00011570       ?getNextSibling@DOMTextImpl@xercesc_3_1@@UBEPAVDOMNode@2@XZ 10012570 f   xerces-c_3_1:DOMTextImpl.cpp.obj
 0001:00011570       ?getToken@RangeOp@xercesc_3_1@@UBEPBVToken@2@XZ 10012570 f   xerces-c_3_1:Op.cpp.obj
 0001:00011570       ?getSystemId@InputSource@xercesc_3_1@@UBEPB_WXZ 10012570 f   colorer_lib:ZipXmlInputSource.cpp.obj
 0001:00011570       ?getPublicId@DOMLSInputImpl@xercesc_3_1@@UBEPB_WXZ 10012570 f   xerces-c_3_1:DOMLSInputImpl.cpp.obj
 0001:00011570       ?getPublicId@DOMNotationImpl@xercesc_3_1@@UBEPB_WXZ 10012570 f   xerces-c_3_1:DOMNotationImpl.cpp.obj
 0001:00011570       ?getKey@XMLEntityDecl@xercesc_3_1@@QBEPB_WXZ 10012570 f   xerces-c_3_1:DTDGrammar.cpp.obj
 0001:00011570       ?getNextSibling@DOMCommentImpl@xercesc_3_1@@UBEPAVDOMNode@2@XZ 10012570 f   xerces-c_3_1:DOMCommentImpl.cpp.obj
 0001:00011570       ?getMemoryManager@?$ValueVectorOf@K@xercesc_3_1@@QBEPAVMemoryManager@2@XZ 10012570 f   xerces-c_3_1:XPathMatcher.cpp.obj
 0001:00011570       ?getId@XSObject@xercesc_3_1@@UBEKXZ 10012570 f   xerces-c_3_1:XSObject.cpp.obj
 0001:00011570       ?getLocation@DOMErrorImpl@xercesc_3_1@@UBEPAVDOMLocator@2@XZ 10012570 f   xerces-c_3_1:DOMErrorImpl.cpp.obj
 0001:00011570       ?getLiteral@StringOp@xercesc_3_1@@UBEPB_WXZ 10012570 f   xerces-c_3_1:Op.cpp.obj
 0001:00011570       ?getLocationHints@XMLSchemaDescriptionImpl@xercesc_3_1@@UBEPBV?$RefArrayVectorOf@_W@2@XZ 10012570 f   xerces-c_3_1:XMLSchemaDescriptionImpl.cpp.obj
 0001:00011570       ?getRoot@DOMTreeWalkerImpl@xercesc_3_1@@UAEPAVDOMNode@2@XZ 10012570 f   xerces-c_3_1:DOMTreeWalkerImpl.cpp.obj
 0001:00011570       ?getMemoryManager@?$ValueVectorOf@PAVComplexTypeInfo@xercesc_3_1@@@xercesc_3_1@@QBEPAVMemoryManager@2@XZ 10012570 f   xerces-c_3_1:SGXMLScanner.cpp.obj
 0001:00011570       ?getNextSibling@DOMProcessingInstructionImpl@xercesc_3_1@@UBEPAVDOMNode@2@XZ 10012570 f   xerces-c_3_1:DOMProcessingInstructionImpl.cpp.obj
 0001:00011570       ?getOwnerDocument@DOMEntityImpl@xercesc_3_1@@UBEPAVDOMDocument@2@XZ 10012570 f   xerces-c_3_1:DOMEntityImpl.cpp.obj
 0001:00011570       ?getString@StringToken@xercesc_3_1@@UBEPB_WXZ 10012570 f   xerces-c_3_1:StringToken.cpp.obj
 0001:00011570       ?getMemoryManager@?$ValueVectorOf@H@xercesc_3_1@@QBEPAVMemoryManager@2@XZ 10012570 f   xerces-c_3_1:XercesXPath.cpp.obj
 0001:00011570       ?getOwnerDocument@DOMDocumentTypeImpl@xercesc_3_1@@UBEPAVDOMDocument@2@XZ 10012570 f   xerces-c_3_1:DOMDocumentTypeImpl.cpp.obj
 0001:00011570       ?getMax@ClosureToken@xercesc_3_1@@UBEHXZ 10012570 f   xerces-c_3_1:ClosureToken.cpp.obj
 0001:00011570       ?getOwnerDocument@DOMEntityReferenceImpl@xercesc_3_1@@UBEPAVDOMDocument@2@XZ 10012570 f   xerces-c_3_1:DOMEntityReferenceImpl.cpp.obj
 0001:00011580       ??4DString@@QAEAAV0@ABV0@@Z 10012580 f   colorer_lib:DString.cpp.obj
 0001:00011640       ??0DString@@QAE@PBEHH@Z    10012640 f   colorer_lib:DString.cpp.obj
 0001:00011a90       ??_EDString@@UAEPAXI@Z     10012a90 f i * CIL library *:* CIL module *
 0001:00011a90       ??_GDString@@UAEPAXI@Z     10012a90 f i colorer_lib:DString.cpp.obj
 0001:00011ab0       ??0UnsupportedEncodingException@@QAE@ABV0@@Z 10012ab0 f i colorer_lib:DString.cpp.obj
 0001:00011ad0       ??0DString@@QAE@PBDHHH@Z   10012ad0 f   colorer_lib:DString.cpp.obj
 0001:00011bb0       ??0DString@@QAE@PB_WHH@Z   10012bb0 f   colorer_lib:DString.cpp.obj
 0001:00011c70       ??0DString@@QAE@PBVString@@HH@Z 10012c70 f   colorer_lib:DString.cpp.obj
 0001:00011c70       ??0DString@@QAE@ABVString@@HH@Z 10012c70 f   colorer_lib:DString.cpp.obj
 0001:00011d50       ??1DString@@UAE@XZ         10012d50 f   colorer_lib:DString.cpp.obj
 0001:00011dd0       ??ADString@@UBE_WH@Z       10012dd0 f   colorer_lib:DString.cpp.obj
 0001:00011f50       ?getBaseType@XSSimpleTypeDefinition@xercesc_3_1@@UAEPAVXSTypeDefinition@2@XZ 10012f50 f   xerces-c_3_1:XSSimpleTypeDefinition.cpp.obj
 0001:00011f50       ?length@DString@@UBEHXZ    10012f50 f   colorer_lib:DString.cpp.obj
 0001:00011f50       ?getNodeName@DOMProcessingInstructionImpl@xercesc_3_1@@UBEPB_WXZ 10012f50 f   xerces-c_3_1:DOMProcessingInstructionImpl.cpp.obj
 0001:00011f50       ?getAttributes@XMLSchemaDescriptionImpl@xercesc_3_1@@UBEPBVXMLAttDef@2@XZ 10012f50 f   xerces-c_3_1:XMLSchemaDescriptionImpl.cpp.obj
 0001:00011f50       ?getPublicId@XSDLocator@xercesc_3_1@@UBEPB_WXZ 10012f50 f   xerces-c_3_1:XSDDOMParser.cpp.obj
 0001:00011f50       ?getTarget@DOMProcessingInstructionImpl@xercesc_3_1@@UBEPB_WXZ 10012f50 f   xerces-c_3_1:DOMProcessingInstructionImpl.cpp.obj
 0001:00011f50       ?getBaseType@XSComplexTypeDefinition@xercesc_3_1@@UAEPAVXSTypeDefinition@2@XZ 10012f50 f   xerces-c_3_1:XSComplexTypeDefinition.cpp.obj
 0001:00011f50       ?getRawData@XMLAbstractDoubleFloat@xercesc_3_1@@UBEPA_WXZ 10012f50 f   xerces-c_3_1:XMLAbstractDoubleFloat.cpp.obj
 0001:00011f50       ?getSystemId@XMLEntityDecl@xercesc_3_1@@QBEPB_WXZ 10012f50 f   xerces-c_3_1:AbstractDOMParser.cpp.obj
 0001:00011f60       ??0StringIndexOutOfBoundsException@@QAE@ABVString@@@Z 10012f60 f   colorer_lib:String.cpp.obj
 0001:00012060       ??_EString@@UAEPAXI@Z      10013060 f i * CIL library *:* CIL module *
 0001:00012060       ??_GString@@UAEPAXI@Z      10013060 f i colorer_lib:String.cpp.obj
 0001:000120d0       ??1String@@UAE@XZ          100130d0 f   colorer_lib:String.cpp.obj
 0001:00012130       ??8String@@QBE_NABV0@@Z    10013130 f   colorer_lib:String.cpp.obj
 0001:000121a0       ?equals@String@@QBE_NPBD@Z 100131a0 f   colorer_lib:String.cpp.obj
 0001:000121a0       ??8String@@QBE_NPBD@Z      100131a0 f   colorer_lib:String.cpp.obj
 0001:00012240       ??9String@@QBE_NABV0@@Z    10013240 f   colorer_lib:String.cpp.obj
 0001:000122b0       ?equalsIgnoreCase@String@@QBE_NPBV1@@Z 100132b0 f   colorer_lib:String.cpp.obj
 0001:00012460       ?compareTo@String@@QBEHABV1@@Z 10013460 f   colorer_lib:String.cpp.obj
 0001:000124e0       ?compareToIgnoreCase@String@@QBEHABV1@@Z 100134e0 f   colorer_lib:String.cpp.obj
 0001:00012600       ?getWChars@String@@UBEHPAPA_W@Z 10013600 f   colorer_lib:String.cpp.obj
 0001:00012670       ?getBytes@String@@UBEHPAPAEH@Z 10013670 f   colorer_lib:String.cpp.obj
 0001:000127e0       ?getChars@String@@UBEPBDH@Z 100137e0 f   colorer_lib:String.cpp.obj
 0001:00012840       ?getWChars@String@@UBEPB_WXZ 10013840 f   colorer_lib:String.cpp.obj
 0001:00012920       ?indexOf@String@@UBEH_WH@Z 10013920 f   colorer_lib:String.cpp.obj
 0001:00012970       ?indexOf@String@@UBEHABV1@H@Z 10013970 f   colorer_lib:String.cpp.obj
 0001:00012a00       ?indexOfIgnoreCase@String@@UBEHABV1@H@Z 10013a00 f   colorer_lib:String.cpp.obj
 0001:00012b20       ?lastIndexOf@String@@UBEH_WH@Z 10013b20 f   colorer_lib:String.cpp.obj
 0001:00012b80       ?lastIndexOf@String@@UBEHABV1@H@Z 10013b80 f   colorer_lib:String.cpp.obj
 0001:00012c30       ?startsWith@String@@UBE_NABV1@H@Z 10013c30 f   colorer_lib:String.cpp.obj
 0001:00012cb0       ?replace@String@@QBEPAV1@ABV1@0@Z 10013cb0 f   colorer_lib:String.cpp.obj
 0001:00012e30       ??1ErrorHandler@colorer@@UAE@XZ 10013e30 f i colorer_lib:ParserFactory.cpp.obj
 0001:00012e40       ??_GDefaultErrorHandler@@UAEPAXI@Z 10013e40 f i colorer_lib:ParserFactory.cpp.obj
 0001:00012e40       ??_GErrorHandler@colorer@@UAEPAXI@Z 10013e40 f i colorer_lib:ParserFactory.cpp.obj
 0001:00012e40       ??_EErrorHandler@colorer@@UAEPAXI@Z 10013e40 f i * CIL library *:* CIL module *
 0001:00012e40       ??_EDefaultErrorHandler@@UAEPAXI@Z 10013e40 f i * CIL library *:* CIL module *
 0001:00012e70       ??_GXMLEntityResolver@xercesc_3_1@@UAEPAXI@Z 10013e70 f i colorer_lib:ParserFactory.cpp.obj
 0001:00012e70       ??_EBaseEntityResolver@@UAEPAXI@Z 10013e70 f i * CIL library *:* CIL module *
 0001:00012e70       ??_EXMLEntityResolver@xercesc_3_1@@UAEPAXI@Z 10013e70 f i * CIL library *:* CIL module *
 0001:00012e70       ??_GBaseEntityResolver@@UAEPAXI@Z 10013e70 f i colorer_lib:ParserFactory.cpp.obj
 0001:00012ea0       ??1BaseEntityResolver@@UAE@XZ 10013ea0 f i colorer_lib:ParserFactory.cpp.obj
 0001:00012eb0       ?loadCatalog@ParserFactory@@QAEXPBVString@@@Z 10013eb0 f   colorer_lib:ParserFactory.cpp.obj
 0001:00013170       ?parseCatalogBlock@ParserFactory@@AAEXPBVDOMElement@xercesc_3_1@@@Z 10014170 f   colorer_lib:ParserFactory.cpp.obj
 0001:000132b0       ?parseHrcSetsBlock@ParserFactory@@AAEXPBVDOMElement@xercesc_3_1@@@Z 100142b0 f   colorer_lib:ParserFactory.cpp.obj
 0001:000132e0       ?addHrcSetsLocation@ParserFactory@@AAEXPBVDOMElement@xercesc_3_1@@@Z 100142e0 f   colorer_lib:ParserFactory.cpp.obj
 0001:00013540       ?parseHrdSetsBlock@ParserFactory@@AAEXPBVDOMElement@xercesc_3_1@@@Z 10014540 f   colorer_lib:ParserFactory.cpp.obj
 0001:000135f0       ?parseHRDSetsChild@ParserFactory@@QAEXPBVDOMElement@xercesc_3_1@@@Z 100145f0 f   colorer_lib:ParserFactory.cpp.obj
 0001:000140f0       ?searchPath@ParserFactory@@AAEPAVString@@XZ 100150f0 f   colorer_lib:ParserFactory.cpp.obj
 0001:000142d0       ?searchPathWindows@ParserFactory@@AAEXPAV?$vector@PAVString@@V?$allocator@PAVString@@@std@@@std@@@Z 100152d0 f   colorer_lib:ParserFactory.cpp.obj
 0001:00014cf0       ??0ParserFactory@@QAE@PAVErrorHandler@colorer@@@Z 10015cf0 f   colorer_lib:ParserFactory.cpp.obj
 0001:00014e60       ??_EParserFactory@@UAEPAXI@Z 10015e60 f i * CIL library *:* CIL module *
 0001:00014e60       ??_GParserFactory@@UAEPAXI@Z 10015e60 f i colorer_lib:ParserFactory.cpp.obj
 0001:00014e80       ??1?$unordered_map@VSString@@HU?$hash@VSString@@@std@@U?$equal_to@VSString@@@3@V?$allocator@U?$pair@$$CBVSString@@H@std@@@3@@std@@QAE@XZ 10015e80 f i colorer_lib:HRCParserImpl.cpp.obj
 0001:00014e80       ??1?$unordered_map@VSString@@PAV?$unordered_map@VSString@@PAV?$vector@PBVString@@V?$allocator@PBVString@@@std@@@std@@U?$hash@VSString@@@3@U?$equal_to@VSString@@@3@V?$allocator@U?$pair@$$CBVSString@@PAV?$vector@PBVString@@V?$allocator@PBVString@@@std@@@std@@@std@@@3@@std@@U?$hash@VSString@@@3@U?$equal_to@VSString@@@3@V?$allocator@U?$pair@$$CBVSString@@PAV?$unordered_map@VSString@@PAV?$vector@PBVString@@V?$allocator@PBVString@@@std@@@std@@U?$hash@VSString@@@3@U?$equal_to@VSString@@@3@V?$allocator@U?$pair@$$CBVSString@@PAV?$vector@PBVString@@V?$allocator@PBVString@@@std@@@std@@@std@@@3@@std@@@std@@@3@@std@@QAE@XZ 10015e80 f i colorer_lib:ParserFactory.cpp.obj
 0001:00014e80       ??1?$unordered_map@VSString@@PBVString@@U?$hash@VSString@@@std@@U?$equal_to@VSString@@@4@V?$allocator@U?$pair@$$CBVSString@@PBVString@@@std@@@4@@std@@QAE@XZ 10015e80 f i colorer_lib:ParserFactory.cpp.obj
 0001:00014e80       ??1?$unordered_map@VSString@@PBVRegion@@U?$hash@VSString@@@std@@U?$equal_to@VSString@@@4@V?$allocator@U?$pair@$$CBVSString@@PBVRegion@@@std@@@4@@std@@QAE@XZ 10015e80 f i colorer_lib:HRCParserImpl.cpp.obj
 0001:00014e90       ??1?$_Hash@V?$_Umap_traits@VSString@@HV?$_Uhash_compare@VSString@@U?$hash@VSString@@@std@@U?$equal_to@VSString@@@3@@std@@V?$allocator@U?$pair@$$CBVSString@@H@std@@@3@$0A@@std@@@std@@QAE@XZ 10015e90 f i colorer_lib:HRCParserImpl.cpp.obj
 0001:00014e90       ??1?$_Hash@V?$_Umap_traits@VSString@@PBVRegion@@V?$_Uhash_compare@VSString@@U?$hash@VSString@@@std@@U?$equal_to@VSString@@@3@@std@@V?$allocator@U?$pair@$$CBVSString@@PBVRegion@@@std@@@4@$0A@@std@@@std@@QAE@XZ 10015e90 f i colorer_lib:HRCParserImpl.cpp.obj
 0001:00014e90       ??1?$_Hash@V?$_Umap_traits@VSString@@PBVString@@V?$_Uhash_compare@VSString@@U?$hash@VSString@@@std@@U?$equal_to@VSString@@@3@@std@@V?$allocator@U?$pair@$$CBVSString@@PBVString@@@std@@@4@$0A@@std@@@std@@QAE@XZ 10015e90 f i colorer_lib:ParserFactory.cpp.obj
 0001:00014e90       ??1?$_Hash@V?$_Umap_traits@VSString@@PAV?$vector@PBVString@@V?$allocator@PBVString@@@std@@@std@@V?$_Uhash_compare@VSString@@U?$hash@VSString@@@std@@U?$equal_to@VSString@@@3@@3@V?$allocator@U?$pair@$$CBVSString@@PAV?$vector@PBVString@@V?$allocator@PBVString@@@std@@@std@@@std@@@3@$0A@@std@@@std@@QAE@XZ 10015e90 f i colorer_lib:ParserFactory.cpp.obj
 0001:00014e90       ??1?$_Hash@V?$_Umap_traits@VSString@@PAV?$unordered_map@VSString@@PAV?$vector@PBVString@@V?$allocator@PBVString@@@std@@@std@@U?$hash@VSString@@@3@U?$equal_to@VSString@@@3@V?$allocator@U?$pair@$$CBVSString@@PAV?$vector@PBVString@@V?$allocator@PBVString@@@std@@@std@@@std@@@3@@std@@V?$_Uhash_compare@VSString@@U?$hash@VSString@@@std@@U?$equal_to@VSString@@@3@@3@V?$allocator@U?$pair@$$CBVSString@@PAV?$unordered_map@VSString@@PAV?$vector@PBVString@@V?$allocator@PBVString@@@std@@@std@@U?$hash@VSString@@@3@U?$equal_to@VSString@@@3@V?$allocator@U?$pair@$$CBVSString@@PAV?$vector@PBVString@@V?$allocator@PBVString@@@std@@@std@@@std@@@3@@std@@@std@@@3@$0A@@std@@@std@@QAE@XZ 10015e90 f i colorer_lib:ParserFactory.cpp.obj
 0001:00014fb0       ??1ParserFactory@@UAE@XZ   10015fb0 f   colorer_lib:ParserFactory.cpp.obj
 0001:000151e0       ?enumHRDInstances@ParserFactory@@QAE?AV?$vector@VSString@@V?$allocator@VSString@@@std@@@std@@ABVString@@@Z 100161e0 f   colorer_lib:ParserFactory.cpp.obj
 0001:000153a0       ?getHRDescription@ParserFactory@@QAEPBVString@@ABV2@0@Z 100163a0 f   colorer_lib:ParserFactory.cpp.obj
 0001:00015570       ?getHRCParser@ParserFactory@@QAEPAVHRCParser@@XZ 10016570 f   colorer_lib:ParserFactory.cpp.obj
 0001:00015ce0       ?loadPathWindows@ParserFactory@@AAEXPBVString@@0@Z 10016ce0 f   colorer_lib:ParserFactory.cpp.obj
 0001:00016120       ?createStyledMapper@ParserFactory@@QAEPAVStyledHRDMapper@@PBVString@@0@Z 10017120 f   colorer_lib:ParserFactory.cpp.obj
 0001:00016720       ??1?$list@U?$pair@$$CBVSString@@PAV?$unordered_map@VSString@@PAV?$vector@PBVString@@V?$allocator@PBVString@@@std@@@std@@U?$hash@VSString@@@3@U?$equal_to@VSString@@@3@V?$allocator@U?$pair@$$CBVSString@@PAV?$vector@PBVString@@V?$allocator@PBVString@@@std@@@std@@@std@@@3@@std@@@std@@V?$allocator@U?$pair@$$CBVSString@@PAV?$unordered_map@VSString@@PAV?$vector@PBVString@@V?$allocator@PBVString@@@std@@@std@@U?$hash@VSString@@@3@U?$equal_to@VSString@@@3@V?$allocator@U?$pair@$$CBVSString@@PAV?$vector@PBVString@@V?$allocator@PBVString@@@std@@@std@@@std@@@3@@std@@@std@@@2@@std@@QAE@XZ 10017720 f i colorer_lib:ParserFactory.cpp.obj
 0001:00016720       ??1?$list@U?$pair@$$CBVSString@@PBVString@@@std@@V?$allocator@U?$pair@$$CBVSString@@PBVString@@@std@@@2@@std@@QAE@XZ 10017720 f i colorer_lib:ParserFactory.cpp.obj
 0001:00016720       ??1?$list@U?$pair@$$CBVSString@@PAV?$vector@PBVString@@V?$allocator@PBVString@@@std@@@std@@@std@@V?$allocator@U?$pair@$$CBVSString@@PAV?$vector@PBVString@@V?$allocator@PBVString@@@std@@@std@@@std@@@2@@std@@QAE@XZ 10017720 f i colorer_lib:ParserFactory.cpp.obj
 0001:00016720       ??1?$list@U?$pair@$$CBVSString@@H@std@@V?$allocator@U?$pair@$$CBVSString@@H@std@@@2@@std@@QAE@XZ 10017720 f i colorer_lib:HRCParserImpl.cpp.obj
 0001:00016720       ??1?$list@U?$pair@$$CBVSString@@PBVRegion@@@std@@V?$allocator@U?$pair@$$CBVSString@@PBVRegion@@@std@@@2@@std@@QAE@XZ 10017720 f i colorer_lib:HRCParserImpl.cpp.obj
 0001:000167f0       ?_Reallocate_exactly@?$vector@VSString@@V?$allocator@VSString@@@std@@@std@@AAEXI@Z 100177f0 f i colorer_lib:ParserFactory.cpp.obj
 0001:00016890       ?_Hashval@?$_Hash@V?$_Umap_traits@VSString@@PAVSchemeImpl@@V?$_Uhash_compare@VSString@@U?$hash@VSString@@@std@@U?$equal_to@VSString@@@3@@std@@V?$allocator@U?$pair@$$CBVSString@@PAVSchemeImpl@@@std@@@4@$0A@@std@@@std@@IBEIABVSString@@@Z 10017890 f i colorer_lib:HRCParserImpl.cpp.obj
 0001:00016890       ?_Hashval@?$_Hash@V?$_Umap_traits@VSString@@PBVRegion@@V?$_Uhash_compare@VSString@@U?$hash@VSString@@@std@@U?$equal_to@VSString@@@3@@std@@V?$allocator@U?$pair@$$CBVSString@@PBVRegion@@@std@@@4@$0A@@std@@@std@@IBEIABVSString@@@Z 10017890 f i colorer_lib:HRCParserImpl.cpp.obj
 0001:00016890       ?_Hashval@?$_Hash@V?$_Umap_traits@VSString@@PAVString@@V?$_Uhash_compare@VSString@@U?$hash@VSString@@@std@@U?$equal_to@VSString@@@3@@std@@V?$allocator@U?$pair@$$CBVSString@@PAVString@@@std@@@4@$0A@@std@@@std@@IBEIABVSString@@@Z 10017890 f i colorer_lib:HRCParserImpl.cpp.obj
 0001:00016890       ?_Hashval@?$_Hash@V?$_Umap_traits@VSString@@PAVSharedInputSource@@V?$_Uhash_compare@VSString@@U?$hash@VSString@@@std@@U?$equal_to@VSString@@@3@@std@@V?$allocator@U?$pair@$$CBVSString@@PAVSharedInputSource@@@std@@@4@$0A@@std@@@std@@IBEIABVSString@@@Z 10017890 f i colorer_lib:SharedInputSource.cpp.obj
 0001:00016890       ?_Hashval@?$_Hash@V?$_Umap_traits@VSString@@PAV?$vector@PBVString@@V?$allocator@PBVString@@@std@@@std@@V?$_Uhash_compare@VSString@@U?$hash@VSString@@@std@@U?$equal_to@VSString@@@3@@3@V?$allocator@U?$pair@$$CBVSString@@PAV?$vector@PBVString@@V?$allocator@PBVString@@@std@@@std@@@std@@@3@$0A@@std@@@std@@IBEIABVSString@@@Z 10017890 f i colorer_lib:ParserFactory.cpp.obj
 0001:00016890       ?_Hashval@?$_Hash@V?$_Umap_traits@VSString@@PAV?$unordered_map@VSString@@PAV?$vector@PBVString@@V?$allocator@PBVString@@@std@@@std@@U?$hash@VSString@@@3@U?$equal_to@VSString@@@3@V?$allocator@U?$pair@$$CBVSString@@PAV?$vector@PBVString@@V?$allocator@PBVString@@@std@@@std@@@std@@@3@@std@@V?$_Uhash_compare@VSString@@U?$hash@VSString@@@std@@U?$equal_to@VSString@@@3@@3@V?$allocator@U?$pair@$$CBVSString@@PAV?$unordered_map@VSString@@PAV?$vector@PBVString@@V?$allocator@PBVString@@@std@@@std@@U?$hash@VSString@@@3@U?$equal_to@VSString@@@3@V?$allocator@U?$pair@$$CBVSString@@PAV?$vector@PBVString@@V?$allocator@PBVString@@@std@@@std@@@std@@@3@@std@@@std@@@3@$0A@@std@@@std@@IBEIABVSString@@@Z 10017890 f i colorer_lib:ParserFactory.cpp.obj
 0001:00016890       ?_Hashval@?$_Hash@V?$_Umap_traits@VSString@@PAVTypeParameter@@V?$_Uhash_compare@VSString@@U?$hash@VSString@@@std@@U?$equal_to@VSString@@@3@@std@@V?$allocator@U?$pair@$$CBVSString@@PAVTypeParameter@@@std@@@4@$0A@@std@@@std@@IBEIABVSString@@@Z 10017890 f i colorer_lib:FileTypeImpl.cpp.obj
 0001:00016890       ?_Hashval@?$_Hash@V?$_Umap_traits@VSString@@PAVRegionDefine@@V?$_Uhash_compare@VSString@@U?$hash@VSString@@@std@@U?$equal_to@VSString@@@3@@std@@V?$allocator@U?$pair@$$CBVSString@@PAVRegionDefine@@@std@@@4@$0A@@std@@@std@@IBEIABVSString@@@Z 10017890 f i colorer_lib:StyledHRDMapper.cpp.obj
 0001:00016890       ?_Hashval@?$_Hash@V?$_Umap_traits@VSString@@PBVString@@V?$_Uhash_compare@VSString@@U?$hash@VSString@@@std@@U?$equal_to@VSString@@@3@@std@@V?$allocator@U?$pair@$$CBVSString@@PBVString@@@std@@@4@$0A@@std@@@std@@IBEIABVSString@@@Z 10017890 f i colorer_lib:ParserFactory.cpp.obj
 0001:00016890       ?_Hashval@?$_Hash@V?$_Umap_traits@VSString@@PAVSharedXmlInputSource@@V?$_Uhash_compare@VSString@@U?$hash@VSString@@@std@@U?$equal_to@VSString@@@3@@std@@V?$allocator@U?$pair@$$CBVSString@@PAVSharedXmlInputSource@@@std@@@4@$0A@@std@@@std@@IBEIABVSString@@@Z 10017890 f i colorer_lib:ZipXmlInputSource.cpp.obj
 0001:00016890       ?_Hashval@?$_Hash@V?$_Umap_traits@VSString@@PAVFileTypeImpl@@V?$_Uhash_compare@VSString@@U?$hash@VSString@@@std@@U?$equal_to@VSString@@@3@@std@@V?$allocator@U?$pair@$$CBVSString@@PAVFileTypeImpl@@@std@@@4@$0A@@std@@@std@@IBEIABVSString@@@Z 10017890 f i colorer_lib:HRCParserImpl.cpp.obj
 0001:000168e0       ?_Change_array@?$vector@VSString@@V?$allocator@VSString@@@std@@@std@@AAEXQAVSString@@II@Z 100178e0 f i colorer_lib:ParserFactory.cpp.obj
 0001:00016970       ?_Umove_if_noexcept@?$vector@VSString@@V?$allocator@VSString@@@std@@@std@@AAEXPAVSString@@00@Z 10017970 f i colorer_lib:ParserFactory.cpp.obj
 0001:00016a00       ?_Freenode@?$_List_buy@U?$pair@$$CBVSString@@PAVRegionDefine@@@std@@V?$allocator@U?$pair@$$CBVSString@@PAVRegionDefine@@@std@@@2@@std@@QAEXPAU?$_List_node@U?$pair@$$CBVSString@@PAVRegionDefine@@@std@@PAX@2@@Z 10017a00 f i colorer_lib:StyledHRDMapper.cpp.obj
 0001:00016a00       ?_Freenode@?$_List_buy@U?$pair@$$CBVSString@@PAVFileTypeImpl@@@std@@V?$allocator@U?$pair@$$CBVSString@@PAVFileTypeImpl@@@std@@@2@@std@@QAEXPAU?$_List_node@U?$pair@$$CBVSString@@PAVFileTypeImpl@@@std@@PAX@2@@Z 10017a00 f i colorer_lib:HRCParserImpl.cpp.obj
 0001:00016a00       ?_Freenode@?$_List_buy@U?$pair@$$CBVSString@@PAVTypeParameter@@@std@@V?$allocator@U?$pair@$$CBVSString@@PAVTypeParameter@@@std@@@2@@std@@QAEXPAU?$_List_node@U?$pair@$$CBVSString@@PAVTypeParameter@@@std@@PAX@2@@Z 10017a00 f i colorer_lib:FileTypeImpl.cpp.obj
 0001:00016a00       ?_Freenode@?$_List_buy@U?$pair@$$CBVSString@@PAVSharedXmlInputSource@@@std@@V?$allocator@U?$pair@$$CBVSString@@PAVSharedXmlInputSource@@@std@@@2@@std@@QAEXPAU?$_List_node@U?$pair@$$CBVSString@@PAVSharedXmlInputSource@@@std@@PAX@2@@Z 10017a00 f i colorer_lib:SharedXmlInputSource.cpp.obj
 0001:00016a00       ?_Freenode@?$_List_buy@U?$pair@$$CBVSString@@PAV?$unordered_map@VSString@@PAV?$vector@PBVString@@V?$allocator@PBVString@@@std@@@std@@U?$hash@VSString@@@3@U?$equal_to@VSString@@@3@V?$allocator@U?$pair@$$CBVSString@@PAV?$vector@PBVString@@V?$allocator@PBVString@@@std@@@std@@@std@@@3@@std@@@std@@V?$allocator@U?$pair@$$CBVSString@@PAV?$unordered_map@VSString@@PAV?$vector@PBVString@@V?$allocator@PBVString@@@std@@@std@@U?$hash@VSString@@@3@U?$equal_to@VSString@@@3@V?$allocator@U?$pair@$$CBVSString@@PAV?$vector@PBVString@@V?$allocator@PBVString@@@std@@@std@@@std@@@3@@std@@@std@@@2@@std@@QAEXPAU?$_List_node@U?$pair@$$CBVSString@@PAV?$unordered_map@VSString@@PAV?$vector@PBVString@@V?$allocator@PBVString@@@std@@@std@@U?$hash@VSString@@@3@U?$equal_to@VSString@@@3@V?$allocator@U?$pair@$$CBVSString@@PAV?$vector@PBVString@@V?$allocator@PBVString@@@std@@@std@@@std@@@3@@std@@@std@@PAX@2@@Z 10017a00 f i colorer_lib:ParserFactory.cpp.obj
 0001:00016a00       ?_Freenode@?$_List_buy@U?$pair@$$CBVSString@@PBVRegion@@@std@@V?$allocator@U?$pair@$$CBVSString@@PBVRegion@@@std@@@2@@std@@QAEXPAU?$_List_node@U?$pair@$$CBVSString@@PBVRegion@@@std@@PAX@2@@Z 10017a00 f i colorer_lib:HRCParserImpl.cpp.obj
 0001:00016a00       ?_Freenode@?$_List_buy@U?$pair@$$CBVSString@@PAVString@@@std@@V?$allocator@U?$pair@$$CBVSString@@PAVString@@@std@@@2@@std@@QAEXPAU?$_List_node@U?$pair@$$CBVSString@@PAVString@@@std@@PAX@2@@Z 10017a00 f i colorer_lib:HRCParserImpl.cpp.obj
 0001:00016a00       ?_Freenode@?$_List_buy@U?$pair@$$CBVSString@@PAV?$vector@PBVString@@V?$allocator@PBVString@@@std@@@std@@@std@@V?$allocator@U?$pair@$$CBVSString@@PAV?$vector@PBVString@@V?$allocator@PBVString@@@std@@@std@@@std@@@2@@std@@QAEXPAU?$_List_node@U?$pair@$$CBVSString@@PAV?$vector@PBVString@@V?$allocator@PBVString@@@std@@@std@@@std@@PAX@2@@Z 10017a00 f i colorer_lib:ParserFactory.cpp.obj
 0001:00016a00       ?_Freenode@?$_List_buy@U?$pair@$$CBVSString@@PAVSharedInputSource@@@std@@V?$allocator@U?$pair@$$CBVSString@@PAVSharedInputSource@@@std@@@2@@std@@QAEXPAU?$_List_node@U?$pair@$$CBVSString@@PAVSharedInputSource@@@std@@PAX@2@@Z 10017a00 f i colorer_lib:SharedInputSource.cpp.obj
 0001:00016a00       ?_Freenode@?$_List_buy@U?$pair@$$CBVSString@@PBVString@@@std@@V?$allocator@U?$pair@$$CBVSString@@PBVString@@@std@@@2@@std@@QAEXPAU?$_List_node@U?$pair@$$CBVSString@@PBVString@@@std@@PAX@2@@Z 10017a00 f i colorer_lib:ParserFactory.cpp.obj
 0001:00016a00       ?_Freenode@?$_List_buy@U?$pair@$$CBVSString@@PAVSchemeImpl@@@std@@V?$allocator@U?$pair@$$CBVSString@@PAVSchemeImpl@@@std@@@2@@std@@QAEXPAU?$_List_node@U?$pair@$$CBVSString@@PAVSchemeImpl@@@std@@PAX@2@@Z 10017a00 f i colorer_lib:HRCParserImpl.cpp.obj
 0001:00016a90       ??$_Emplace_reallocate@PAVOutlineItem@@@?$vector@PAVOutlineItem@@V?$allocator@PAVOutlineItem@@@std@@@std@@QAEPAPAVOutlineItem@@QAPAV2@$$QAPAV2@@Z 10017a90 f i colorer_lib:Outliner.cpp.obj
 0001:00016a90       ??$_Emplace_reallocate@PAVLineRegion@@@?$vector@PAVLineRegion@@V?$allocator@PAVLineRegion@@@std@@@std@@QAEPAPAVLineRegion@@QAPAV2@$$QAPAV2@@Z 10017a90 f i colorer_lib:LineRegionsSupport.cpp.obj
 0001:00016a90       ??$_Emplace_reallocate@PAVVirtualEntry@@@?$vector@PAVVirtualEntry@@V?$allocator@PAVVirtualEntry@@@std@@@std@@QAEPAPAVVirtualEntry@@QAPAV2@$$QAPAV2@@Z 10017a90 f i colorer_lib:HRCParserImpl.cpp.obj
 0001:00016a90       ??$_Emplace_reallocate@ABQBVRegion@@@?$vector@PBVRegion@@V?$allocator@PBVRegion@@@std@@@std@@QAEPAPBVRegion@@QAPBV2@ABQBV2@@Z 10017a90 f i colorer_lib:HRCParserImpl.cpp.obj
 0001:00016a90       ??$_Emplace_reallocate@PAVString@@@?$vector@PAVString@@V?$allocator@PAVString@@@std@@@std@@QAEPAPAVString@@QAPAV2@$$QAPAV2@@Z 10017a90 f i colorer_lib:ParserFactory.cpp.obj
 0001:00016a90       ??$_Emplace_reallocate@ABQAVFileTypeImpl@@@?$vector@PAVFileTypeImpl@@V?$allocator@PAVFileTypeImpl@@@std@@@std@@QAEPAPAVFileTypeImpl@@QAPAV2@ABQAV2@@Z 10017a90 f i colorer_lib:HRCParserImpl.cpp.obj
 0001:00016a90       ??$_Emplace_reallocate@ABQAVLineRegion@@@?$vector@PAVLineRegion@@V?$allocator@PAVLineRegion@@@std@@@std@@QAEPAPAVLineRegion@@QAPAV2@ABQAV2@@Z 10017a90 f i colorer_lib:LineRegionsSupport.cpp.obj
 0001:00016b80       ??$_Emplace_reallocate@ABVSString@@@?$vector@VSString@@V?$allocator@VSString@@@std@@@std@@QAEPAVSString@@QAV2@ABV2@@Z 10017b80 f i colorer_lib:ParserFactory.cpp.obj
 0001:00016d20       ?_Change_array@?$vector@PAVString@@V?$allocator@PAVString@@@std@@@std@@AAEXQAPAVString@@II@Z 10017d20 f i colorer_lib:ParserFactory.cpp.obj
 0001:00016d20       ?_Change_array@?$vector@PBVRegionDefine@@V?$allocator@PBVRegionDefine@@@std@@@std@@AAEXQAPBVRegionDefine@@II@Z 10017d20 f i colorer_lib:RegionMapperImpl.cpp.obj
 0001:00016d20       ?_Change_array@?$vector@PAVVirtualEntry@@V?$allocator@PAVVirtualEntry@@@std@@@std@@AAEXQAPAVVirtualEntry@@II@Z 10017d20 f i colorer_lib:HRCParserImpl.cpp.obj
 0001:00016d20       ?_Change_array@?$vector@PAVOutlineItem@@V?$allocator@PAVOutlineItem@@@std@@@std@@AAEXQAPAVOutlineItem@@II@Z 10017d20 f i colorer_lib:Outliner.cpp.obj
 0001:00016d20       ?_Change_array@?$vector@PBVRegion@@V?$allocator@PBVRegion@@@std@@@std@@AAEXQAPBVRegion@@II@Z 10017d20 f i colorer_lib:HRCParserImpl.cpp.obj
 0001:00016d20       ?_Change_array@?$vector@PAVLineRegion@@V?$allocator@PAVLineRegion@@@std@@@std@@AAEXQAPAVLineRegion@@II@Z 10017d20 f i colorer_lib:LineRegionsSupport.cpp.obj
 0001:00016d20       ?_Change_array@?$vector@PAVFileTypeImpl@@V?$allocator@PAVFileTypeImpl@@@std@@@std@@AAEXQAPAVFileTypeImpl@@II@Z 10017d20 f i colorer_lib:HRCParserImpl.cpp.obj
 0001:00016d80       ?_Umove@?$vector@VSString@@V?$allocator@VSString@@@std@@@std@@AAEPAVSString@@PAV3@00@Z 10017d80 f i colorer_lib:ParserFactory.cpp.obj
 0001:00016e10       ??$_Insert@AAU?$pair@$$CBVSString@@PAV?$vector@PBVString@@V?$allocator@PBVString@@@std@@@std@@@std@@V?$_List_unchecked_iterator@V?$_List_val@U?$_List_simple_types@U?$pair@$$CBVSString@@PAV?$vector@PBVString@@V?$allocator@PBVString@@@std@@@std@@@std@@@std@@@std@@@2@@?$_Hash@V?$_Umap_traits@VSString@@PAV?$vector@PBVString@@V?$allocator@PBVString@@@std@@@std@@V?$_Uhash_compare@VSString@@U?$hash@VSString@@@std@@U?$equal_to@VSString@@@3@@3@V?$allocator@U?$pair@$$CBVSString@@PAV?$vector@PBVString@@V?$allocator@PBVString@@@std@@@std@@@std@@@3@$0A@@std@@@std@@IAE?AU?$pair@V?$_List_iterator@V?$_List_val@U?$_List_simple_types@U?$pair@$$CBVSString@@PAV?$vector@PBVString@@V?$allocator@PBVString@@@std@@@std@@@std@@@std@@@std@@@std@@_N@1@AAU?$pair@$$CBVSString@@PAV?$vector@PBVString@@V?$allocator@PBVString@@@std@@@std@@@1@V?$_List_unchecked_iterator@V?$_List_val@U?$_List_simple_types@U?$pair@$$CBVSString@@PAV?$vector@PBVString@@V?$allocator@PBVString@@@std@@@std@@@std@@@std@@@std@@@1@@Z 10017e10 f i colorer_lib:ParserFactory.cpp.obj
 0001:00016e10       ??$_Insert@AAU?$pair@$$CBVSString@@PAVString@@@std@@V?$_List_unchecked_iterator@V?$_List_val@U?$_List_simple_types@U?$pair@$$CBVSString@@PAVString@@@std@@@std@@@std@@@2@@?$_Hash@V?$_Umap_traits@VSString@@PAVString@@V?$_Uhash_compare@VSString@@U?$hash@VSString@@@std@@U?$equal_to@VSString@@@3@@std@@V?$allocator@U?$pair@$$CBVSString@@PAVString@@@std@@@4@$0A@@std@@@std@@IAE?AU?$pair@V?$_List_iterator@V?$_List_val@U?$_List_simple_types@U?$pair@$$CBVSString@@PAVString@@@std@@@std@@@std@@@std@@_N@1@AAU?$pair@$$CBVSString@@PAVString@@@1@V?$_List_unchecked_iterator@V?$_List_val@U?$_List_simple_types@U?$pair@$$CBVSString@@PAVString@@@std@@@std@@@std@@@1@@Z 10017e10 f i colorer_lib:HRCParserImpl.cpp.obj
 0001:00016e10       ??$_Insert@AAU?$pair@$$CBVSString@@PAV?$unordered_map@VSString@@PAV?$vector@PBVString@@V?$allocator@PBVString@@@std@@@std@@U?$hash@VSString@@@3@U?$equal_to@VSString@@@3@V?$allocator@U?$pair@$$CBVSString@@PAV?$vector@PBVString@@V?$allocator@PBVString@@@std@@@std@@@std@@@3@@std@@@std@@V?$_List_unchecked_iterator@V?$_List_val@U?$_List_simple_types@U?$pair@$$CBVSString@@PAV?$unordered_map@VSString@@PAV?$vector@PBVString@@V?$allocator@PBVString@@@std@@@std@@U?$hash@VSString@@@3@U?$equal_to@VSString@@@3@V?$allocator@U?$pair@$$CBVSString@@PAV?$vector@PBVString@@V?$allocator@PBVString@@@std@@@std@@@std@@@3@@std@@@std@@@std@@@std@@@2@@?$_Hash@V?$_Umap_traits@VSString@@PAV?$unordered_map@VSString@@PAV?$vector@PBVString@@V?$allocator@PBVString@@@std@@@std@@U?$hash@VSString@@@3@U?$equal_to@VSString@@@3@V?$allocator@U?$pair@$$CBVSString@@PAV?$vector@PBVString@@V?$allocator@PBVString@@@std@@@std@@@std@@@3@@std@@V?$_Uhash_compare@VSString@@U?$hash@VSString@@@std@@U?$equal_to@VSString@@@3@@3@V?$allocator@U?$pair@$$CBVSString@@PAV?$unordered_map@VSString@@PAV?$vector@PBVString@@V?$allocator@PBVString@@@std@@@std@@U?$hash@VSString@@@3@U?$equal_to@VSString@@@3@V?$allocator@U?$pair@$$CBVSString@@PAV?$vector@PBVString@@V?$allocator@PBVString@@@std@@@std@@@std@@@3@@std@@@std@@@3@$0A@@std@@@std@@IAE?AU?$pair@V?$_List_iterator@V?$_List_val@U?$_List_simple_types@U?$pair@$$CBVSString@@PAV?$unordered_map@VSString@@PAV?$vector@PBVString@@V?$allocator@PBVString@@@std@@@std@@U?$hash@VSString@@@3@U?$equal_to@VSString@@@3@V?$allocator@U?$pair@$$CBVSString@@PAV?$vector@PBVString@@V?$allocator@PBVString@@@std@@@std@@@std@@@3@@std@@@std@@@std@@@std@@@std@@_N@1@AAU?$pair@$$CBVSString@@PAV?$unordered_map@VSString@@PAV?$vector@PBVString@@V?$allocator@PBVString@@@std@@@std@@U?$hash@VSString@@@3@U?$equal_to@VSString@@@3@V?$allocator@U?$pair@$$CBVSString@@PAV?$vector@PBVString@@V?$allocator@PBVString@@@std@@@std@@@std@@@3@@std@@@1@V?$_List_unchecked_iterator@V?$_List_val@U?$_List_simple_types@U?$pair@$$CBVSString@@PAV?$unordered_map@VSString@@PAV?$vector@PBVString@@V?$allocator@PBVString@@@std@@@std@@U?$hash@VSString@@@3@U?$equal_to@VSString@@@3@V?$allocator@U?$pair@$$CBVSString@@PAV?$vector@PBVString@@V?$allocator@PBVString@@@std@@@std@@@std@@@3@@std@@@std@@@std@@@std@@@1@@Z 10017e10 f i colorer_lib:ParserFactory.cpp.obj
 0001:00016e10       ??$_Insert@AAU?$pair@$$CBVSString@@PAVRegionDefine@@@std@@V?$_List_unchecked_iterator@V?$_List_val@U?$_List_simple_types@U?$pair@$$CBVSString@@PAVRegionDefine@@@std@@@std@@@std@@@2@@?$_Hash@V?$_Umap_traits@VSString@@PAVRegionDefine@@V?$_Uhash_compare@VSString@@U?$hash@VSString@@@std@@U?$equal_to@VSString@@@3@@std@@V?$allocator@U?$pair@$$CBVSString@@PAVRegionDefine@@@std@@@4@$0A@@std@@@std@@IAE?AU?$pair@V?$_List_iterator@V?$_List_val@U?$_List_simple_types@U?$pair@$$CBVSString@@PAVRegionDefine@@@std@@@std@@@std@@@std@@_N@1@AAU?$pair@$$CBVSString@@PAVRegionDefine@@@1@V?$_List_unchecked_iterator@V?$_List_val@U?$_List_simple_types@U?$pair@$$CBVSString@@PAVRegionDefine@@@std@@@std@@@std@@@1@@Z 10017e10 f i colorer_lib:StyledHRDMapper.cpp.obj
 0001:00016e10       ??$_Insert@AAU?$pair@$$CBVSString@@PBVString@@@std@@V?$_List_unchecked_iterator@V?$_List_val@U?$_List_simple_types@U?$pair@$$CBVSString@@PBVString@@@std@@@std@@@std@@@2@@?$_Hash@V?$_Umap_traits@VSString@@PBVString@@V?$_Uhash_compare@VSString@@U?$hash@VSString@@@std@@U?$equal_to@VSString@@@3@@std@@V?$allocator@U?$pair@$$CBVSString@@PBVString@@@std@@@4@$0A@@std@@@std@@IAE?AU?$pair@V?$_List_iterator@V?$_List_val@U?$_List_simple_types@U?$pair@$$CBVSString@@PBVString@@@std@@@std@@@std@@@std@@_N@1@AAU?$pair@$$CBVSString@@PBVString@@@1@V?$_List_unchecked_iterator@V?$_List_val@U?$_List_simple_types@U?$pair@$$CBVSString@@PBVString@@@std@@@std@@@std@@@1@@Z 10017e10 f i colorer_lib:ParserFactory.cpp.obj
 0001:00017010       ??1?$_Uninitialized_backout_al@PAVSString@@V?$allocator@VSString@@@std@@@std@@QAE@XZ 10018010 f i colorer_lib:ParserFactory.cpp.obj
 0001:00017040       ?_Destroy_if_node@?$_Hash@V?$_Umap_traits@VSString@@PAVSchemeImpl@@V?$_Uhash_compare@VSString@@U?$hash@VSString@@@std@@U?$equal_to@VSString@@@3@@std@@V?$allocator@U?$pair@$$CBVSString@@PAVSchemeImpl@@@std@@@4@$0A@@std@@@std@@IAEXV?$_List_unchecked_iterator@V?$_List_val@U?$_List_simple_types@U?$pair@$$CBVSString@@PAVSchemeImpl@@@std@@@std@@@std@@@2@@Z 10018040 f i colorer_lib:HRCParserImpl.cpp.obj
 0001:00017040       ?_Destroy_if_node@?$_Hash@V?$_Umap_traits@VSString@@PBVString@@V?$_Uhash_compare@VSString@@U?$hash@VSString@@@std@@U?$equal_to@VSString@@@3@@std@@V?$allocator@U?$pair@$$CBVSString@@PBVString@@@std@@@4@$0A@@std@@@std@@IAEXV?$_List_unchecked_iterator@V?$_List_val@U?$_List_simple_types@U?$pair@$$CBVSString@@PBVString@@@std@@@std@@@std@@@2@@Z 10018040 f i colorer_lib:ParserFactory.cpp.obj
 0001:00017040       ?_Destroy_if_node@?$_Hash@V?$_Umap_traits@VSString@@PAVSharedXmlInputSource@@V?$_Uhash_compare@VSString@@U?$hash@VSString@@@std@@U?$equal_to@VSString@@@3@@std@@V?$allocator@U?$pair@$$CBVSString@@PAVSharedXmlInputSource@@@std@@@4@$0A@@std@@@std@@IAEXV?$_List_unchecked_iterator@V?$_List_val@U?$_List_simple_types@U?$pair@$$CBVSString@@PAVSharedXmlInputSource@@@std@@@std@@@std@@@2@@Z 10018040 f i colorer_lib:SharedXmlInputSource.cpp.obj
 0001:00017040       ?_Destroy_if_node@?$_Hash@V?$_Umap_traits@VSString@@PAV?$unordered_map@VSString@@PAV?$vector@PBVString@@V?$allocator@PBVString@@@std@@@std@@U?$hash@VSString@@@3@U?$equal_to@VSString@@@3@V?$allocator@U?$pair@$$CBVSString@@PAV?$vector@PBVString@@V?$allocator@PBVString@@@std@@@std@@@std@@@3@@std@@V?$_Uhash_compare@VSString@@U?$hash@VSString@@@std@@U?$equal_to@VSString@@@3@@3@V?$allocator@U?$pair@$$CBVSString@@PAV?$unordered_map@VSString@@PAV?$vector@PBVString@@V?$allocator@PBVString@@@std@@@std@@U?$hash@VSString@@@3@U?$equal_to@VSString@@@3@V?$allocator@U?$pair@$$CBVSString@@PAV?$vector@PBVString@@V?$allocator@PBVString@@@std@@@std@@@std@@@3@@std@@@std@@@3@$0A@@std@@@std@@IAEXV?$_List_unchecked_iterator@V?$_List_val@U?$_List_simple_types@U?$pair@$$CBVSString@@PAV?$unordered_map@VSString@@PAV?$vector@PBVString@@V?$allocator@PBVString@@@std@@@std@@U?$hash@VSString@@@3@U?$equal_to@VSString@@@3@V?$allocator@U?$pair@$$CBVSString@@PAV?$vector@PBVString@@V?$allocator@PBVString@@@std@@@std@@@std@@@3@@std@@@std@@@std@@@std@@@2@@Z 10018040 f i colorer_lib:ParserFactory.cpp.obj
 0001:00017040       ?_Destroy_if_node@?$_Hash@V?$_Umap_traits@VSString@@PAVString@@V?$_Uhash_compare@VSString@@U?$hash@VSString@@@std@@U?$equal_to@VSString@@@3@@std@@V?$allocator@U?$pair@$$CBVSString@@PAVString@@@std@@@4@$0A@@std@@@std@@IAEXV?$_List_unchecked_iterator@V?$_List_val@U?$_List_simple_types@U?$pair@$$CBVSString@@PAVString@@@std@@@std@@@std@@@2@@Z 10018040 f i colorer_lib:HRCParserImpl.cpp.obj
 0001:00017040       ?_Destroy_if_node@?$_Hash@V?$_Umap_traits@VSString@@PAVTypeParameter@@V?$_Uhash_compare@VSString@@U?$hash@VSString@@@std@@U?$equal_to@VSString@@@3@@std@@V?$allocator@U?$pair@$$CBVSString@@PAVTypeParameter@@@std@@@4@$0A@@std@@@std@@IAEXV?$_List_unchecked_iterator@V?$_List_val@U?$_List_simple_types@U?$pair@$$CBVSString@@PAVTypeParameter@@@std@@@std@@@std@@@2@@Z 10018040 f i colorer_lib:FileTypeImpl.cpp.obj
 0001:00017040       ?_Destroy_if_node@?$_Hash@V?$_Umap_traits@VSString@@PBVRegion@@V?$_Uhash_compare@VSString@@U?$hash@VSString@@@std@@U?$equal_to@VSString@@@3@@std@@V?$allocator@U?$pair@$$CBVSString@@PBVRegion@@@std@@@4@$0A@@std@@@std@@IAEXV?$_List_unchecked_iterator@V?$_List_val@U?$_List_simple_types@U?$pair@$$CBVSString@@PBVRegion@@@std@@@std@@@std@@@2@@Z 10018040 f i colorer_lib:HRCParserImpl.cpp.obj
 0001:00017040       ?_Destroy_if_node@?$_Hash@V?$_Umap_traits@VSString@@PAVSharedInputSource@@V?$_Uhash_compare@VSString@@U?$hash@VSString@@@std@@U?$equal_to@VSString@@@3@@std@@V?$allocator@U?$pair@$$CBVSString@@PAVSharedInputSource@@@std@@@4@$0A@@std@@@std@@IAEXV?$_List_unchecked_iterator@V?$_List_val@U?$_List_simple_types@U?$pair@$$CBVSString@@PAVSharedInputSource@@@std@@@std@@@std@@@2@@Z 10018040 f i colorer_lib:SharedInputSource.cpp.obj
 0001:00017040       ?_Destroy_if_node@?$_Hash@V?$_Umap_traits@VSString@@PAV?$vector@PBVString@@V?$allocator@PBVString@@@std@@@std@@V?$_Uhash_compare@VSString@@U?$hash@VSString@@@std@@U?$equal_to@VSString@@@3@@3@V?$allocator@U?$pair@$$CBVSString@@PAV?$vector@PBVString@@V?$allocator@PBVString@@@std@@@std@@@std@@@3@$0A@@std@@@std@@IAEXV?$_List_unchecked_iterator@V?$_List_val@U?$_List_simple_types@U?$pair@$$CBVSString@@PAV?$vector@PBVString@@V?$allocator@PBVString@@@std@@@std@@@std@@@std@@@std@@@2@@Z 10018040 f i colorer_lib:ParserFactory.cpp.obj
 0001:00017040       ?_Destroy_if_node@?$_Hash@V?$_Umap_traits@VSString@@PAVRegionDefine@@V?$_Uhash_compare@VSString@@U?$hash@VSString@@@std@@U?$equal_to@VSString@@@3@@std@@V?$allocator@U?$pair@$$CBVSString@@PAVRegionDefine@@@std@@@4@$0A@@std@@@std@@IAEXV?$_List_unchecked_iterator@V?$_List_val@U?$_List_simple_types@U?$pair@$$CBVSString@@PAVRegionDefine@@@std@@@std@@@std@@@2@@Z 10018040 f i colorer_lib:StyledHRDMapper.cpp.obj
 0001:00017040       ?_Destroy_if_node@?$_Hash@V?$_Umap_traits@VSString@@PAVFileTypeImpl@@V?$_Uhash_compare@VSString@@U?$hash@VSString@@@std@@U?$equal_to@VSString@@@3@@std@@V?$allocator@U?$pair@$$CBVSString@@PAVFileTypeImpl@@@std@@@4@$0A@@std@@@std@@IAEXV?$_List_unchecked_iterator@V?$_List_val@U?$_List_simple_types@U?$pair@$$CBVSString@@PAVFileTypeImpl@@@std@@@std@@@std@@@2@@Z 10018040 f i colorer_lib:HRCParserImpl.cpp.obj
 0001:00017070       ?_Buynode0@?$_List_alloc@U?$_List_base_types@U?$pair@$$CBVSString@@PAVSharedInputSource@@@std@@V?$allocator@U?$pair@$$CBVSString@@PAVSharedInputSource@@@std@@@2@@std@@@std@@QAEPAU?$_List_node@U?$pair@$$CBVSString@@PAVSharedInputSource@@@std@@PAX@2@PAU32@0@Z 10018070 f i colorer_lib:SharedInputSource.cpp.obj
 0001:00017070       ?_Buynode0@?$_List_alloc@U?$_List_base_types@U?$pair@$$CBVSString@@PBVString@@@std@@V?$allocator@U?$pair@$$CBVSString@@PBVString@@@std@@@2@@std@@@std@@QAEPAU?$_List_node@U?$pair@$$CBVSString@@PBVString@@@std@@PAX@2@PAU32@0@Z 10018070 f i colorer_lib:ParserFactory.cpp.obj
 0001:00017070       ?_Buynode0@?$_List_alloc@U?$_List_base_types@U?$pair@$$CBVSString@@PAV?$unordered_map@VSString@@PAV?$vector@PBVString@@V?$allocator@PBVString@@@std@@@std@@U?$hash@VSString@@@3@U?$equal_to@VSString@@@3@V?$allocator@U?$pair@$$CBVSString@@PAV?$vector@PBVString@@V?$allocator@PBVString@@@std@@@std@@@std@@@3@@std@@@std@@V?$allocator@U?$pair@$$CBVSString@@PAV?$unordered_map@VSString@@PAV?$vector@PBVString@@V?$allocator@PBVString@@@std@@@std@@U?$hash@VSString@@@3@U?$equal_to@VSString@@@3@V?$allocator@U?$pair@$$CBVSString@@PAV?$vector@PBVString@@V?$allocator@PBVString@@@std@@@std@@@std@@@3@@std@@@std@@@2@@std@@@std@@QAEPAU?$_List_node@U?$pair@$$CBVSString@@PAV?$unordered_map@VSString@@PAV?$vector@PBVString@@V?$allocator@PBVString@@@std@@@std@@U?$hash@VSString@@@3@U?$equal_to@VSString@@@3@V?$allocator@U?$pair@$$CBVSString@@PAV?$vector@PBVString@@V?$allocator@PBVString@@@std@@@std@@@std@@@3@@std@@@std@@PAX@2@PAU32@0@Z 10018070 f i colorer_lib:ParserFactory.cpp.obj
 0001:00017070       ?_Buynode0@?$_List_alloc@U?$_List_base_types@U?$pair@$$CBVSString@@PAVRegionDefine@@@std@@V?$allocator@U?$pair@$$CBVSString@@PAVRegionDefine@@@std@@@2@@std@@@std@@QAEPAU?$_List_node@U?$pair@$$CBVSString@@PAVRegionDefine@@@std@@PAX@2@PAU32@0@Z 10018070 f i colorer_lib:StyledHRDMapper.cpp.obj
 0001:00017070       ?_Buynode0@?$_List_alloc@U?$_List_base_types@U?$pair@$$CBVSString@@PAVSchemeImpl@@@std@@V?$allocator@U?$pair@$$CBVSString@@PAVSchemeImpl@@@std@@@2@@std@@@std@@QAEPAU?$_List_node@U?$pair@$$CBVSString@@PAVSchemeImpl@@@std@@PAX@2@PAU32@0@Z 10018070 f i colorer_lib:HRCParserImpl.cpp.obj
 0001:00017070       ?_Buynode0@?$_List_alloc@U?$_List_base_types@U?$pair@$$CBVSString@@PBVRegion@@@std@@V?$allocator@U?$pair@$$CBVSString@@PBVRegion@@@std@@@2@@std@@@std@@QAEPAU?$_List_node@U?$pair@$$CBVSString@@PBVRegion@@@std@@PAX@2@PAU32@0@Z 10018070 f i colorer_lib:HRCParserImpl.cpp.obj
 0001:00017070       ?_Buynode0@?$_List_alloc@U?$_List_base_types@U?$pair@$$CBVSString@@PAVTypeParameter@@@std@@V?$allocator@U?$pair@$$CBVSString@@PAVTypeParameter@@@std@@@2@@std@@@std@@QAEPAU?$_List_node@U?$pair@$$CBVSString@@PAVTypeParameter@@@std@@PAX@2@PAU32@0@Z 10018070 f i colorer_lib:FileTypeImpl.cpp.obj
 0001:00017070       ?_Buynode0@?$_List_alloc@U?$_List_base_types@U?$pair@$$CBVSString@@PAVSharedXmlInputSource@@@std@@V?$allocator@U?$pair@$$CBVSString@@PAVSharedXmlInputSource@@@std@@@2@@std@@@std@@QAEPAU?$_List_node@U?$pair@$$CBVSString@@PAVSharedXmlInputSource@@@std@@PAX@2@PAU32@0@Z 10018070 f i colorer_lib:SharedXmlInputSource.cpp.obj
 0001:00017070       ?_Buynode0@?$_List_alloc@U?$_List_base_types@U?$pair@$$CBVSString@@PAV?$vector@PBVString@@V?$allocator@PBVString@@@std@@@std@@@std@@V?$allocator@U?$pair@$$CBVSString@@PAV?$vector@PBVString@@V?$allocator@PBVString@@@std@@@std@@@std@@@2@@std@@@std@@QAEPAU?$_List_node@U?$pair@$$CBVSString@@PAV?$vector@PBVString@@V?$allocator@PBVString@@@std@@@std@@@std@@PAX@2@PAU32@0@Z 10018070 f i colorer_lib:ParserFactory.cpp.obj
 0001:00017070       ?_Buynode0@?$_List_alloc@U?$_List_base_types@U?$pair@$$CBVSString@@PAVFileTypeImpl@@@std@@V?$allocator@U?$pair@$$CBVSString@@PAVFileTypeImpl@@@std@@@2@@std@@@std@@QAEPAU?$_List_node@U?$pair@$$CBVSString@@PAVFileTypeImpl@@@std@@PAX@2@PAU32@0@Z 10018070 f i colorer_lib:HRCParserImpl.cpp.obj
 0001:00017070       ?_Buynode0@?$_List_alloc@U?$_List_base_types@U?$pair@$$CBVSString@@PAVString@@@std@@V?$allocator@U?$pair@$$CBVSString@@PAVString@@@std@@@2@@std@@@std@@QAEPAU?$_List_node@U?$pair@$$CBVSString@@PAVString@@@std@@PAX@2@PAU32@0@Z 10018070 f i colorer_lib:HRCParserImpl.cpp.obj
 0001:000170a0       ?deallocate@?$allocator@U?$_List_node@U?$pair@$$CBVSString@@PAVTypeParameter@@@std@@PAX@std@@@std@@QAEXQAU?$_List_node@U?$pair@$$CBVSString@@PAVTypeParameter@@@std@@PAX@2@I@Z 100180a0 f i colorer_lib:FileTypeImpl.cpp.obj
 0001:000170a0       ?deallocate@?$allocator@U?$_List_node@U?$pair@$$CBVSString@@PAVSharedInputSource@@@std@@PAX@std@@@std@@QAEXQAU?$_List_node@U?$pair@$$CBVSString@@PAVSharedInputSource@@@std@@PAX@2@I@Z 100180a0 f i colorer_lib:SharedInputSource.cpp.obj
 0001:000170a0       ?deallocate@?$allocator@U?$_List_node@U?$pair@$$CBVSString@@PAVRegionDefine@@@std@@PAX@std@@@std@@QAEXQAU?$_List_node@U?$pair@$$CBVSString@@PAVRegionDefine@@@std@@PAX@2@I@Z 100180a0 f i colorer_lib:StyledHRDMapper.cpp.obj
 0001:000170a0       ?deallocate@?$allocator@U?$_List_node@U?$pair@$$CBVSString@@PAVString@@@std@@PAX@std@@@std@@QAEXQAU?$_List_node@U?$pair@$$CBVSString@@PAVString@@@std@@PAX@2@I@Z 100180a0 f i colorer_lib:HRCParserImpl.cpp.obj
 0001:000170a0       ?deallocate@?$allocator@U?$_List_node@U?$pair@$$CBVSString@@PAV?$vector@PBVString@@V?$allocator@PBVString@@@std@@@std@@@std@@PAX@std@@@std@@QAEXQAU?$_List_node@U?$pair@$$CBVSString@@PAV?$vector@PBVString@@V?$allocator@PBVString@@@std@@@std@@@std@@PAX@2@I@Z 100180a0 f i colorer_lib:ParserFactory.cpp.obj
 0001:000170a0       ?deallocate@?$allocator@U?$_List_node@U?$pair@$$CBVSString@@PAVSchemeImpl@@@std@@PAX@std@@@std@@QAEXQAU?$_List_node@U?$pair@$$CBVSString@@PAVSchemeImpl@@@std@@PAX@2@I@Z 100180a0 f i colorer_lib:HRCParserImpl.cpp.obj
 0001:000170a0       ?deallocate@?$allocator@U?$_List_node@U?$pair@$$CBVSString@@PBVString@@@std@@PAX@std@@@std@@QAEXQAU?$_List_node@U?$pair@$$CBVSString@@PBVString@@@std@@PAX@2@I@Z 100180a0 f i colorer_lib:ParserFactory.cpp.obj
 0001:000170a0       ?deallocate@?$allocator@U?$_List_node@U?$pair@$$CBVSString@@PAVFileTypeImpl@@@std@@PAX@std@@@std@@QAEXQAU?$_List_node@U?$pair@$$CBVSString@@PAVFileTypeImpl@@@std@@PAX@2@I@Z 100180a0 f i colorer_lib:HRCParserImpl.cpp.obj
 0001:000170a0       ?deallocate@?$allocator@U?$_List_node@U?$pair@$$CBVSString@@PAVSharedXmlInputSource@@@std@@PAX@std@@@std@@QAEXQAU?$_List_node@U?$pair@$$CBVSString@@PAVSharedXmlInputSource@@@std@@PAX@2@I@Z 100180a0 f i colorer_lib:SharedXmlInputSource.cpp.obj
 0001:000170a0       ?deallocate@?$allocator@U?$_List_node@U?$pair@$$CBVSString@@PBVRegion@@@std@@PAX@std@@@std@@QAEXQAU?$_List_node@U?$pair@$$CBVSString@@PBVRegion@@@std@@PAX@2@I@Z 100180a0 f i colorer_lib:HRCParserImpl.cpp.obj
 0001:000170a0       ?deallocate@?$allocator@U?$_List_node@U?$pair@$$CBVSString@@PAV?$unordered_map@VSString@@PAV?$vector@PBVString@@V?$allocator@PBVString@@@std@@@std@@U?$hash@VSString@@@3@U?$equal_to@VSString@@@3@V?$allocator@U?$pair@$$CBVSString@@PAV?$vector@PBVString@@V?$allocator@PBVString@@@std@@@std@@@std@@@3@@std@@@std@@PAX@std@@@std@@QAEXQAU?$_List_node@U?$pair@$$CBVSString@@PAV?$unordered_map@VSString@@PAV?$vector@PBVString@@V?$allocator@PBVString@@@std@@@std@@U?$hash@VSString@@@3@U?$equal_to@VSString@@@3@V?$allocator@U?$pair@$$CBVSString@@PAV?$vector@PBVString@@V?$allocator@PBVString@@@std@@@std@@@std@@@3@@std@@@std@@PAX@2@I@Z 100180a0 f i colorer_lib:ParserFactory.cpp.obj
 0001:000170c0       ??$_Buynode@AAU?$pair@VSString@@PAV?$vector@PBVString@@V?$allocator@PBVString@@@std@@@std@@@std@@@?$_List_buy@U?$pair@$$CBVSString@@PAV?$vector@PBVString@@V?$allocator@PBVString@@@std@@@std@@@std@@V?$allocator@U?$pair@$$CBVSString@@PAV?$vector@PBVString@@V?$allocator@PBVString@@@std@@@std@@@std@@@2@@std@@QAEPAU?$_List_node@U?$pair@$$CBVSString@@PAV?$vector@PBVString@@V?$allocator@PBVString@@@std@@@std@@@std@@PAX@1@PAU21@0AAU?$pair@VSString@@PAV?$vector@PBVString@@V?$allocator@PBVString@@@std@@@std@@@1@@Z 100180c0 f i colorer_lib:ParserFactory.cpp.obj
 0001:000170c0       ??$_Buynode@AAU?$pair@VSString@@PAVFileTypeImpl@@@std@@@?$_List_buy@U?$pair@$$CBVSString@@PAVFileTypeImpl@@@std@@V?$allocator@U?$pair@$$CBVSString@@PAVFileTypeImpl@@@std@@@2@@std@@QAEPAU?$_List_node@U?$pair@$$CBVSString@@PAVFileTypeImpl@@@std@@PAX@1@PAU21@0AAU?$pair@VSString@@PAVFileTypeImpl@@@1@@Z 100180c0 f i colorer_lib:HRCParserImpl.cpp.obj
 0001:000170c0       ??$_Buynode@AAU?$pair@VSString@@PAV?$unordered_map@VSString@@PAV?$vector@PBVString@@V?$allocator@PBVString@@@std@@@std@@U?$hash@VSString@@@3@U?$equal_to@VSString@@@3@V?$allocator@U?$pair@$$CBVSString@@PAV?$vector@PBVString@@V?$allocator@PBVString@@@std@@@std@@@std@@@3@@std@@@std@@@?$_List_buy@U?$pair@$$CBVSString@@PAV?$unordered_map@VSString@@PAV?$vector@PBVString@@V?$allocator@PBVString@@@std@@@std@@U?$hash@VSString@@@3@U?$equal_to@VSString@@@3@V?$allocator@U?$pair@$$CBVSString@@PAV?$vector@PBVString@@V?$allocator@PBVString@@@std@@@std@@@std@@@3@@std@@@std@@V?$allocator@U?$pair@$$CBVSString@@PAV?$unordered_map@VSString@@PAV?$vector@PBVString@@V?$allocator@PBVString@@@std@@@std@@U?$hash@VSString@@@3@U?$equal_to@VSString@@@3@V?$allocator@U?$pair@$$CBVSString@@PAV?$vector@PBVString@@V?$allocator@PBVString@@@std@@@std@@@std@@@3@@std@@@std@@@2@@std@@QAEPAU?$_List_node@U?$pair@$$CBVSString@@PAV?$unordered_map@VSString@@PAV?$vector@PBVString@@V?$allocator@PBVString@@@std@@@std@@U?$hash@VSString@@@3@U?$equal_to@VSString@@@3@V?$allocator@U?$pair@$$CBVSString@@PAV?$vector@PBVString@@V?$allocator@PBVString@@@std@@@std@@@std@@@3@@std@@@std@@PAX@1@PAU21@0AAU?$pair@VSString@@PAV?$unordered_map@VSString@@PAV?$vector@PBVString@@V?$allocator@PBVString@@@std@@@std@@U?$hash@VSString@@@3@U?$equal_to@VSString@@@3@V?$allocator@U?$pair@$$CBVSString@@PAV?$vector@PBVString@@V?$allocator@PBVString@@@std@@@std@@@std@@@3@@std@@@1@@Z 100180c0 f i colorer_lib:ParserFactory.cpp.obj
 0001:000170c0       ??$_Buynode@AAU?$pair@VSString@@PBVRegion@@@std@@@?$_List_buy@U?$pair@$$CBVSString@@PBVRegion@@@std@@V?$allocator@U?$pair@$$CBVSString@@PBVRegion@@@std@@@2@@std@@QAEPAU?$_List_node@U?$pair@$$CBVSString@@PBVRegion@@@std@@PAX@1@PAU21@0AAU?$pair@VSString@@PBVRegion@@@1@@Z 100180c0 f i colorer_lib:HRCParserImpl.cpp.obj
 0001:000170c0       ??$_Buynode@AAU?$pair@VSString@@PAVSharedInputSource@@@std@@@?$_List_buy@U?$pair@$$CBVSString@@PAVSharedInputSource@@@std@@V?$allocator@U?$pair@$$CBVSString@@PAVSharedInputSource@@@std@@@2@@std@@QAEPAU?$_List_node@U?$pair@$$CBVSString@@PAVSharedInputSource@@@std@@PAX@1@PAU21@0AAU?$pair@VSString@@PAVSharedInputSource@@@1@@Z 100180c0 f i colorer_lib:SharedInputSource.cpp.obj
 0001:000170c0       ??$_Buynode@AAU?$pair@VSString@@PAVSharedXmlInputSource@@@std@@@?$_List_buy@U?$pair@$$CBVSString@@PAVSharedXmlInputSource@@@std@@V?$allocator@U?$pair@$$CBVSString@@PAVSharedXmlInputSource@@@std@@@2@@std@@QAEPAU?$_List_node@U?$pair@$$CBVSString@@PAVSharedXmlInputSource@@@std@@PAX@1@PAU21@0AAU?$pair@VSString@@PAVSharedXmlInputSource@@@1@@Z 100180c0 f i colorer_lib:SharedXmlInputSource.cpp.obj
 0001:000170c0       ??$_Buynode@AAU?$pair@VSString@@PAVTypeParameter@@@std@@@?$_List_buy@U?$pair@$$CBVSString@@PAVTypeParameter@@@std@@V?$allocator@U?$pair@$$CBVSString@@PAVTypeParameter@@@std@@@2@@std@@QAEPAU?$_List_node@U?$pair@$$CBVSString@@PAVTypeParameter@@@std@@PAX@1@PAU21@0AAU?$pair@VSString@@PAVTypeParameter@@@1@@Z 100180c0 f i colorer_lib:FileTypeImpl.cpp.obj
 0001:000170c0       ??$_Buynode@AAU?$pair@VSString@@PAVSchemeImpl@@@std@@@?$_List_buy@U?$pair@$$CBVSString@@PAVSchemeImpl@@@std@@V?$allocator@U?$pair@$$CBVSString@@PAVSchemeImpl@@@std@@@2@@std@@QAEPAU?$_List_node@U?$pair@$$CBVSString@@PAVSchemeImpl@@@std@@PAX@1@PAU21@0AAU?$pair@VSString@@PAVSchemeImpl@@@1@@Z 100180c0 f i colorer_lib:HRCParserImpl.cpp.obj
 0001:000170c0       ??$_Buynode@AAU?$pair@VSString@@PAVRegionDefine@@@std@@@?$_List_buy@U?$pair@$$CBVSString@@PAVRegionDefine@@@std@@V?$allocator@U?$pair@$$CBVSString@@PAVRegionDefine@@@std@@@2@@std@@QAEPAU?$_List_node@U?$pair@$$CBVSString@@PAVRegionDefine@@@std@@PAX@1@PAU21@0AAU?$pair@VSString@@PAVRegionDefine@@@1@@Z 100180c0 f i colorer_lib:StyledHRDMapper.cpp.obj
 0001:000170c0       ??$_Buynode@AAU?$pair@VSString@@PAVString@@@std@@@?$_List_buy@U?$pair@$$CBVSString@@PAVString@@@std@@V?$allocator@U?$pair@$$CBVSString@@PAVString@@@std@@@2@@std@@QAEPAU?$_List_node@U?$pair@$$CBVSString@@PAVString@@@std@@PAX@1@PAU21@0AAU?$pair@VSString@@PAVString@@@1@@Z 100180c0 f i colorer_lib:HRCParserImpl.cpp.obj
 0001:000170c0       ??$_Buynode@AAU?$pair@VSString@@PBVString@@@std@@@?$_List_buy@U?$pair@$$CBVSString@@PBVString@@@std@@V?$allocator@U?$pair@$$CBVSString@@PBVString@@@std@@@2@@std@@QAEPAU?$_List_node@U?$pair@$$CBVSString@@PBVString@@@std@@PAX@1@PAU21@0AAU?$pair@VSString@@PBVString@@@1@@Z 100180c0 f i colorer_lib:ParserFactory.cpp.obj
 0001:00017160       ??$erase@V?$_List_iterator@V?$_List_val@U?$_List_simple_types@U?$pair@$$CBVSString@@PAVString@@@std@@@std@@@std@@@std@@X@?$_Hash@V?$_Umap_traits@VSString@@PAVString@@V?$_Uhash_compare@VSString@@U?$hash@VSString@@@std@@U?$equal_to@VSString@@@3@@std@@V?$allocator@U?$pair@$$CBVSString@@PAVString@@@std@@@4@$0A@@std@@@std@@QAE?AV?$_List_iterator@V?$_List_val@U?$_List_simple_types@U?$pair@$$CBVSString@@PAVString@@@std@@@std@@@std@@@1@V21@@Z 10018160 f i colorer_lib:HRCParserImpl.cpp.obj
 0001:00017160       ??$erase@V?$_List_iterator@V?$_List_val@U?$_List_simple_types@U?$pair@$$CBVSString@@PAVRegionDefine@@@std@@@std@@@std@@@std@@X@?$_Hash@V?$_Umap_traits@VSString@@PAVRegionDefine@@V?$_Uhash_compare@VSString@@U?$hash@VSString@@@std@@U?$equal_to@VSString@@@3@@std@@V?$allocator@U?$pair@$$CBVSString@@PAVRegionDefine@@@std@@@4@$0A@@std@@@std@@QAE?AV?$_List_iterator@V?$_List_val@U?$_List_simple_types@U?$pair@$$CBVSString@@PAVRegionDefine@@@std@@@std@@@std@@@1@V21@@Z 10018160 f i colorer_lib:StyledHRDMapper.cpp.obj
 0001:00017160       ??$erase@V?$_List_iterator@V?$_List_val@U?$_List_simple_types@U?$pair@$$CBVSString@@PAV?$unordered_map@VSString@@PAV?$vector@PBVString@@V?$allocator@PBVString@@@std@@@std@@U?$hash@VSString@@@3@U?$equal_to@VSString@@@3@V?$allocator@U?$pair@$$CBVSString@@PAV?$vector@PBVString@@V?$allocator@PBVString@@@std@@@std@@@std@@@3@@std@@@std@@@std@@@std@@@std@@X@?$_Hash@V?$_Umap_traits@VSString@@PAV?$unordered_map@VSString@@PAV?$vector@PBVString@@V?$allocator@PBVString@@@std@@@std@@U?$hash@VSString@@@3@U?$equal_to@VSString@@@3@V?$allocator@U?$pair@$$CBVSString@@PAV?$vector@PBVString@@V?$allocator@PBVString@@@std@@@std@@@std@@@3@@std@@V?$_Uhash_compare@VSString@@U?$hash@VSString@@@std@@U?$equal_to@VSString@@@3@@3@V?$allocator@U?$pair@$$CBVSString@@PAV?$unordered_map@VSString@@PAV?$vector@PBVString@@V?$allocator@PBVString@@@std@@@std@@U?$hash@VSString@@@3@U?$equal_to@VSString@@@3@V?$allocator@U?$pair@$$CBVSString@@PAV?$vector@PBVString@@V?$allocator@PBVString@@@std@@@std@@@std@@@3@@std@@@std@@@3@$0A@@std@@@std@@QAE?AV?$_List_iterator@V?$_List_val@U?$_List_simple_types@U?$pair@$$CBVSString@@PAV?$unordered_map@VSString@@PAV?$vector@PBVString@@V?$allocator@PBVString@@@std@@@std@@U?$hash@VSString@@@3@U?$equal_to@VSString@@@3@V?$allocator@U?$pair@$$CBVSString@@PAV?$vector@PBVString@@V?$allocator@PBVString@@@std@@@std@@@std@@@3@@std@@@std@@@std@@@std@@@1@V21@@Z 10018160 f i colorer_lib:ParserFactory.cpp.obj
 0001:00017160       ??$erase@V?$_List_iterator@V?$_List_val@U?$_List_simple_types@U?$pair@$$CBVSString@@PAV?$vector@PBVString@@V?$allocator@PBVString@@@std@@@std@@@std@@@std@@@std@@@std@@X@?$_Hash@V?$_Umap_traits@VSString@@PAV?$vector@PBVString@@V?$allocator@PBVString@@@std@@@std@@V?$_Uhash_compare@VSString@@U?$hash@VSString@@@std@@U?$equal_to@VSString@@@3@@3@V?$allocator@U?$pair@$$CBVSString@@PAV?$vector@PBVString@@V?$allocator@PBVString@@@std@@@std@@@std@@@3@$0A@@std@@@std@@QAE?AV?$_List_iterator@V?$_List_val@U?$_List_simple_types@U?$pair@$$CBVSString@@PAV?$vector@PBVString@@V?$allocator@PBVString@@@std@@@std@@@std@@@std@@@std@@@1@V21@@Z 10018160 f i colorer_lib:ParserFactory.cpp.obj
 0001:00017160       ??$erase@V?$_List_iterator@V?$_List_val@U?$_List_simple_types@U?$pair@$$CBVSString@@PBVRegion@@@std@@@std@@@std@@@std@@X@?$_Hash@V?$_Umap_traits@VSString@@PBVRegion@@V?$_Uhash_compare@VSString@@U?$hash@VSString@@@std@@U?$equal_to@VSString@@@3@@std@@V?$allocator@U?$pair@$$CBVSString@@PBVRegion@@@std@@@4@$0A@@std@@@std@@QAE?AV?$_List_iterator@V?$_List_val@U?$_List_simple_types@U?$pair@$$CBVSString@@PBVRegion@@@std@@@std@@@std@@@1@V21@@Z 10018160 f i colorer_lib:HRCParserImpl.cpp.obj
 0001:00017160       ??$erase@V?$_List_iterator@V?$_List_val@U?$_List_simple_types@U?$pair@$$CBVSString@@PBVString@@@std@@@std@@@std@@@std@@X@?$_Hash@V?$_Umap_traits@VSString@@PBVString@@V?$_Uhash_compare@VSString@@U?$hash@VSString@@@std@@U?$equal_to@VSString@@@3@@std@@V?$allocator@U?$pair@$$CBVSString@@PBVString@@@std@@@4@$0A@@std@@@std@@QAE?AV?$_List_iterator@V?$_List_val@U?$_List_simple_types@U?$pair@$$CBVSString@@PBVString@@@std@@@std@@@std@@@1@V21@@Z 10018160 f i colorer_lib:ParserFactory.cpp.obj
 0001:00017160       ??$erase@V?$_List_iterator@V?$_List_val@U?$_List_simple_types@U?$pair@$$CBVSString@@PAVSchemeImpl@@@std@@@std@@@std@@@std@@X@?$_Hash@V?$_Umap_traits@VSString@@PAVSchemeImpl@@V?$_Uhash_compare@VSString@@U?$hash@VSString@@@std@@U?$equal_to@VSString@@@3@@std@@V?$allocator@U?$pair@$$CBVSString@@PAVSchemeImpl@@@std@@@4@$0A@@std@@@std@@QAE?AV?$_List_iterator@V?$_List_val@U?$_List_simple_types@U?$pair@$$CBVSString@@PAVSchemeImpl@@@std@@@std@@@std@@@1@V21@@Z 10018160 f i colorer_lib:HRCParserImpl.cpp.obj
 0001:000171d0       ??0Exception@@QAE@ABV0@@Z  100181d0 f   colorer_lib:Exception.cpp.obj
 0001:00017290       ??0Exception@@QAE@ABVString@@@Z 10018290 f   colorer_lib:Exception.cpp.obj
 0001:00017370       ?getTargetNamespace@SchemaGrammar@xercesc_3_1@@UBEPB_WXZ 10018370 f   xerces-c_3_1:SchemaGrammar.cpp.obj
 0001:00017370       ?getMessage@Exception@@UBEPBVString@@XZ 10018370 f   colorer_lib:Exception.cpp.obj
 0001:00017370       ?getSign@XMLBigDecimal@xercesc_3_1@@UBEHXZ 10018370 f   xerces-c_3_1:XMLBigDecimal.cpp.obj
 0001:00017370       ?getMemoryManager@XMLElementDecl@xercesc_3_1@@QBEPAVMemoryManager@2@XZ 10018370 f   xerces-c_3_1:SchemaElementDecl.cpp.obj
 0001:00017370       ?getMessage@SAXException@xercesc_3_1@@UBEPB_WXZ 10018370 f   xerces-c_3_1:XercesDOMParser.cpp.obj
 0001:00017370       ?getName@Region@@UBEPBVString@@XZ 10018370 f   colorer_lib:HRCParserImpl.cpp.obj
 0001:00017370       ?getStringData@DOMLSInputImpl@xercesc_3_1@@UBEPB_WXZ 10018370 f   xerces-c_3_1:DOMLSInputImpl.cpp.obj
 0001:00017370       ?size@?$ValueVectorOf@PAX@xercesc_3_1@@QBEKXZ 10018370 f   xerces-c_3_1:XSerializeEngine.cpp.obj
 0001:00017370       ?getByteStream@DOMLSOutputImpl@xercesc_3_1@@UBEPAVXMLFormatTarget@2@XZ 10018370 f   xerces-c_3_1:DOMLSOutputImpl.cpp.obj
 0001:00017370       ?getRoot@DOMNodeIteratorImpl@xercesc_3_1@@UAEPAVDOMNode@2@XZ 10018370 f   xerces-c_3_1:DOMNodeIteratorImpl.cpp.obj
 0001:00017370       ?getMemoryManager@RegxParser@xercesc_3_1@@IBEPAVMemoryManager@2@XZ 10018370 f   xerces-c_3_1:ParserForXMLSchema.cpp.obj
 0001:00017370       ?getLocation@JARInputSource@@UBEPBVString@@XZ 10018370 f   colorer_lib:JARInputSource.cpp.obj
 0001:00017370       ?getName@SchemeImpl@@UBEPBVString@@XZ 10018370 f   colorer_lib:HRCParserImpl.cpp.obj
 0001:00017370       ?getLocation@FileInputSource@@UBEPBVString@@XZ 10018370 f   colorer_lib:FileInputSource.cpp.obj
 0001:00017370       ?getWhatToShow@DOMTreeWalkerImpl@xercesc_3_1@@UAEKXZ 10018370 f   xerces-c_3_1:DOMTreeWalkerImpl.cpp.obj
 0001:00017370       ?getMemoryManager@XMLGrammarPool@xercesc_3_1@@QAEPAVMemoryManager@2@XZ 10018370 f   xerces-c_3_1:XMLScanner.cpp.obj
 0001:00017370       ?getMemoryManager@XMLAttDefList@xercesc_3_1@@QBEPAVMemoryManager@2@XZ 10018370 f   xerces-c_3_1:ComplexTypeInfo.cpp.obj
 0001:00017370       ?getMemoryManager@InputSource@xercesc_3_1@@QBEPAVMemoryManager@2@XZ 10018370 f   xerces-c_3_1:LocalFileInputSource.cpp.obj
 0001:00017370       ?getResultType@DOMXPathResultImpl@xercesc_3_1@@UBE?AW4ResultType@DOMXPathResult@2@XZ 10018370 f   xerces-c_3_1:DOMXPathResultImpl.cpp.obj
 0001:00017380       ??0InputSourceException@@QAE@ABVString@@@Z 10018380 f   colorer_lib:Exception.cpp.obj
 0001:00017460       ??0FileErrorHandler@@QAE@PBVString@@H_N@Z 10018460 f   colorer_lib:FileErrorHandler.cpp.obj
 0001:00017710       ??_EFileErrorHandler@@UAEPAXI@Z 10018710 f i * CIL library *:* CIL module *
 0001:00017710       ??_GFileErrorHandler@@UAEPAXI@Z 10018710 f i colorer_lib:FileErrorHandler.cpp.obj
 0001:00017760       ?error@FileErrorHandler@@UAEXABVString@@@Z 10018760 f   colorer_lib:FileErrorHandler.cpp.obj
 0001:00017890       ?fatalError@FileErrorHandler@@UAEXABVString@@@Z 10018890 f   colorer_lib:FileErrorHandler.cpp.obj
 0001:000179c0       ?warning@FileErrorHandler@@UAEXABVString@@@Z 100189c0 f   colorer_lib:FileErrorHandler.cpp.obj
 0001:00017af0       ?view@TextConsoleViewer@@QAEXXZ 10018af0 f   colorer_lib:TextConsoleViewer.cpp.obj
 0001:00018210       ?replaceTabs@TextLinesStore@@AAEXI@Z 10019210 f   colorer_lib:TextLinesStore.cpp.obj
 0001:00018350       ??_GTextLinesStore@@UAEPAXI@Z 10019350 f i colorer_lib:TextLinesStore.cpp.obj
 0001:00018350       ??_ETextLinesStore@@UAEPAXI@Z 10019350 f i * CIL library *:* CIL module *
 0001:00018370       ??1TextLinesStore@@UAE@XZ  10019370 f   colorer_lib:TextLinesStore.cpp.obj
 0001:000183e0       ?freeFile@TextLinesStore@@IAEXXZ 100193e0 f   colorer_lib:TextLinesStore.cpp.obj
 0001:00018420       ?loadFile@TextLinesStore@@QAEXPBVString@@0_N@Z 10019420 f   colorer_lib:TextLinesStore.cpp.obj
 0001:000187b0       ?getLine@TextLinesStore@@UAEPAVString@@I@Z 100197b0 f   colorer_lib:TextLinesStore.cpp.obj
 0001:000187d0       ?_Reallocate_exactly@?$vector@PAVString@@V?$allocator@PAVString@@@std@@@std@@AAEXI@Z 100197d0 f i colorer_lib:TextLinesStore.cpp.obj
 0001:00018820       ??1FileType@@MAE@XZ        10019820 f i colorer_lib:FileTypeImpl.cpp.obj
 0001:00018830       ??_EFileType@@MAEPAXI@Z    10019830 f i * CIL library *:* CIL module *
 0001:00018830       ??_GFileType@@MAEPAXI@Z    10019830 f i colorer_lib:FileTypeImpl.cpp.obj
 0001:00018860       ??_GCRegExp@@QAEPAXI@Z     10019860 f i colorer_lib:FileTypeImpl.cpp.obj
 0001:000188b0       ?getGrammarKey@XMLSchemaDescriptionImpl@xercesc_3_1@@UBEPB_WXZ 100198b0 f i xerces-c_3_1:XMLSchemaDescriptionImpl.cpp.obj
 0001:000188b0       ?getChar@CharToken@xercesc_3_1@@UBEHXZ 100198b0 f i xerces-c_3_1:CharToken.cpp.obj
 0001:000188b0       ?getNewLine@DOMLSSerializerImpl@xercesc_3_1@@UBEPB_WXZ 100198b0 f i xerces-c_3_1:DOMLSSerializerImpl.cpp.obj
 0001:000188b0       ?getEncoding@DOMLSInputImpl@xercesc_3_1@@UBEPB_WXZ 100198b0 f i xerces-c_3_1:DOMLSInputImpl.cpp.obj
 0001:000188b0       ?getReferenceNo@StringToken@xercesc_3_1@@UBEHXZ 100198b0 f i xerces-c_3_1:StringToken.cpp.obj
 0001:000188b0       ?getPublicId@InputSource@xercesc_3_1@@UBEPB_WXZ 100198b0 f i colorer_lib:ZipXmlInputSource.cpp.obj
 0001:000188b0       ?getCurrentNode@DOMTreeWalkerImpl@xercesc_3_1@@UAEPAVDOMNode@2@XZ 100198b0 f i xerces-c_3_1:DOMTreeWalkerImpl.cpp.obj
 0001:000188b0       ?getNoParen@ParenToken@xercesc_3_1@@UBEHXZ 100198b0 f i xerces-c_3_1:ParenToken.cpp.obj
 0001:000188b0       ?getRootName@XMLDTDDescriptionImpl@xercesc_3_1@@UBEPB_WXZ 100198b0 f i xerces-c_3_1:XMLDTDDescriptionImpl.cpp.obj
 0001:000188b0       ?getKey@XMLNotationDecl@xercesc_3_1@@QBEPB_WXZ 100198b0 f i xerces-c_3_1:DTDGrammar.cpp.obj
 0001:000188b0       ?getMin@ClosureToken@xercesc_3_1@@UBEHXZ 100198b0 f i xerces-c_3_1:ClosureToken.cpp.obj
 0001:000188b0       ?getMessage@DOMErrorImpl@xercesc_3_1@@UBEPB_WXZ 100198b0 f i xerces-c_3_1:DOMErrorImpl.cpp.obj
 0001:000188b0       ?getTargetNamespace@XMLSchemaDescriptionImpl@xercesc_3_1@@UBEPB_WXZ 100198b0 f i xerces-c_3_1:XMLSchemaDescriptionImpl.cpp.obj
 0001:000188b0       ?getNodeName@DOMNotationImpl@xercesc_3_1@@UBEPB_WXZ 100198b0 f i xerces-c_3_1:DOMNotationImpl.cpp.obj
 0001:000188b0       ?getParent@Region@@UBEPBV1@XZ 100198b0 f i colorer_lib:HRCParserImpl.cpp.obj
 0001:000188b0       ?getName@FileTypeImpl@@UBEPBVString@@XZ 100198b0 f i colorer_lib:FileTypeImpl.cpp.obj
 0001:000188b0       ?getEntityDeclPool@ValidationContextImpl@xercesc_3_1@@UBEPBV?$NameIdPool@VDTDEntityDecl@xercesc_3_1@@@2@XZ 100198b0 f i xerces-c_3_1:ValidationContextImpl.cpp.obj
 0001:000188b0       ?getSystemId@DOMLSOutputImpl@xercesc_3_1@@UBEPB_WXZ 100198b0 f i xerces-c_3_1:DOMLSOutputImpl.cpp.obj
 0001:000188b0       ?getMemoryManager@XMLTranscoder@xercesc_3_1@@QBEPAVMemoryManager@2@XZ 100198b0 f i xerces-c_3_1:Win32TransService.cpp.obj
 0001:000188b0       ?getWhatToShow@DOMNodeIteratorImpl@xercesc_3_1@@UAEKXZ 100198b0 f i xerces-c_3_1:DOMNodeIteratorImpl.cpp.obj
 0001:000188b0       ?getScale@XMLBigDecimal@xercesc_3_1@@QBEIXZ 100198b0 f i xerces-c_3_1:XMLBigDecimal.cpp.obj
 0001:000188c0       ?getGrammar@DTDValidator@xercesc_3_1@@UBEPAVGrammar@2@XZ 100198c0 f i xerces-c_3_1:DTDValidator.cpp.obj
 0001:000188c0       ?getTriggeringComponent@XMLSchemaDescriptionImpl@xercesc_3_1@@UBEPBVQName@2@XZ 100198c0 f i xerces-c_3_1:XMLSchemaDescriptionImpl.cpp.obj
 0001:000188c0       ?getDescription@FileTypeImpl@@UBEPBVString@@XZ 100198c0 f i colorer_lib:FileTypeImpl.cpp.obj
 0001:000188c0       ?getSystemId@DOMLSInputImpl@xercesc_3_1@@UBEPB_WXZ 100198c0 f i xerces-c_3_1:DOMLSInputImpl.cpp.obj
 0001:000188c0       ?getFileType@SchemeImpl@@UBEPAVFileType@@XZ 100198c0 f i colorer_lib:HRCParserImpl.cpp.obj
 0001:000188c0       ?getFirstChild@DOMEntityReferenceImpl@xercesc_3_1@@UBEPAVDOMNode@2@XZ 100198c0 f i xerces-c_3_1:DOMEntityReferenceImpl.cpp.obj
 0001:000188c0       ?getFirstChild@DOMElementImpl@xercesc_3_1@@UBEPAVDOMNode@2@XZ 100198c0 f i xerces-c_3_1:DOMElementImpl.cpp.obj
 0001:000188c0       ?getRawData@XMLBigDecimal@xercesc_3_1@@UBEPA_WXZ 100198c0 f i xerces-c_3_1:XMLBigDecimal.cpp.obj
 0001:000188c0       ?getData@ModifierOp@xercesc_3_1@@UBEHXZ 100198c0 f i xerces-c_3_1:Op.cpp.obj
 0001:000188c0       ?getFormattedString@XMLBigDecimal@xercesc_3_1@@UBEPB_WXZ 100198c0 f i xerces-c_3_1:XMLBigDecimal.cpp.obj
 0001:000188c0       ?getType@DOMErrorImpl@xercesc_3_1@@UBEPB_WXZ 100198c0 f i xerces-c_3_1:DOMErrorImpl.cpp.obj
 0001:000188c0       ?getFirstChild@DOMDocumentFragmentImpl@xercesc_3_1@@UBEPAVDOMNode@2@XZ 100198c0 f i xerces-c_3_1:DOMDocumentFragmentImpl.cpp.obj
 0001:000188c0       ?getMemoryManager@?$BaseRefVectorOf@VXMLReader@xercesc_3_1@@@xercesc_3_1@@QBEPAVMemoryManager@2@XZ 100198c0 f i xerces-c_3_1:ReaderMgr.cpp.obj
 0001:000188c0       ?getMemoryManager@?$BaseRefVectorOf@VXMLEntityDecl@xercesc_3_1@@@xercesc_3_1@@QBEPAVMemoryManager@2@XZ 100198c0 f i xerces-c_3_1:ReaderMgr.cpp.obj
 0001:000188c0       ?getMemoryManager@?$BaseRefVectorOf@VDOMBuffer@xercesc_3_1@@@xercesc_3_1@@QBEPAVMemoryManager@2@XZ 100198c0 f i xerces-c_3_1:DOMDocumentImpl.cpp.obj
 0001:000188c0       ?getValidatingMemberType@ValidationContextImpl@xercesc_3_1@@UBEPAVDatatypeValidator@2@XZ 100198c0 f i xerces-c_3_1:ValidationContextImpl.cpp.obj
 0001:000188c0       ?getFirstChild@DOMDocumentTypeImpl@xercesc_3_1@@UBEPAVDOMNode@2@XZ 100198c0 f i xerces-c_3_1:DOMDocumentTypeImpl.cpp.obj
 0001:000188c0       ?getSystemId@DOMNotationImpl@xercesc_3_1@@UBEPB_WXZ 100198c0 f i xerces-c_3_1:DOMNotationImpl.cpp.obj
 0001:000188c0       ?getParameterNames@DOMConfigurationImpl@xercesc_3_1@@UBEPBVDOMStringList@2@XZ 100198c0 f i xerces-c_3_1:DOMConfigurationImpl.cpp.obj
 0001:000188c0       ?getFilter@DOMLSParserImpl@xercesc_3_1@@UBEPBVDOMLSParserFilter@2@XZ 100198c0 f i xerces-c_3_1:DOMLSParserImpl.cpp.obj
 0001:000188c0       ?getFirstChild@DOMDocumentImpl@xercesc_3_1@@UBEPAVDOMNode@2@XZ 100198c0 f i xerces-c_3_1:DOMDocumentImpl.cpp.obj
 0001:000188c0       ?getFirstChild@DOMAttrImpl@xercesc_3_1@@UBEPAVDOMNode@2@XZ 100198c0 f i xerces-c_3_1:DOMAttrImpl.cpp.obj
 0001:000188c0       ?getFilter@DOMLSSerializerImpl@xercesc_3_1@@UBEPAVDOMLSSerializerFilter@2@XZ 100198c0 f i xerces-c_3_1:DOMLSSerializerImpl.cpp.obj
 0001:000188d0       ??_EFileTypeImpl@@MAEPAXI@Z 100198d0 f i * CIL library *:* CIL module *
 0001:000188d0       ??_GFileTypeImpl@@MAEPAXI@Z 100198d0 f i colorer_lib:FileTypeImpl.cpp.obj
 0001:000188f0       ??1?$_Hash@V?$_Umap_traits@VSString@@PAVSharedXmlInputSource@@V?$_Uhash_compare@VSString@@U?$hash@VSString@@@std@@U?$equal_to@VSString@@@3@@std@@V?$allocator@U?$pair@$$CBVSString@@PAVSharedXmlInputSource@@@std@@@4@$0A@@std@@@std@@QAE@XZ 100198f0 f i colorer_lib:SharedXmlInputSource.cpp.obj
 0001:000188f0       ??1?$_Hash@V?$_Umap_traits@VSString@@PAVTypeParameter@@V?$_Uhash_compare@VSString@@U?$hash@VSString@@@std@@U?$equal_to@VSString@@@3@@std@@V?$allocator@U?$pair@$$CBVSString@@PAVTypeParameter@@@std@@@4@$0A@@std@@@std@@QAE@XZ 100198f0 f i colorer_lib:FileTypeImpl.cpp.obj
 0001:000188f0       ??1?$_Hash@V?$_Umap_traits@VSString@@PAVRegionDefine@@V?$_Uhash_compare@VSString@@U?$hash@VSString@@@std@@U?$equal_to@VSString@@@3@@std@@V?$allocator@U?$pair@$$CBVSString@@PAVRegionDefine@@@std@@@4@$0A@@std@@@std@@QAE@XZ 100198f0 f i colorer_lib:StyledHRDMapper.cpp.obj
 0001:000188f0       ??1?$_Hash@V?$_Umap_traits@VSString@@PAVString@@V?$_Uhash_compare@VSString@@U?$hash@VSString@@@std@@U?$equal_to@VSString@@@3@@std@@V?$allocator@U?$pair@$$CBVSString@@PAVString@@@std@@@4@$0A@@std@@@std@@QAE@XZ 100198f0 f i colorer_lib:HRCParserImpl.cpp.obj
 0001:000188f0       ??1?$_Hash@V?$_Umap_traits@VSString@@PAVSchemeImpl@@V?$_Uhash_compare@VSString@@U?$hash@VSString@@@std@@U?$equal_to@VSString@@@3@@std@@V?$allocator@U?$pair@$$CBVSString@@PAVSchemeImpl@@@std@@@4@$0A@@std@@@std@@QAE@XZ 100198f0 f i colorer_lib:HRCParserImpl.cpp.obj
 0001:000188f0       ??1?$_Hash@V?$_Umap_traits@VSString@@PAVSharedInputSource@@V?$_Uhash_compare@VSString@@U?$hash@VSString@@@std@@U?$equal_to@VSString@@@3@@std@@V?$allocator@U?$pair@$$CBVSString@@PAVSharedInputSource@@@std@@@4@$0A@@std@@@std@@QAE@XZ 100198f0 f i colorer_lib:SharedInputSource.cpp.obj
 0001:000188f0       ??1?$_Hash@V?$_Umap_traits@VSString@@PAVFileTypeImpl@@V?$_Uhash_compare@VSString@@U?$hash@VSString@@@std@@U?$equal_to@VSString@@@3@@std@@V?$allocator@U?$pair@$$CBVSString@@PAVFileTypeImpl@@@std@@@4@$0A@@std@@@std@@QAE@XZ 100198f0 f i colorer_lib:HRCParserImpl.cpp.obj
 0001:00018960       ??1FileTypeImpl@@MAE@XZ    10019960 f   colorer_lib:FileTypeImpl.cpp.obj
 0001:00018b40       ?getBaseScheme@FileTypeImpl@@UAEPAVScheme@@XZ 10019b40 f   colorer_lib:FileTypeImpl.cpp.obj
 0001:00018b60       ?enumParams@FileTypeImpl@@UBE?AV?$vector@VSString@@V?$allocator@VSString@@@std@@@std@@XZ 10019b60 f   colorer_lib:FileTypeImpl.cpp.obj
 0001:00018c40       ?getParamDescription@FileTypeImpl@@UBEPBVString@@ABV2@@Z 10019c40 f   colorer_lib:FileTypeImpl.cpp.obj
 0001:00018d80       ?getParamValue@FileTypeImpl@@UBEPBVString@@ABV2@@Z 10019d80 f   colorer_lib:FileTypeImpl.cpp.obj
 0001:00018ee0       ?getParamValueInt@FileTypeImpl@@UBEHABVString@@H@Z 10019ee0 f   colorer_lib:FileTypeImpl.cpp.obj
 0001:00018f20       ?getParamDefaultValue@FileTypeImpl@@UBEPBVString@@ABV2@@Z 10019f20 f   colorer_lib:FileTypeImpl.cpp.obj
 0001:00019060       ?getParamUserValue@FileTypeImpl@@QBEPBVString@@ABV2@@Z 1001a060 f   colorer_lib:FileTypeImpl.cpp.obj
 0001:000191a0       ?addParam@FileTypeImpl@@QAEPAVTypeParameter@@PBVString@@@Z 1001a1a0 f   colorer_lib:FileTypeImpl.cpp.obj
 0001:00019350       ?setParamValue@FileTypeImpl@@UAEXABVString@@PBV2@@Z 1001a350 f   colorer_lib:FileTypeImpl.cpp.obj
 0001:000194e0       ?setParamDefaultValue@FileTypeImpl@@QAEXABVString@@PBV2@@Z 1001a4e0 f   colorer_lib:FileTypeImpl.cpp.obj
 0001:00019670       ?setParamDescription@FileTypeImpl@@QAEXABVString@@PBV2@@Z 1001a670 f   colorer_lib:FileTypeImpl.cpp.obj
 0001:00019800       ??1?$list@U?$pair@$$CBVSString@@PAVString@@@std@@V?$allocator@U?$pair@$$CBVSString@@PAVString@@@std@@@2@@std@@QAE@XZ 1001a800 f i colorer_lib:HRCParserImpl.cpp.obj
 0001:00019800       ??1?$list@U?$pair@$$CBVSString@@PAVRegionDefine@@@std@@V?$allocator@U?$pair@$$CBVSString@@PAVRegionDefine@@@std@@@2@@std@@QAE@XZ 1001a800 f i colorer_lib:StyledHRDMapper.cpp.obj
 0001:00019800       ??1?$list@U?$pair@$$CBVSString@@PAVTypeParameter@@@std@@V?$allocator@U?$pair@$$CBVSString@@PAVTypeParameter@@@std@@@2@@std@@QAE@XZ 1001a800 f i colorer_lib:FileTypeImpl.cpp.obj
 0001:00019800       ??1?$list@U?$pair@$$CBVSString@@PAVSchemeImpl@@@std@@V?$allocator@U?$pair@$$CBVSString@@PAVSchemeImpl@@@std@@@2@@std@@QAE@XZ 1001a800 f i colorer_lib:HRCParserImpl.cpp.obj
 0001:00019800       ??1?$list@U?$pair@$$CBVSString@@PAVFileTypeImpl@@@std@@V?$allocator@U?$pair@$$CBVSString@@PAVFileTypeImpl@@@std@@@2@@std@@QAE@XZ 1001a800 f i colorer_lib:HRCParserImpl.cpp.obj
 0001:00019800       ??1?$list@U?$pair@$$CBVSString@@PAVSharedInputSource@@@std@@V?$allocator@U?$pair@$$CBVSString@@PAVSharedInputSource@@@std@@@2@@std@@QAE@XZ 1001a800 f i colorer_lib:SharedInputSource.cpp.obj
 0001:00019800       ??1?$list@U?$pair@$$CBVSString@@PAVSharedXmlInputSource@@@std@@V?$allocator@U?$pair@$$CBVSString@@PAVSharedXmlInputSource@@@std@@@2@@std@@QAE@XZ 1001a800 f i colorer_lib:SharedXmlInputSource.cpp.obj
 0001:00019820       ?clear@?$list@U?$pair@$$CBVSString@@PAVString@@@std@@V?$allocator@U?$pair@$$CBVSString@@PAVString@@@std@@@2@@std@@QAEXXZ 1001a820 f i colorer_lib:HRCParserImpl.cpp.obj
 0001:00019820       ?clear@?$list@U?$pair@$$CBVSString@@PAVSchemeImpl@@@std@@V?$allocator@U?$pair@$$CBVSString@@PAVSchemeImpl@@@std@@@2@@std@@QAEXXZ 1001a820 f i colorer_lib:HRCParserImpl.cpp.obj
 0001:00019820       ?clear@?$list@U?$pair@$$CBVSString@@PAVSharedXmlInputSource@@@std@@V?$allocator@U?$pair@$$CBVSString@@PAVSharedXmlInputSource@@@std@@@2@@std@@QAEXXZ 1001a820 f i colorer_lib:SharedXmlInputSource.cpp.obj
 0001:00019820       ?clear@?$list@U?$pair@$$CBVSString@@PAVSharedInputSource@@@std@@V?$allocator@U?$pair@$$CBVSString@@PAVSharedInputSource@@@std@@@2@@std@@QAEXXZ 1001a820 f i colorer_lib:SharedInputSource.cpp.obj
 0001:00019820       ?clear@?$list@U?$pair@$$CBVSString@@PAVFileTypeImpl@@@std@@V?$allocator@U?$pair@$$CBVSString@@PAVFileTypeImpl@@@std@@@2@@std@@QAEXXZ 1001a820 f i colorer_lib:HRCParserImpl.cpp.obj
 0001:00019820       ?clear@?$list@U?$pair@$$CBVSString@@PAVRegionDefine@@@std@@V?$allocator@U?$pair@$$CBVSString@@PAVRegionDefine@@@std@@@2@@std@@QAEXXZ 1001a820 f i colorer_lib:StyledHRDMapper.cpp.obj
 0001:00019820       ?clear@?$list@U?$pair@$$CBVSString@@PAVTypeParameter@@@std@@V?$allocator@U?$pair@$$CBVSString@@PAVTypeParameter@@@std@@@2@@std@@QAEXXZ 1001a820 f i colorer_lib:FileTypeImpl.cpp.obj
 0001:000198e0       ?erase@?$_Hash@V?$_Umap_traits@VSString@@PAVFileTypeImpl@@V?$_Uhash_compare@VSString@@U?$hash@VSString@@@std@@U?$equal_to@VSString@@@3@@std@@V?$allocator@U?$pair@$$CBVSString@@PAVFileTypeImpl@@@std@@@4@$0A@@std@@@std@@QAE?AV?$_List_iterator@V?$_List_val@U?$_List_simple_types@U?$pair@$$CBVSString@@PAVFileTypeImpl@@@std@@@std@@@std@@@2@V?$_List_const_iterator@V?$_List_val@U?$_List_simple_types@U?$pair@$$CBVSString@@PAVFileTypeImpl@@@std@@@std@@@std@@@2@@Z 1001a8e0 f i colorer_lib:HRCParserImpl.cpp.obj
 0001:000198e0       ?erase@?$_Hash@V?$_Umap_traits@VSString@@PAVSharedXmlInputSource@@V?$_Uhash_compare@VSString@@U?$hash@VSString@@@std@@U?$equal_to@VSString@@@3@@std@@V?$allocator@U?$pair@$$CBVSString@@PAVSharedXmlInputSource@@@std@@@4@$0A@@std@@@std@@QAE?AV?$_List_iterator@V?$_List_val@U?$_List_simple_types@U?$pair@$$CBVSString@@PAVSharedXmlInputSource@@@std@@@std@@@std@@@2@V?$_List_const_iterator@V?$_List_val@U?$_List_simple_types@U?$pair@$$CBVSString@@PAVSharedXmlInputSource@@@std@@@std@@@std@@@2@@Z 1001a8e0 f i colorer_lib:SharedXmlInputSource.cpp.obj
 0001:000198e0       ?erase@?$_Hash@V?$_Umap_traits@VSString@@PAVTypeParameter@@V?$_Uhash_compare@VSString@@U?$hash@VSString@@@std@@U?$equal_to@VSString@@@3@@std@@V?$allocator@U?$pair@$$CBVSString@@PAVTypeParameter@@@std@@@4@$0A@@std@@@std@@QAE?AV?$_List_iterator@V?$_List_val@U?$_List_simple_types@U?$pair@$$CBVSString@@PAVTypeParameter@@@std@@@std@@@std@@@2@V?$_List_const_iterator@V?$_List_val@U?$_List_simple_types@U?$pair@$$CBVSString@@PAVTypeParameter@@@std@@@std@@@std@@@2@@Z 1001a8e0 f i colorer_lib:FileTypeImpl.cpp.obj
 0001:000198e0       ?erase@?$_Hash@V?$_Umap_traits@VSString@@PAVSharedInputSource@@V?$_Uhash_compare@VSString@@U?$hash@VSString@@@std@@U?$equal_to@VSString@@@3@@std@@V?$allocator@U?$pair@$$CBVSString@@PAVSharedInputSource@@@std@@@4@$0A@@std@@@std@@QAE?AV?$_List_iterator@V?$_List_val@U?$_List_simple_types@U?$pair@$$CBVSString@@PAVSharedInputSource@@@std@@@std@@@std@@@2@V?$_List_const_iterator@V?$_List_val@U?$_List_simple_types@U?$pair@$$CBVSString@@PAVSharedInputSource@@@std@@@std@@@std@@@2@@Z 1001a8e0 f i colorer_lib:SharedInputSource.cpp.obj
 0001:00019960       ??$_Insert@AAU?$pair@$$CBVSString@@PAVSharedInputSource@@@std@@V?$_List_unchecked_iterator@V?$_List_val@U?$_List_simple_types@U?$pair@$$CBVSString@@PAVSharedInputSource@@@std@@@std@@@std@@@2@@?$_Hash@V?$_Umap_traits@VSString@@PAVSharedInputSource@@V?$_Uhash_compare@VSString@@U?$hash@VSString@@@std@@U?$equal_to@VSString@@@3@@std@@V?$allocator@U?$pair@$$CBVSString@@PAVSharedInputSource@@@std@@@4@$0A@@std@@@std@@IAE?AU?$pair@V?$_List_iterator@V?$_List_val@U?$_List_simple_types@U?$pair@$$CBVSString@@PAVSharedInputSource@@@std@@@std@@@std@@@std@@_N@1@AAU?$pair@$$CBVSString@@PAVSharedInputSource@@@1@V?$_List_unchecked_iterator@V?$_List_val@U?$_List_simple_types@U?$pair@$$CBVSString@@PAVSharedInputSource@@@std@@@std@@@std@@@1@@Z 1001a960 f i colorer_lib:SharedInputSource.cpp.obj
 0001:00019960       ??$_Insert@AAU?$pair@$$CBVSString@@PAVSharedXmlInputSource@@@std@@V?$_List_unchecked_iterator@V?$_List_val@U?$_List_simple_types@U?$pair@$$CBVSString@@PAVSharedXmlInputSource@@@std@@@std@@@std@@@2@@?$_Hash@V?$_Umap_traits@VSString@@PAVSharedXmlInputSource@@V?$_Uhash_compare@VSString@@U?$hash@VSString@@@std@@U?$equal_to@VSString@@@3@@std@@V?$allocator@U?$pair@$$CBVSString@@PAVSharedXmlInputSource@@@std@@@4@$0A@@std@@@std@@IAE?AU?$pair@V?$_List_iterator@V?$_List_val@U?$_List_simple_types@U?$pair@$$CBVSString@@PAVSharedXmlInputSource@@@std@@@std@@@std@@@std@@_N@1@AAU?$pair@$$CBVSString@@PAVSharedXmlInputSource@@@1@V?$_List_unchecked_iterator@V?$_List_val@U?$_List_simple_types@U?$pair@$$CBVSString@@PAVSharedXmlInputSource@@@std@@@std@@@std@@@1@@Z 1001a960 f i colorer_lib:SharedXmlInputSource.cpp.obj
 0001:00019960       ??$_Insert@AAU?$pair@$$CBVSString@@PAVTypeParameter@@@std@@V?$_List_unchecked_iterator@V?$_List_val@U?$_List_simple_types@U?$pair@$$CBVSString@@PAVTypeParameter@@@std@@@std@@@std@@@2@@?$_Hash@V?$_Umap_traits@VSString@@PAVTypeParameter@@V?$_Uhash_compare@VSString@@U?$hash@VSString@@@std@@U?$equal_to@VSString@@@3@@std@@V?$allocator@U?$pair@$$CBVSString@@PAVTypeParameter@@@std@@@4@$0A@@std@@@std@@IAE?AU?$pair@V?$_List_iterator@V?$_List_val@U?$_List_simple_types@U?$pair@$$CBVSString@@PAVTypeParameter@@@std@@@std@@@std@@@std@@_N@1@AAU?$pair@$$CBVSString@@PAVTypeParameter@@@1@V?$_List_unchecked_iterator@V?$_List_val@U?$_List_simple_types@U?$pair@$$CBVSString@@PAVTypeParameter@@@std@@@std@@@std@@@1@@Z 1001a960 f i colorer_lib:FileTypeImpl.cpp.obj
 0001:00019b60       ??$erase@V?$_List_iterator@V?$_List_val@U?$_List_simple_types@U?$pair@$$CBVSString@@PAVSharedInputSource@@@std@@@std@@@std@@@std@@X@?$_Hash@V?$_Umap_traits@VSString@@PAVSharedInputSource@@V?$_Uhash_compare@VSString@@U?$hash@VSString@@@std@@U?$equal_to@VSString@@@3@@std@@V?$allocator@U?$pair@$$CBVSString@@PAVSharedInputSource@@@std@@@4@$0A@@std@@@std@@QAE?AV?$_List_iterator@V?$_List_val@U?$_List_simple_types@U?$pair@$$CBVSString@@PAVSharedInputSource@@@std@@@std@@@std@@@1@V21@@Z 1001ab60 f i colorer_lib:SharedInputSource.cpp.obj
 0001:00019b60       ??$erase@V?$_List_iterator@V?$_List_val@U?$_List_simple_types@U?$pair@$$CBVSString@@PAVSharedXmlInputSource@@@std@@@std@@@std@@@std@@X@?$_Hash@V?$_Umap_traits@VSString@@PAVSharedXmlInputSource@@V?$_Uhash_compare@VSString@@U?$hash@VSString@@@std@@U?$equal_to@VSString@@@3@@std@@V?$allocator@U?$pair@$$CBVSString@@PAVSharedXmlInputSource@@@std@@@4@$0A@@std@@@std@@QAE?AV?$_List_iterator@V?$_List_val@U?$_List_simple_types@U?$pair@$$CBVSString@@PAVSharedXmlInputSource@@@std@@@std@@@std@@@1@V21@@Z 1001ab60 f i colorer_lib:SharedXmlInputSource.cpp.obj
 0001:00019b60       ??$erase@V?$_List_iterator@V?$_List_val@U?$_List_simple_types@U?$pair@$$CBVSString@@PAVTypeParameter@@@std@@@std@@@std@@@std@@X@?$_Hash@V?$_Umap_traits@VSString@@PAVTypeParameter@@V?$_Uhash_compare@VSString@@U?$hash@VSString@@@std@@U?$equal_to@VSString@@@3@@std@@V?$allocator@U?$pair@$$CBVSString@@PAVTypeParameter@@@std@@@4@$0A@@std@@@std@@QAE?AV?$_List_iterator@V?$_List_val@U?$_List_simple_types@U?$pair@$$CBVSString@@PAVTypeParameter@@@std@@@std@@@std@@@1@V21@@Z 1001ab60 f i colorer_lib:FileTypeImpl.cpp.obj
 0001:00019b60       ??$erase@V?$_List_iterator@V?$_List_val@U?$_List_simple_types@U?$pair@$$CBVSString@@PAVFileTypeImpl@@@std@@@std@@@std@@@std@@X@?$_Hash@V?$_Umap_traits@VSString@@PAVFileTypeImpl@@V?$_Uhash_compare@VSString@@U?$hash@VSString@@@std@@U?$equal_to@VSString@@@3@@std@@V?$allocator@U?$pair@$$CBVSString@@PAVFileTypeImpl@@@std@@@4@$0A@@std@@@std@@QAE?AV?$_List_iterator@V?$_List_val@U?$_List_simple_types@U?$pair@$$CBVSString@@PAVFileTypeImpl@@@std@@@std@@@std@@@1@V21@@Z 1001ab60 f i colorer_lib:HRCParserImpl.cpp.obj
 0001:00019b80       ??0UnsupportedEncodingException@@QAE@ABVString@@@Z 1001ab80 f   colorer_lib:Encodings.cpp.obj
 0001:00019c80       ?getEncodingIndex@Encodings@@SAHPBD@Z 1001ac80 f   colorer_lib:Encodings.cpp.obj
 0001:00019cc0       ?toBytes@Encodings@@SAHH_WPAE@Z 1001acc0 f   colorer_lib:Encodings.cpp.obj
 0001:00019e40       ?warning@XmlParserErrorHandler@@UAEXABVSAXParseException@xercesc_3_1@@@Z 1001ae40 f   colorer_lib:XmlParserErrorHandler.cpp.obj
 0001:0001a170       ?error@XmlParserErrorHandler@@UAEXABVSAXParseException@xercesc_3_1@@@Z 1001b170 f   colorer_lib:XmlParserErrorHandler.cpp.obj
 0001:0001a4a0       ?fatalError@XmlParserErrorHandler@@UAEXABVSAXParseException@xercesc_3_1@@@Z 1001b4a0 f   colorer_lib:XmlParserErrorHandler.cpp.obj
 0001:0001a7d0       ?hasParent@Region@@QBE_NPBV1@@Z 1001b7d0 f i colorer_lib:BaseEditor.cpp.obj
 0001:0001a810       ?normalizeContent@AbstractStringValidator@xercesc_3_1@@MBEXQA_WQAVMemoryManager@2@@Z 1001b810 f i xerces-c_3_1:AbstractStringValidator.cpp.obj
 0001:0001a810       ?checkValueSpace@StringDatatypeValidator@xercesc_3_1@@MAEXQB_WQAVMemoryManager@2@@Z 1001b810 f i xerces-c_3_1:StringDatatypeValidator.cpp.obj
 0001:0001a810       ?checkValueSpace@ListDatatypeValidator@xercesc_3_1@@MAEXQB_WQAVMemoryManager@2@@Z 1001b810 f i xerces-c_3_1:ListDatatypeValidator.cpp.obj
 0001:0001a810       ?checkAdditionalFacet@AbstractStringValidator@xercesc_3_1@@MBEXQB_WQAVMemoryManager@2@@Z 1001b810 f i xerces-c_3_1:AbstractStringValidator.cpp.obj
 0001:0001a810       ?clearLine@RegionHandler@@UAEXIPAVString@@@Z 1001b810 f i colorer_lib:BaseEditor.cpp.obj
 0001:0001a820       ??1RegionHandler@@MAE@XZ   1001b820 f i colorer_lib:BaseEditor.cpp.obj
 0001:0001a830       ??_ERegionHandler@@MAEPAXI@Z 1001b830 f i * CIL library *:* CIL module *
 0001:0001a830       ??_GRegionHandler@@MAEPAXI@Z 1001b830 f i colorer_lib:BaseEditor.cpp.obj
 0001:0001a860       ?setEnd@PairMatch@@QAEXPAVLineRegion@@@Z 1001b860 f i colorer_lib:BaseEditor.cpp.obj
 0001:0001a920       ??_GPairMatch@@UAEPAXI@Z   1001b920 f i colorer_lib:BaseEditor.cpp.obj
 0001:0001a920       ??_EPairMatch@@UAEPAXI@Z   1001b920 f i * CIL library *:* CIL module *
 0001:0001a990       ??0BaseEditor@@QAE@PAVParserFactory@@PAVLineSource@@@Z 1001b990 f   colorer_lib:BaseEditor.cpp.obj
 0001:0001ae60       ??_GBaseEditor@@UAEPAXI@Z  1001be60 f i colorer_lib:BaseEditor.cpp.obj
 0001:0001ae60       ??_EBaseEditor@@UAEPAXI@Z  1001be60 f i * CIL library *:* CIL module *
 0001:0001ae80       ??1BaseEditor@@UAE@XZ      1001be80 f   colorer_lib:BaseEditor.cpp.obj
 0001:0001afb0       ?remapLRS@BaseEditor@@AAEX_N@Z 1001bfb0 f   colorer_lib:BaseEditor.cpp.obj
 0001:0001b1d0       ?setFileType@BaseEditor@@QAEXPAVFileType@@@Z 1001c1d0 f   colorer_lib:BaseEditor.cpp.obj
 0001:0001b270       ?chooseFileTypeCh@BaseEditor@@AAEPAVFileType@@PBVString@@HH@Z 1001c270 f   colorer_lib:BaseEditor.cpp.obj
 0001:0001b5b0       ?chooseFileType@BaseEditor@@QAEPAVFileType@@PBVString@@@Z 1001c5b0 f   colorer_lib:BaseEditor.cpp.obj
 0001:0001b760       ?getPairMatch@BaseEditor@@AAEPAVPairMatch@@HH@Z 1001c760 f   colorer_lib:BaseEditor.cpp.obj
 0001:0001b960       ?searchLocalPair@BaseEditor@@QAEPAVPairMatch@@HH@Z 1001c960 f   colorer_lib:BaseEditor.cpp.obj
 0001:0001bb20       ?searchGlobalPair@BaseEditor@@QAEPAVPairMatch@@HH@Z 1001cb20 f   colorer_lib:BaseEditor.cpp.obj
 0001:0001bcc0       ?getLineRegions@BaseEditor@@QAEPAVLineRegion@@H@Z 1001ccc0 f   colorer_lib:BaseEditor.cpp.obj
 0001:0001bd40       ?validate@BaseEditor@@QAEXH_N@Z 1001cd40 f   colorer_lib:BaseEditor.cpp.obj
 0001:0001be80       ?startParsing@BaseEditor@@UAEXI@Z 1001ce80 f   colorer_lib:BaseEditor.cpp.obj
 0001:0001bf70       ?endParsing@BaseEditor@@UAEXI@Z 1001cf70 f   colorer_lib:BaseEditor.cpp.obj
 0001:0001bfe0       ?clearLine@BaseEditor@@UAEXIPAVString@@@Z 1001cfe0 f   colorer_lib:BaseEditor.cpp.obj
 0001:0001c180       ?addRegion@BaseEditor@@UAEXIPAVString@@HHPBVRegion@@@Z 1001d180 f   colorer_lib:BaseEditor.cpp.obj
 0001:0001c2f0       ?enterScheme@BaseEditor@@UAEXIPAVString@@HHPBVRegion@@PBVScheme@@@Z 1001d2f0 f   colorer_lib:BaseEditor.cpp.obj
 0001:0001c380       ?leaveScheme@BaseEditor@@UAEXIPAVString@@HHPBVRegion@@PBVScheme@@@Z 1001d380 f   colorer_lib:BaseEditor.cpp.obj
 0001:0001c510       ?newInstance@XmlInputSource@@SAPAV1@PB_WPAV1@@Z 1001d510 f   colorer_lib:XmlInputSource.cpp.obj
 0001:0001c6f0       ??0InputSourceException@@QAE@ABV0@@Z 1001d6f0 f i colorer_lib:XmlInputSource.cpp.obj
 0001:0001c710       ?newInstance@XmlInputSource@@SAPAV1@PB_W0@Z 1001d710 f   colorer_lib:XmlInputSource.cpp.obj
 0001:0001c980       ??4RegionDefine@@UAEAAV0@ABV0@@Z 1001d980 f i colorer_lib:StyledHRDMapper.cpp.obj
 0001:0001c9a0       ??1RegionDefine@@UAE@XZ    1001d9a0 f i colorer_lib:StyledHRDMapper.cpp.obj
 0001:0001c9b0       ??_ERegionDefine@@UAEPAXI@Z 1001d9b0 f i * CIL library *:* CIL module *
 0001:0001c9b0       ??_GRegionDefine@@UAEPAXI@Z 1001d9b0 f i colorer_lib:StyledHRDMapper.cpp.obj
 0001:0001c9e0       ??1RegionMapper@@UAE@XZ    1001d9e0 f i colorer_lib:StyledHRDMapper.cpp.obj
 0001:0001c9f0       ??_GRegionMapper@@UAEPAXI@Z 1001d9f0 f i colorer_lib:StyledHRDMapper.cpp.obj
 0001:0001c9f0       ??_ERegionMapper@@UAEPAXI@Z 1001d9f0 f i * CIL library *:* CIL module *
 0001:0001ca20       ??0RegionMapperImpl@@QAE@XZ 1001da20 f i colorer_lib:StyledHRDMapper.cpp.obj
 0001:0001cad0       ??1RegionMapperImpl@@UAE@XZ 1001dad0 f i colorer_lib:StyledHRDMapper.cpp.obj
 0001:0001cb40       ??_ERegionMapperImpl@@UAEPAXI@Z 1001db40 f i * CIL library *:* CIL module *
 0001:0001cb40       ??_GRegionMapperImpl@@UAEPAXI@Z 1001db40 f i colorer_lib:StyledHRDMapper.cpp.obj
 0001:0001cb60       ?assignParent@StyledRegion@@UAEXPBVRegionDefine@@@Z 1001db60 f i colorer_lib:StyledHRDMapper.cpp.obj
 0001:0001cba0       ?setValues@StyledRegion@@UAEXPBVRegionDefine@@@Z 1001dba0 f i colorer_lib:StyledHRDMapper.cpp.obj
 0001:0001cbe0       ?clone@StyledRegion@@UBEPAVRegionDefine@@XZ 1001dbe0 f i colorer_lib:StyledHRDMapper.cpp.obj
 0001:0001cc80       ??_EStyledRegion@@UAEPAXI@Z 1001dc80 f i * CIL library *:* CIL module *
 0001:0001cc80       ??_GStyledRegion@@UAEPAXI@Z 1001dc80 f i colorer_lib:StyledHRDMapper.cpp.obj
 0001:0001ccb0       ??_EStyledHRDMapper@@UAEPAXI@Z 1001dcb0 f i * CIL library *:* CIL module *
 0001:0001ccb0       ??_GStyledHRDMapper@@UAEPAXI@Z 1001dcb0 f i colorer_lib:StyledHRDMapper.cpp.obj
 0001:0001cd40       ?loadRegionMappings@StyledHRDMapper@@UAEXPAVXmlInputSource@@PAVErrorHandler@colorer@@@Z 1001dd40 f   colorer_lib:StyledHRDMapper.cpp.obj
 0001:0001d3b0       ?saveRegionMappings@StyledHRDMapper@@UBEXPAVWriter@@@Z 1001e3b0 f   colorer_lib:StyledHRDMapper.cpp.obj
 0001:0001dab0       ?setRegionDefine@StyledHRDMapper@@UAEXABVString@@PBVRegionDefine@@@Z 1001eab0 f   colorer_lib:StyledHRDMapper.cpp.obj
 0001:0001dd50       ?at@?$vector@PBVRegionDefine@@V?$allocator@PBVRegionDefine@@@std@@@std@@QAEAAPBVRegionDefine@@I@Z 1001ed50 f i colorer_lib:StyledHRDMapper.cpp.obj
 0001:0001dd70       ??$?0AAPBVString@@AAPAVRegionDefine@@$0A@@?$pair@VSString@@PAVRegionDefine@@@std@@QAE@AAPBVString@@AAPAVRegionDefine@@@Z 1001ed70 f i colorer_lib:StyledHRDMapper.cpp.obj
 0001:0001dde0       ??$emplace@AAU?$pair@VSString@@PAVRegionDefine@@@std@@@?$_Hash@V?$_Umap_traits@VSString@@PAVRegionDefine@@V?$_Uhash_compare@VSString@@U?$hash@VSString@@@std@@U?$equal_to@VSString@@@3@@std@@V?$allocator@U?$pair@$$CBVSString@@PAVRegionDefine@@@std@@@4@$0A@@std@@@std@@QAE?AU?$pair@V?$_List_iterator@V?$_List_val@U?$_List_simple_types@U?$pair@$$CBVSString@@PAVRegionDefine@@@std@@@std@@@std@@@std@@_N@1@AAU?$pair@VSString@@PAVRegionDefine@@@1@@Z 1001ede0 f i colorer_lib:StyledHRDMapper.cpp.obj
 0001:0001de40       __vfprintf_l               1001ee40 f i colorer_lib:Logging.cpp.obj
 0001:0001de70       _fprintf                   1001ee70 f i colorer_lib:Logging.cpp.obj
 0001:0001de90       ?toLowerCase@Character@@SA_W_W@Z 1001ee90 f   colorer_lib:Character.cpp.obj
 0001:0001dee0       ?toUpperCase@Character@@SA_W_W@Z 1001eee0 f   colorer_lib:Character.cpp.obj
 0001:0001df30       ?isLetterOrDigit@Character@@SA_N_W@Z 1001ef30 f   colorer_lib:Character.cpp.obj
 0001:0001df60       ?isDigit@Character@@SA_N_W@Z 1001ef60 f   colorer_lib:Character.cpp.obj
 0001:0001df90       ?isWhitespace@Character@@SA_N_W@Z 1001ef90 f   colorer_lib:Character.cpp.obj
 0001:0001dfe0       ??0Outliner@@QAE@PAVBaseEditor@@PBVRegion@@@Z 1001efe0 f   colorer_lib:Outliner.cpp.obj
 0001:0001e0a0       ??_GOutliner@@UAEPAXI@Z    1001f0a0 f i colorer_lib:Outliner.cpp.obj
 0001:0001e0a0       ??_EOutliner@@UAEPAXI@Z    1001f0a0 f i * CIL library *:* CIL module *
 0001:0001e0c0       ??1Outliner@@UAE@XZ        1001f0c0 f   colorer_lib:Outliner.cpp.obj
 0001:0001e1c0       ?modifyEvent@Outliner@@UAEXI@Z 1001f1c0 f   colorer_lib:Outliner.cpp.obj
 0001:0001e220       ?startParsing@Outliner@@UAEXI@Z 1001f220 f   colorer_lib:Outliner.cpp.obj
 0001:0001e230       ?endParsing@Outliner@@UAEXI@Z 1001f230 f   colorer_lib:Outliner.cpp.obj
 0001:0001e250       ?clearLine@Outliner@@UAEXIPAVString@@@Z 1001f250 f   colorer_lib:Outliner.cpp.obj
 0001:0001e260       ?addRegion@Outliner@@UAEXIPAVString@@HHPBVRegion@@@Z 1001f260 f   colorer_lib:Outliner.cpp.obj
 0001:0001e420       ?enterScheme@Outliner@@UAEXIPAVString@@HHPBVRegion@@PBVScheme@@@Z 1001f420 f   colorer_lib:Outliner.cpp.obj
 0001:0001e430       ?leaveScheme@Outliner@@UAEXIPAVString@@HHPBVRegion@@PBVScheme@@@Z 1001f430 f   colorer_lib:Outliner.cpp.obj
 0001:0001f9d0       _dlmalloc                  100209d0 f   colorer_lib:dlmalloc.c.obj
 0001:0001fc90       _dlfree                    10020c90 f   colorer_lib:dlmalloc.c.obj
 0001:00020340       ??3KeywordList@@SAXPAX@Z   10021340 f i colorer_lib:HRCParserImpl.cpp.obj
 0001:00020340       ??3SchemeNode@@SAXPAX@Z    10021340 f i colorer_lib:HRCParserImpl.cpp.obj
 0001:00020340       ??3CharacterClass@@SAXPAX@Z 10021340 f i colorer_lib:cregexp.cpp.obj
 0001:00020340       ??3VirtualEntry@@SAXPAX@Z  10021340 f i colorer_lib:HRCParserImpl.cpp.obj
 0001:00020340       ??3SchemeImpl@@SAXPAX@Z    10021340 f i colorer_lib:HRCParserImpl.cpp.obj
 0001:00020370       ??0SRegInfo@@QAE@XZ        10021370 f   colorer_lib:cregexp.cpp.obj
 0001:000203b0       ??_GSRegInfo@@QAEPAXI@Z    100213b0 f i colorer_lib:cregexp.cpp.obj
 0001:00020440       ??_GCharacterClass@@QAEPAXI@Z 10021440 f i colorer_lib:cregexp.cpp.obj
 0001:000204a0       ?setRELow@CRegExp@@AAE?AW4EError@@ABVString@@@Z 100214a0 f   colorer_lib:cregexp.cpp.obj
 0001:000208a0       ?setStructs@CRegExp@@AAE?AW4EError@@AAPAVSRegInfo@@ABVString@@AAH@Z 100218a0 f   colorer_lib:cregexp.cpp.obj
 0001:00021a20       ?isWordBoundary@CRegExp@@AAE_NAAH@Z 10022a20 f   colorer_lib:cregexp.cpp.obj
 0001:00021af0       ?checkMetaSymbol@CRegExp@@AAE_NW4EMetaSymbols@@AAH@Z 10022af0 f   colorer_lib:cregexp.cpp.obj
 0001:00022030       ?check_stack@CRegExp@@AAEX_NPAPAVSRegInfo@@1PAHPA_N2@Z 10023030 f   colorer_lib:cregexp.cpp.obj
 0001:000220a0       ?insert_stack@CRegExp@@AAEXPAPAVSRegInfo@@0PAHPA_NHH00H@Z 100230a0 f   colorer_lib:cregexp.cpp.obj
 0001:000221f0       ?lowParse@CRegExp@@AAE_NPAVSRegInfo@@0H@Z 100231f0 f   colorer_lib:cregexp.cpp.obj
 0001:00022ea0       ?parseRE@CRegExp@@AAE_NH@Z 10023ea0 f i colorer_lib:cregexp.cpp.obj
 0001:00022fd0       ?getBracketNo@CRegExp@@QAEHPBVString@@@Z 10023fd0 f   colorer_lib:cregexp.cpp.obj
 0001:000231c0       ?resolveEntity@BaseEntityResolver@@UAEPAVInputSource@xercesc_3_1@@PAVXMLResourceIdentifier@3@@Z 100241c0 f   colorer_lib:BaseEntityResolver.cpp.obj
 0001:00023260       ??1TextParser@@UAE@XZ      10024260 f i colorer_lib:TextParserImpl.cpp.obj
 0001:00023270       ??_ETextParser@@UAEPAXI@Z  10024270 f i * CIL library *:* CIL module *
 0001:00023270       ??_GTextParser@@UAEPAXI@Z  10024270 f i colorer_lib:TextParserImpl.cpp.obj
 0001:000232a0       ??_GTextParserImpl@@UAEPAXI@Z 100242a0 f i colorer_lib:TextParserImpl.cpp.obj
 0001:000232a0       ??_ETextParserImpl@@UAEPAXI@Z 100242a0 f i * CIL library *:* CIL module *
 0001:000232e0       ??_GParseCache@@QAEPAXI@Z  100242e0 f i colorer_lib:TextParserImpl.cpp.obj
 0001:000233e0       ?setFileType@TextParserImpl@@UAEXPAVFileType@@@Z 100243e0 f   colorer_lib:TextParserImpl.cpp.obj
 0001:00023440       ?setLineSource@TextParserImpl@@UAEXPAVLineSource@@@Z 10024440 f   colorer_lib:TextParserImpl.cpp.obj
 0001:00023450       ?setRegionHandler@TextParserImpl@@UAEXPAVRegionHandler@@@Z 10024450 f   colorer_lib:TextParserImpl.cpp.obj
 0001:00023460       ?parse@TextParserImpl@@UAEHHHW4TextParseMode@@@Z 10024460 f   colorer_lib:TextParserImpl.cpp.obj
 0001:00023800       ??_GVTList@@QAEPAXI@Z      10024800 f i colorer_lib:TextParserImpl.cpp.obj
 0001:00023870       ?clearCache@TextParserImpl@@UAEXXZ 10024870 f   colorer_lib:TextParserImpl.cpp.obj
 0001:00023a00       ?breakParse@TextParserImpl@@UAEXXZ 10024a00 f   colorer_lib:TextParserImpl.cpp.obj
 0001:00023a10       ?leaveScheme@TextParserImpl@@AAEXHPAUSMatches@@PBVSchemeNode@@@Z 10024a10 f   colorer_lib:TextParserImpl.cpp.obj
 0001:00023b30       ?fillInvisibleSchemes@TextParserImpl@@AAEXPAVParseCache@@@Z 10024b30 f   colorer_lib:TextParserImpl.cpp.obj
 0001:00023b70       ?searchKW@TextParserImpl@@AAEHPBVSchemeNode@@HHH@Z 10024b70 f   colorer_lib:TextParserImpl.cpp.obj
 0001:00023f10       ?searchRE@TextParserImpl@@AAEHPAVSchemeImpl@@HHH@Z 10024f10 f   colorer_lib:TextParserImpl.cpp.obj
 0001:00024770       ?colorize@TextParserImpl@@AAE_NPAVCRegExp@@_N@Z 10025770 f   colorer_lib:TextParserImpl.cpp.obj
 0001:00024a40       ?getAbsolutePath@InputSource@colorer@@SAPAVString@@PBV3@0@Z 10025a40 f   colorer_lib:InputSource.cpp.obj
 0001:00024b10       ?newInstance@InputSource@colorer@@SAPAV12@PBVString@@PAV12@@Z 10025b10 f   colorer_lib:InputSource.cpp.obj
 0001:00024cb0       ?isRelative@InputSource@colorer@@SA_NPBVString@@@Z 10025cb0 f   colorer_lib:InputSource.cpp.obj
 0001:00024d00       _ceilf                     10025d00 f i colorer_lib:HRCParserImpl.cpp.obj
 0001:00024d30       ?getFilter@DOMTreeWalkerImpl@xercesc_3_1@@UAEPAVDOMNodeFilter@2@XZ 10025d30 f i xerces-c_3_1:DOMTreeWalkerImpl.cpp.obj
 0001:00024d30       ?getEncoding@DOMLSOutputImpl@xercesc_3_1@@UBEPB_WXZ 10025d30 f i xerces-c_3_1:DOMLSOutputImpl.cpp.obj
 0001:00024d30       ?getIdRefList@ValidationContextImpl@xercesc_3_1@@UBEPAV?$RefHashTableOf@VXMLRefInfo@xercesc_3_1@@UStringHasher@2@@2@XZ 10025d30 f i xerces-c_3_1:ValidationContextImpl.cpp.obj
 0001:00024d30       ?getByteStream@DOMLSInputImpl@xercesc_3_1@@UBEPAVInputSource@2@XZ 10025d30 f i xerces-c_3_1:DOMLSInputImpl.cpp.obj
 0001:00024d30       ?getEncodingName@XMLTranscoder@xercesc_3_1@@QBEPB_WXZ 10025d30 f i xerces-c_3_1:Win32TransService.cpp.obj
 0001:00024d30       ?getElement@ContentSpecNode@xercesc_3_1@@QBEPBVQName@2@XZ 10025d30 f i xerces-c_3_1:ContentSpecNode.cpp.obj
 0001:00024d30       ?getDescription@Region@@UBEPBVString@@XZ 10025d30 f i colorer_lib:HRCParserImpl.cpp.obj
 0001:00024d30       ?getGrammarKey@XMLDTDDescriptionImpl@xercesc_3_1@@UBEPB_WXZ 10025d30 f i xerces-c_3_1:XMLDTDDescriptionImpl.cpp.obj
 0001:00024d30       ?getContextType@XMLSchemaDescriptionImpl@xercesc_3_1@@UBE?AW4ContextType@XMLSchemaDescription@2@XZ 10025d30 f i xerces-c_3_1:XMLSchemaDescriptionImpl.cpp.obj
 0001:00024d30       ?getSystemId@XMLDTDDescriptionImpl@xercesc_3_1@@UBEPB_WXZ 10025d30 f i xerces-c_3_1:XMLDTDDescriptionImpl.cpp.obj
 0001:00024d30       ?getSeverity@DOMErrorImpl@xercesc_3_1@@UBE?AW4ErrorSeverity@DOMError@2@XZ 10025d30 f i xerces-c_3_1:DOMErrorImpl.cpp.obj
 0001:00024d30       ?getTotalDigit@XMLBigDecimal@xercesc_3_1@@QBEIXZ 10025d30 f i xerces-c_3_1:XMLBigDecimal.cpp.obj
 0001:00024d30       ?getEncoding@InputSource@xercesc_3_1@@UBEPB_WXZ 10025d30 f i colorer_lib:ZipXmlInputSource.cpp.obj
 0001:00024d40       ??_ERegion@@UAEPAXI@Z      10025d40 f i * CIL library *:* CIL module *
 0001:00024d40       ??_GRegion@@UAEPAXI@Z      10025d40 f i colorer_lib:HRCParserImpl.cpp.obj
 0001:00024d80       ??1Scheme@@MAE@XZ          10025d80 f i colorer_lib:HRCParserImpl.cpp.obj
 0001:00024d90       ??_GScheme@@MAEPAXI@Z      10025d90 f i colorer_lib:HRCParserImpl.cpp.obj
 0001:00024d90       ??_EScheme@@MAEPAXI@Z      10025d90 f i * CIL library *:* CIL module *
 0001:00024dc0       ??_ESchemeImpl@@MAEPAXI@Z  10025dc0 f i * CIL library *:* CIL module *
 0001:00024dc0       ??_GSchemeImpl@@MAEPAXI@Z  10025dc0 f i colorer_lib:HRCParserImpl.cpp.obj
 0001:00024ed0       ??0HRCParserException@@QAE@ABVString@@@Z 10025ed0 f i colorer_lib:HRCParserImpl.cpp.obj
 0001:00024fb0       ??1HRCParser@@UAE@XZ       10025fb0 f i colorer_lib:HRCParserImpl.cpp.obj
 0001:00024fc0       ??_GHRCParser@@UAEPAXI@Z   10025fc0 f i colorer_lib:HRCParserImpl.cpp.obj
 0001:00024fc0       ??_EHRCParser@@UAEPAXI@Z   10025fc0 f i * CIL library *:* CIL module *
 0001:00024ff0       ??0HRCParserImpl@@QAE@XZ   10025ff0 f   colorer_lib:HRCParserImpl.cpp.obj
 0001:00025510       ??_EHRCParserImpl@@UAEPAXI@Z 10026510 f i * CIL library *:* CIL module *
 0001:00025510       ??_GHRCParserImpl@@UAEPAXI@Z 10026510 f i colorer_lib:HRCParserImpl.cpp.obj
 0001:00025540       ??1?$unordered_map@VSString@@PAVSchemeImpl@@U?$hash@VSString@@@std@@U?$equal_to@VSString@@@4@V?$allocator@U?$pair@$$CBVSString@@PAVSchemeImpl@@@std@@@4@@std@@QAE@XZ 10026540 f i colorer_lib:HRCParserImpl.cpp.obj
 0001:00025540       ??1?$unordered_map@VSString@@PAVString@@U?$hash@VSString@@@std@@U?$equal_to@VSString@@@4@V?$allocator@U?$pair@$$CBVSString@@PAVString@@@std@@@4@@std@@QAE@XZ 10026540 f i colorer_lib:HRCParserImpl.cpp.obj
 0001:00025540       ??1?$unordered_map@VSString@@PAVFileTypeImpl@@U?$hash@VSString@@@std@@U?$equal_to@VSString@@@4@V?$allocator@U?$pair@$$CBVSString@@PAVFileTypeImpl@@@std@@@4@@std@@QAE@XZ 10026540 f i colorer_lib:HRCParserImpl.cpp.obj
 0001:00025550       ??1HRCParserImpl@@UAE@XZ   10026550 f   colorer_lib:HRCParserImpl.cpp.obj
 0001:00025740       ?setErrorHandler@HRCParserImpl@@UAEXPAVErrorHandler@colorer@@@Z 10026740 f   colorer_lib:HRCParserImpl.cpp.obj
 0001:00025750       ?loadSource@HRCParserImpl@@UAEXPAVXmlInputSource@@@Z 10026750 f   colorer_lib:HRCParserImpl.cpp.obj
 0001:000258b0       ?unloadFileType@HRCParserImpl@@IAEXPAVFileTypeImpl@@@Z 100268b0 f   colorer_lib:HRCParserImpl.cpp.obj
 0001:00025ae0       ?loadFileType@HRCParserImpl@@IAEXPAVFileType@@@Z 10026ae0 f   colorer_lib:HRCParserImpl.cpp.obj
 0001:00025f40       ?chooseFileType@HRCParserImpl@@UAEPAVFileType@@PBVString@@0H@Z 10026f40 f   colorer_lib:HRCParserImpl.cpp.obj
 0001:00026140       ?getFileType@HRCParserImpl@@UAEPAVFileType@@PBVString@@@Z 10027140 f   colorer_lib:HRCParserImpl.cpp.obj
 0001:00026230       ?enumerateFileTypes@HRCParserImpl@@UAEPAVFileType@@H@Z 10027230 f   colorer_lib:HRCParserImpl.cpp.obj
 0001:00026250       ?getFileTypesCount@HRCParserImpl@@UAEIXZ 10027250 f   colorer_lib:HRCParserImpl.cpp.obj
 0001:00026260       ?getRegionCount@HRCParserImpl@@UAEIXZ 10027260 f   colorer_lib:HRCParserImpl.cpp.obj
 0001:00026270       ?getRegion@HRCParserImpl@@UAEPBVRegion@@H@Z 10027270 f   colorer_lib:HRCParserImpl.cpp.obj
 0001:000262a0       ?getRegion@HRCParserImpl@@UAEPBVRegion@@PBVString@@@Z 100272a0 f   colorer_lib:HRCParserImpl.cpp.obj
 0001:000262c0       ?getVersion@HRCParserImpl@@UAEPBVString@@XZ 100272c0 f   colorer_lib:HRCParserImpl.cpp.obj
 0001:000262d0       ?parseHRC@HRCParserImpl@@IAEXPAVXmlInputSource@@@Z 100272d0 f   colorer_lib:HRCParserImpl.cpp.obj
 0001:00026630       ??0HRCParserException@@QAE@ABV0@@Z 10027630 f i colorer_lib:HRCParserImpl.cpp.obj
 0001:00026650       ?parseHrcBlock@HRCParserImpl@@IAEXPBVDOMElement@xercesc_3_1@@@Z 10027650 f   colorer_lib:HRCParserImpl.cpp.obj
 0001:000266e0       ?parseHrcBlockElements@HRCParserImpl@@IAEXPBVDOMElement@xercesc_3_1@@@Z 100276e0 f   colorer_lib:HRCParserImpl.cpp.obj
 0001:00026b20       ?addPrototype@HRCParserImpl@@IAEXPBVDOMElement@xercesc_3_1@@@Z 10027b20 f   colorer_lib:HRCParserImpl.cpp.obj
 0001:00027370       ?parsePrototypeBlock@HRCParserImpl@@IAEXPBVDOMElement@xercesc_3_1@@@Z 10028370 f   colorer_lib:HRCParserImpl.cpp.obj
 0001:00027560       ?addPrototypeLocation@HRCParserImpl@@IAEXPBVDOMElement@xercesc_3_1@@@Z 10028560 f   colorer_lib:HRCParserImpl.cpp.obj
 0001:00027720       ?addPrototypeDetectParam@HRCParserImpl@@IAEXPBVDOMElement@xercesc_3_1@@@Z 10028720 f   colorer_lib:HRCParserImpl.cpp.obj
 0001:00027c00       ?addPrototypeParameters@HRCParserImpl@@IAEXPBVDOMElement@xercesc_3_1@@@Z 10028c00 f   colorer_lib:HRCParserImpl.cpp.obj
 0001:00028170       ?addType@HRCParserImpl@@IAEXPBVDOMElement@xercesc_3_1@@@Z 10029170 f   colorer_lib:HRCParserImpl.cpp.obj
 0001:000286f0       ?parseTypeBlock@HRCParserImpl@@IAEXPBVDOMElement@xercesc_3_1@@@Z 100296f0 f   colorer_lib:HRCParserImpl.cpp.obj
 0001:00028930       ?addTypeRegion@HRCParserImpl@@IAEXPBVDOMElement@xercesc_3_1@@@Z 10029930 f   colorer_lib:HRCParserImpl.cpp.obj
 0001:00029080       ?addTypeEntity@HRCParserImpl@@IAEXPBVDOMElement@xercesc_3_1@@@Z 1002a080 f   colorer_lib:HRCParserImpl.cpp.obj
 0001:00029410       ?addTypeImport@HRCParserImpl@@IAEXPBVDOMElement@xercesc_3_1@@@Z 1002a410 f   colorer_lib:HRCParserImpl.cpp.obj
 0001:000297f0       ?addScheme@HRCParserImpl@@IAEXPBVDOMElement@xercesc_3_1@@@Z 1002a7f0 f   colorer_lib:HRCParserImpl.cpp.obj
 0001:0002a180       ?parseSchemeBlock@HRCParserImpl@@IAEXPAVSchemeImpl@@PBVDOMElement@xercesc_3_1@@@Z 1002b180 f   colorer_lib:HRCParserImpl.cpp.obj
 0001:0002a3d0       ?addSchemeInherit@HRCParserImpl@@IAEXPAVSchemeImpl@@PBVDOMElement@xercesc_3_1@@@Z 1002b3d0 f   colorer_lib:HRCParserImpl.cpp.obj
 0001:0002ac50       ?addSchemeRegexp@HRCParserImpl@@IAEXPAVSchemeImpl@@PBVDOMElement@xercesc_3_1@@@Z 1002bc50 f   colorer_lib:HRCParserImpl.cpp.obj
 0001:0002b360       ?addSchemeBlock@HRCParserImpl@@IAEXPAVSchemeImpl@@PBVDOMElement@xercesc_3_1@@@Z 1002c360 f   colorer_lib:HRCParserImpl.cpp.obj
 0001:0002c4a0       ?addSchemeKeywords@HRCParserImpl@@IAEXPAVSchemeImpl@@PBVDOMElement@xercesc_3_1@@@Z 1002d4a0 f   colorer_lib:HRCParserImpl.cpp.obj
 0001:0002cc40       ?addKeyword@HRCParserImpl@@IAEXPAVSchemeNode@@PBVRegion@@PBVDOMElement@xercesc_3_1@@@Z 1002dc40 f   colorer_lib:HRCParserImpl.cpp.obj
 0001:0002d090       ?getSchemeKeywordsCount@HRCParserImpl@@IAEHPBVDOMElement@xercesc_3_1@@@Z 1002e090 f   colorer_lib:HRCParserImpl.cpp.obj
 0001:0002d180       ?loadRegions@HRCParserImpl@@IAEXPAVSchemeNode@@PBVDOMElement@xercesc_3_1@@_N@Z 1002e180 f   colorer_lib:HRCParserImpl.cpp.obj
 0001:0002d430       ?loadBlockRegions@HRCParserImpl@@IAEXPAVSchemeNode@@PBVDOMElement@xercesc_3_1@@@Z 1002e430 f   colorer_lib:HRCParserImpl.cpp.obj
 0001:0002d680       ?updateLinks@HRCParserImpl@@IAEXXZ 1002e680 f   colorer_lib:HRCParserImpl.cpp.obj
 0001:0002e4c0       ?qualifyOwnName@HRCParserImpl@@IAEPAVString@@PBV2@@Z 1002f4c0 f   colorer_lib:HRCParserImpl.cpp.obj
 0001:0002e770       ?checkNameExist@HRCParserImpl@@IAE_NPBVString@@PAVFileTypeImpl@@W4QualifyNameType@1@_N@Z 1002f770 f   colorer_lib:HRCParserImpl.cpp.obj
 0001:0002ecf0       ?qualifyForeignName@HRCParserImpl@@IAEPAVString@@PBV2@W4QualifyNameType@1@_N@Z 1002fcf0 f   colorer_lib:HRCParserImpl.cpp.obj
 0001:0002f380       ?useEntities@HRCParserImpl@@IAEPAVString@@PBV2@@Z 10030380 f   colorer_lib:HRCParserImpl.cpp.obj
 0001:0002f6e0       ?getNCRegion@HRCParserImpl@@IAEPBVRegion@@PBVString@@_N@Z 100306e0 f   colorer_lib:HRCParserImpl.cpp.obj
 0001:0002f8a0       ?getNCRegion@HRCParserImpl@@IAEPBVRegion@@PBVDOMElement@xercesc_3_1@@ABVString@@@Z 100308a0 f   colorer_lib:HRCParserImpl.cpp.obj
 0001:0002f9d0       ?erase@?$_Hash@V?$_Umap_traits@VSString@@PAVFileTypeImpl@@V?$_Uhash_compare@VSString@@U?$hash@VSString@@@std@@U?$equal_to@VSString@@@3@@std@@V?$allocator@U?$pair@$$CBVSString@@PAVFileTypeImpl@@@std@@@4@$0A@@std@@@std@@QAEIABVSString@@@Z 100309d0 f i colorer_lib:HRCParserImpl.cpp.obj
 0001:0002fb80       ?_Reinsert@?$_Hash@V?$_Umap_traits@VSString@@PAVSchemeImpl@@V?$_Uhash_compare@VSString@@U?$hash@VSString@@@std@@U?$equal_to@VSString@@@3@@std@@V?$allocator@U?$pair@$$CBVSString@@PAVSchemeImpl@@@std@@@4@$0A@@std@@@std@@IAEXXZ 10030b80 f i colorer_lib:HRCParserImpl.cpp.obj
 0001:0002fb80       ?_Reinsert@?$_Hash@V?$_Umap_traits@VSString@@PBVRegion@@V?$_Uhash_compare@VSString@@U?$hash@VSString@@@std@@U?$equal_to@VSString@@@3@@std@@V?$allocator@U?$pair@$$CBVSString@@PBVRegion@@@std@@@4@$0A@@std@@@std@@IAEXXZ 10030b80 f i colorer_lib:HRCParserImpl.cpp.obj
 0001:0002fbc0       ?_Reallocate_exactly@?$vector@PBVRegion@@V?$allocator@PBVRegion@@@std@@@std@@AAEXI@Z 10030bc0 f i colorer_lib:HRCParserImpl.cpp.obj
 0001:0002fc00       ?_Reallocate_exactly@?$vector@PAVFileTypeImpl@@V?$allocator@PAVFileTypeImpl@@@std@@@std@@AAEXI@Z 10030c00 f i colorer_lib:HRCParserImpl.cpp.obj
 0001:0002fc40       ?_Reinsert@?$_Hash@V?$_Umap_traits@VSString@@PAVFileTypeImpl@@V?$_Uhash_compare@VSString@@U?$hash@VSString@@@std@@U?$equal_to@VSString@@@3@@std@@V?$allocator@U?$pair@$$CBVSString@@PAVFileTypeImpl@@@std@@@4@$0A@@std@@@std@@IAEXXZ 10030c40 f i colorer_lib:HRCParserImpl.cpp.obj
 0001:0002fc80       ?assign@?$vector@V?$_List_unchecked_iterator@V?$_List_val@U?$_List_simple_types@U?$pair@$$CBVSString@@H@std@@@std@@@std@@@std@@V?$allocator@V?$_List_unchecked_iterator@V?$_List_val@U?$_List_simple_types@U?$pair@$$CBVSString@@H@std@@@std@@@std@@@std@@@2@@std@@QAEXIABV?$_List_unchecked_iterator@V?$_List_val@U?$_List_simple_types@U?$pair@$$CBVSString@@H@std@@@std@@@std@@@2@@Z 10030c80 f i colorer_lib:HRCParserImpl.cpp.obj
 0001:0002fdf0       ?_Reallocate_exactly@?$vector@V?$_List_unchecked_iterator@V?$_List_val@U?$_List_simple_types@U?$pair@$$CBVSString@@H@std@@@std@@@std@@@std@@V?$allocator@V?$_List_unchecked_iterator@V?$_List_val@U?$_List_simple_types@U?$pair@$$CBVSString@@H@std@@@std@@@std@@@std@@@2@@std@@AAEXI@Z 10030df0 f i colorer_lib:HRCParserImpl.cpp.obj
 0001:0002fea0       ??$_Insert@AAU?$pair@$$CBVSString@@PBVRegion@@@std@@V?$_List_unchecked_iterator@V?$_List_val@U?$_List_simple_types@U?$pair@$$CBVSString@@PBVRegion@@@std@@@std@@@std@@@2@@?$_Hash@V?$_Umap_traits@VSString@@PBVRegion@@V?$_Uhash_compare@VSString@@U?$hash@VSString@@@std@@U?$equal_to@VSString@@@3@@std@@V?$allocator@U?$pair@$$CBVSString@@PBVRegion@@@std@@@4@$0A@@std@@@std@@IAE?AU?$pair@V?$_List_iterator@V?$_List_val@U?$_List_simple_types@U?$pair@$$CBVSString@@PBVRegion@@@std@@@std@@@std@@@std@@_N@1@AAU?$pair@$$CBVSString@@PBVRegion@@@1@V?$_List_unchecked_iterator@V?$_List_val@U?$_List_simple_types@U?$pair@$$CBVSString@@PBVRegion@@@std@@@std@@@std@@@1@@Z 10030ea0 f i colorer_lib:HRCParserImpl.cpp.obj
 0001:0002fea0       ??$_Insert@AAU?$pair@$$CBVSString@@PAVSchemeImpl@@@std@@V?$_List_unchecked_iterator@V?$_List_val@U?$_List_simple_types@U?$pair@$$CBVSString@@PAVSchemeImpl@@@std@@@std@@@std@@@2@@?$_Hash@V?$_Umap_traits@VSString@@PAVSchemeImpl@@V?$_Uhash_compare@VSString@@U?$hash@VSString@@@std@@U?$equal_to@VSString@@@3@@std@@V?$allocator@U?$pair@$$CBVSString@@PAVSchemeImpl@@@std@@@4@$0A@@std@@@std@@IAE?AU?$pair@V?$_List_iterator@V?$_List_val@U?$_List_simple_types@U?$pair@$$CBVSString@@PAVSchemeImpl@@@std@@@std@@@std@@@std@@_N@1@AAU?$pair@$$CBVSString@@PAVSchemeImpl@@@1@V?$_List_unchecked_iterator@V?$_List_val@U?$_List_simple_types@U?$pair@$$CBVSString@@PAVSchemeImpl@@@std@@@std@@@std@@@1@@Z 10030ea0 f i colorer_lib:HRCParserImpl.cpp.obj
 0001:00030080       ??$_Insert@AAU?$pair@$$CBVSString@@PAVFileTypeImpl@@@std@@V?$_List_unchecked_iterator@V?$_List_val@U?$_List_simple_types@U?$pair@$$CBVSString@@PAVFileTypeImpl@@@std@@@std@@@std@@@2@@?$_Hash@V?$_Umap_traits@VSString@@PAVFileTypeImpl@@V?$_Uhash_compare@VSString@@U?$hash@VSString@@@std@@U?$equal_to@VSString@@@3@@std@@V?$allocator@U?$pair@$$CBVSString@@PAVFileTypeImpl@@@std@@@4@$0A@@std@@@std@@IAE?AU?$pair@V?$_List_iterator@V?$_List_val@U?$_List_simple_types@U?$pair@$$CBVSString@@PAVFileTypeImpl@@@std@@@std@@@std@@@std@@_N@1@AAU?$pair@$$CBVSString@@PAVFileTypeImpl@@@1@V?$_List_unchecked_iterator@V?$_List_val@U?$_List_simple_types@U?$pair@$$CBVSString@@PAVFileTypeImpl@@@std@@@std@@@std@@@1@@Z 10031080 f i colorer_lib:HRCParserImpl.cpp.obj
 0001:00030260       ?_Buynode0@?$_List_alloc@U?$_List_base_types@U?$pair@$$CBVSString@@H@std@@V?$allocator@U?$pair@$$CBVSString@@H@std@@@2@@std@@@std@@QAEPAU?$_List_node@U?$pair@$$CBVSString@@H@std@@PAX@2@PAU32@0@Z 10031260 f i colorer_lib:HRCParserImpl.cpp.obj
 0001:00030280       ??_GErrorHandlerWriter@@UAEPAXI@Z 10031280 f i colorer_lib:ErrorHandlerWriter.cpp.obj
 0001:00030280       ??_EErrorHandlerWriter@@UAEPAXI@Z 10031280 f i * CIL library *:* CIL module *
 0001:00030410       ?error@ErrorHandlerWriter@@UAEXABVString@@@Z 10031410 f   colorer_lib:ErrorHandlerWriter.cpp.obj
 0001:00030530       ?fatalError@ErrorHandlerWriter@@UAEXABVString@@@Z 10031530 f   colorer_lib:ErrorHandlerWriter.cpp.obj
 0001:00030650       ?warning@ErrorHandlerWriter@@UAEXABVString@@@Z 10031650 f   colorer_lib:ErrorHandlerWriter.cpp.obj
 0001:00030770       ??1Writer@@UAE@XZ          10031770 f i colorer_lib:StreamWriter.cpp.obj
 0001:00030780       ??_GWriter@@UAEPAXI@Z      10031780 f i colorer_lib:StreamWriter.cpp.obj
 0001:00030780       ??_EWriter@@UAEPAXI@Z      10031780 f i * CIL library *:* CIL module *
 0001:000307b0       ??_GStreamWriter@@UAEPAXI@Z 100317b0 f i colorer_lib:StreamWriter.cpp.obj
 0001:000307b0       ??_EStreamWriter@@UAEPAXI@Z 100317b0 f i * CIL library *:* CIL module *
 0001:000307e0       ?write@StreamWriter@@UAEX_W@Z 100317e0 f   colorer_lib:StreamWriter.cpp.obj
 0001:00030830       ?getNumber@UnicodeTools@@SA_NPBVString@@PAN@Z 10031830 f   colorer_lib:UnicodeTools.cpp.obj
 0001:00030bc0       ?getNumber@UnicodeTools@@SA_NPBVString@@PAH@Z 10031bc0 f   colorer_lib:UnicodeTools.cpp.obj
 0001:00030c00       ?getNumber@UnicodeTools@@SAHPBVString@@@Z 10031c00 f   colorer_lib:UnicodeTools.cpp.obj
 0001:00030c60       ?getHex@UnicodeTools@@SAH_W@Z 10031c60 f   colorer_lib:UnicodeTools.cpp.obj
 0001:00030cc0       ?getHexNumber@UnicodeTools@@SAHPBVString@@@Z 10031cc0 f   colorer_lib:UnicodeTools.cpp.obj
 0001:00030d70       ?getCurlyContent@UnicodeTools@@SAPAVDString@@ABVString@@H@Z 10031d70 f   colorer_lib:UnicodeTools.cpp.obj
 0001:00030ed0       ?getEscapedChar@UnicodeTools@@SA_WABVString@@HAAH@Z 10031ed0 f   colorer_lib:UnicodeTools.cpp.obj
 0001:00031040       ??0LineRegionsSupport@@QAE@XZ 10032040 f   colorer_lib:LineRegionsSupport.cpp.obj
 0001:000310d0       ??_ELineRegionsSupport@@UAEPAXI@Z 100320d0 f i * CIL library *:* CIL module *
 0001:000310d0       ??_GLineRegionsSupport@@UAEPAXI@Z 100320d0 f i colorer_lib:LineRegionsSupport.cpp.obj
 0001:000310f0       ??1LineRegionsSupport@@UAE@XZ 100320f0 f   colorer_lib:LineRegionsSupport.cpp.obj
 0001:00031230       ?clear@LineRegionsSupport@@QAEXXZ 10032230 f   colorer_lib:LineRegionsSupport.cpp.obj
 0001:000312b0       ?getLineRegions@LineRegionsSupport@@QBEPAVLineRegion@@I@Z 100322b0 f   colorer_lib:LineRegionsSupport.cpp.obj
 0001:00031300       ?startParsing@LineRegionsSupport@@UAEXI@Z 10032300 f   colorer_lib:LineRegionsSupport.cpp.obj
 0001:00031390       ?clearLine@LineRegionsSupport@@UAEXIPAVString@@@Z 10032390 f   colorer_lib:LineRegionsSupport.cpp.obj
 0001:000314c0       ?addRegion@LineRegionsSupport@@UAEXIPAVString@@HHPBVRegion@@@Z 100324c0 f   colorer_lib:LineRegionsSupport.cpp.obj
 0001:000315c0       ?enterScheme@LineRegionsSupport@@UAEXIPAVString@@HHPBVRegion@@PBVScheme@@@Z 100325c0 f   colorer_lib:LineRegionsSupport.cpp.obj
 0001:00031760       ?leaveScheme@LineRegionsSupport@@UAEXIPAVString@@HHPBVRegion@@PBVScheme@@@Z 10032760 f   colorer_lib:LineRegionsSupport.cpp.obj
 0001:00031870       ?addLineRegion@LineRegionsSupport@@MAEXIPAVLineRegion@@@Z 10032870 f   colorer_lib:LineRegionsSupport.cpp.obj
 0001:00031910       ??_ELineRegionsCompactSupport@@UAEPAXI@Z 10032910 f i * CIL library *:* CIL module *
 0001:00031910       ??_GLineRegionsCompactSupport@@UAEPAXI@Z 10032910 f i colorer_lib:LineRegionsCompactSupport.cpp.obj
 0001:00031940       ?addLineRegion@LineRegionsCompactSupport@@MAEXIPAVLineRegion@@@Z 10032940 f   colorer_lib:LineRegionsCompactSupport.cpp.obj
 0001:00031c90       ?getIssueFatalErrorIfNotFound@InputSource@xercesc_3_1@@UBE_NXZ 10032c90 f i colorer_lib:ZipXmlInputSource.cpp.obj
 0001:00031c90       ?getExpandEntityReferences@DOMNodeIteratorImpl@xercesc_3_1@@UAE_NXZ 10032c90 f i xerces-c_3_1:DOMNodeIteratorImpl.cpp.obj
 0001:00031c90       ?getExpandEntityReferences@DOMTreeWalkerImpl@xercesc_3_1@@UAE_NXZ 10032c90 f i xerces-c_3_1:DOMTreeWalkerImpl.cpp.obj
 0001:00031ca0       ?setIssueFatalErrorIfNotFound@InputSource@xercesc_3_1@@UAEX_N@Z 10032ca0 f i colorer_lib:ZipXmlInputSource.cpp.obj
 0001:00031cb0       ?getChild@Token@xercesc_3_1@@UBEPAV12@K@Z 10032cb0 f i xerces-c_3_1:Token.cpp.obj
 0001:00031cb0       ?createRelative@XmlInputSource@@UBEPAV1@PB_W@Z 10032cb0 f i colorer_lib:ZipXmlInputSource.cpp.obj
 0001:00031cb0       ?createRelative@InputSource@colorer@@UAEPAV12@PBVString@@@Z 10032cb0 f i colorer_lib:JARInputSource.cpp.obj
 0001:00031cb0       ?getURIForPrefix@ValidationContext@xercesc_3_1@@UAEPB_WPA_W@Z 10032cb0 f i xerces-c_3_1:ValidationContextImpl.cpp.obj
 0001:00031cc0       ?getLocalName@DOMDocumentFragmentImpl@xercesc_3_1@@UBEPB_WXZ 10032cc0 f i xerces-c_3_1:DOMDocumentFragmentImpl.cpp.obj
 0001:00031cc0       ?getFirstChild@DOMTextImpl@xercesc_3_1@@UBEPAVDOMNode@2@XZ 10032cc0 f i xerces-c_3_1:DOMTextImpl.cpp.obj
 0001:00031cc0       ?getEnumString@AnySimpleTypeDatatypeValidator@xercesc_3_1@@UBEPBV?$RefArrayVectorOf@_W@2@XZ 10032cc0 f i xerces-c_3_1:AnySimpleTypeDatatypeValidator.cpp.obj
 0001:00031cc0       ?getNamespaceURI@DOMEntityReferenceImpl@xercesc_3_1@@UBEPB_WXZ 10032cc0 f i xerces-c_3_1:DOMEntityReferenceImpl.cpp.obj
 0001:00031cc0       ?getLocalName@DOMCDATASectionImpl@xercesc_3_1@@UBEPB_WXZ 10032cc0 f i xerces-c_3_1:DOMCDATASectionImpl.cpp.obj
 0001:00031cc0       ?getObjectType@SchemaElementDecl@xercesc_3_1@@UBE?AW4objectType@XMLElementDecl@2@XZ 10032cc0 f i xerces-c_3_1:SchemaElementDecl.cpp.obj
 0001:00031cc0       ?createObject@AbstractStringValidator@xercesc_3_1@@SAPAVXSerializable@2@PAVMemoryManager@2@@Z 10032cc0 f i xerces-c_3_1:AbstractStringValidator.cpp.obj
 0001:00031cc0       ?getLocalName@DOMElementImpl@xercesc_3_1@@UBEPB_WXZ 10032cc0 f i xerces-c_3_1:DOMElementImpl.cpp.obj
 0001:00031cc0       ?getAttributes@DOMEntityReferenceImpl@xercesc_3_1@@UBEPAVDOMNamedNodeMap@2@XZ 10032cc0 f i xerces-c_3_1:DOMEntityReferenceImpl.cpp.obj
 0001:00031cc0       ?getNamespaceURI@DOMNotationImpl@xercesc_3_1@@UBEPB_WXZ 10032cc0 f i xerces-c_3_1:DOMNotationImpl.cpp.obj
 0001:00031cc0       ?getNodeValue@DOMEntityReferenceImpl@xercesc_3_1@@UBEPB_WXZ 10032cc0 f i xerces-c_3_1:DOMEntityReferenceImpl.cpp.obj
 0001:00031cc0       ?getNamespaceURI@DOMDocumentFragmentImpl@xercesc_3_1@@UBEPB_WXZ 10032cc0 f i xerces-c_3_1:DOMDocumentFragmentImpl.cpp.obj
 0001:00031cc0       ?getPrefix@DOMAttrImpl@xercesc_3_1@@UBEPB_WXZ 10032cc0 f i xerces-c_3_1:DOMAttrImpl.cpp.obj
 0001:00031cc0       ?getNamespaceURI@DOMCDATASectionImpl@xercesc_3_1@@UBEPB_WXZ 10032cc0 f i xerces-c_3_1:DOMCDATASectionImpl.cpp.obj
 0001:00031cc0       ?getAttributes@DOMProcessingInstructionImpl@xercesc_3_1@@UBEPAVDOMNamedNodeMap@2@XZ 10032cc0 f i xerces-c_3_1:DOMProcessingInstructionImpl.cpp.obj
 0001:00031cc0       ?createObject@XMLEntityDecl@xercesc_3_1@@SAPAVXSerializable@2@PAVMemoryManager@2@@Z 10032cc0 f i xerces-c_3_1:XMLEntityDecl.cpp.obj
 0001:00031cc0       ?createObject@AbstractNumericValidator@xercesc_3_1@@SAPAVXSerializable@2@PAVMemoryManager@2@@Z 10032cc0 f i xerces-c_3_1:AbstractNumericValidator.cpp.obj
 0001:00031cc0       ?getType@IC_Unique@xercesc_3_1@@UBEFXZ 10032cc0 f i xerces-c_3_1:IC_Unique.cpp.obj
 0001:00031cc0       ?getParentNode@DOMAttrImpl@xercesc_3_1@@UBEPAVDOMNode@2@XZ 10032cc0 f i xerces-c_3_1:DOMAttrImpl.cpp.obj
 0001:00031cc0       ?getNamespaceURI@DOMTextImpl@xercesc_3_1@@UBEPB_WXZ 10032cc0 f i xerces-c_3_1:DOMTextImpl.cpp.obj
 0001:00031cc0       ?getOwnerDocument@DOMDocumentImpl@xercesc_3_1@@UBEPAVDOMDocument@2@XZ 10032cc0 f i xerces-c_3_1:DOMDocumentImpl.cpp.obj
 0001:00031cc0       ?getNoParen@Token@xercesc_3_1@@UBEHXZ 10032cc0 f i xerces-c_3_1:Token.cpp.obj
 0001:00031cc0       ?getContentLeafNameTypeVector@SimpleContentModel@xercesc_3_1@@UBEPAVContentLeafNameTypeVector@2@XZ 10032cc0 f i xerces-c_3_1:SimpleContentModel.cpp.obj
 0001:00031cc0       ?getNextSibling@DOMNotationImpl@xercesc_3_1@@UBEPAVDOMNode@2@XZ 10032cc0 f i xerces-c_3_1:DOMNotationImpl.cpp.obj
 0001:00031cc0       ?createObject@DatatypeValidator@xercesc_3_1@@SAPAVXSerializable@2@PAVMemoryManager@2@@Z 10032cc0 f i xerces-c_3_1:DatatypeValidator.cpp.obj
 0001:00031cc0       ?getPrefix@DOMProcessingInstructionImpl@xercesc_3_1@@UBEPB_WXZ 10032cc0 f i xerces-c_3_1:DOMProcessingInstructionImpl.cpp.obj
 0001:00031cc0       ?getLastChild@DOMProcessingInstructionImpl@xercesc_3_1@@UBEPAVDOMNode@2@XZ 10032cc0 f i xerces-c_3_1:DOMProcessingInstructionImpl.cpp.obj
 0001:00031cc0       ?getRelatedException@DOMErrorImpl@xercesc_3_1@@UBEPAXXZ 10032cc0 f i xerces-c_3_1:DOMErrorImpl.cpp.obj
 0001:00031cc0       ?getParentNode@DOMNotationImpl@xercesc_3_1@@UBEPAVDOMNode@2@XZ 10032cc0 f i xerces-c_3_1:DOMNotationImpl.cpp.obj
 0001:00031cc0       ?getCurrentGrammarType@DGXMLScanner@xercesc_3_1@@UBE?AW4GrammarType@Grammar@2@XZ 10032cc0 f i xerces-c_3_1:DGXMLScanner.cpp.obj
 0001:00031cc0       ?getPrefix@DOMElementImpl@xercesc_3_1@@UBEPB_WXZ 10032cc0 f i xerces-c_3_1:DOMElementImpl.cpp.obj
 0001:00031cc0       ?getNamespaceURI@DOMProcessingInstructionImpl@xercesc_3_1@@UBEPB_WXZ 10032cc0 f i xerces-c_3_1:DOMProcessingInstructionImpl.cpp.obj
 0001:00031cc0       ?getPrefix@DOMTextImpl@xercesc_3_1@@UBEPB_WXZ 10032cc0 f i xerces-c_3_1:DOMTextImpl.cpp.obj
 0001:00031cc0       ?getGrammarType@XMLDTDDescription@xercesc_3_1@@UBE?AW4GrammarType@Grammar@2@XZ 10032cc0 f i xerces-c_3_1:XMLDTDDescriptionImpl.cpp.obj
 0001:00031cc0       ?getEntityDeclPool@WFXMLScanner@xercesc_3_1@@UAEPAV?$NameIdPool@VDTDEntityDecl@xercesc_3_1@@@2@XZ 10032cc0 f i xerces-c_3_1:WFXMLScanner.cpp.obj
 0001:00031cc0       ?getNodeValue@DOMDocumentTypeImpl@xercesc_3_1@@UBEPB_WXZ 10032cc0 f i xerces-c_3_1:DOMDocumentTypeImpl.cpp.obj
 0001:00031cc0       ?getFirstChild@DOMProcessingInstructionImpl@xercesc_3_1@@UBEPAVDOMNode@2@XZ 10032cc0 f i xerces-c_3_1:DOMProcessingInstructionImpl.cpp.obj
 0001:00031cc0       ?createObject@AbstractNumericFacetValidator@xercesc_3_1@@SAPAVXSerializable@2@PAVMemoryManager@2@@Z 10032cc0 f i xerces-c_3_1:AbstractNumericFacetValidator.cpp.obj
 0001:00031cc0       ?getNextSibling@DOMDocumentFragmentImpl@xercesc_3_1@@UBEPAVDOMNode@2@XZ 10032cc0 f i xerces-c_3_1:DOMDocumentFragmentImpl.cpp.obj
 0001:00031cc0       ?getPreviousSibling@DOMAttrImpl@xercesc_3_1@@UBEPAVDOMNode@2@XZ 10032cc0 f i xerces-c_3_1:DOMAttrImpl.cpp.obj
 0001:00031cc0       ?getLocalName@DOMDocumentTypeImpl@xercesc_3_1@@UBEPB_WXZ 10032cc0 f i xerces-c_3_1:DOMDocumentTypeImpl.cpp.obj
 0001:00031cc0       ?getPreviousSibling@DOMNotationImpl@xercesc_3_1@@UBEPAVDOMNode@2@XZ 10032cc0 f i xerces-c_3_1:DOMNotationImpl.cpp.obj
 0001:00031cc0       ?getAttributes@DOMDocumentFragmentImpl@xercesc_3_1@@UBEPAVDOMNamedNodeMap@2@XZ 10032cc0 f i xerces-c_3_1:DOMDocumentFragmentImpl.cpp.obj
 0001:00031cc0       ?createObject@XMLDTDDescription@xercesc_3_1@@SAPAVXSerializable@2@PAVMemoryManager@2@@Z 10032cc0 f i xerces-c_3_1:XMLDTDDescription.cpp.obj
 0001:00031cc0       ?getNextSibling@DOMAttrImpl@xercesc_3_1@@UBEPAVDOMNode@2@XZ 10032cc0 f i xerces-c_3_1:DOMAttrImpl.cpp.obj
 0001:00031cc0       ?getLastChild@DOMTextImpl@xercesc_3_1@@UBEPAVDOMNode@2@XZ 10032cc0 f i xerces-c_3_1:DOMTextImpl.cpp.obj
 0001:00031cc0       ?getLocalName@DOMDocumentImpl@xercesc_3_1@@UBEPB_WXZ 10032cc0 f i xerces-c_3_1:DOMDocumentImpl.cpp.obj
 0001:00031cc0       ?getNamespace@XSObject@xercesc_3_1@@UAEPB_WXZ 10032cc0 f i xerces-c_3_1:XSObject.cpp.obj
 0001:00031cc0       ?getAttributes@DOMCommentImpl@xercesc_3_1@@UBEPAVDOMNamedNodeMap@2@XZ 10032cc0 f i xerces-c_3_1:DOMCommentImpl.cpp.obj
 0001:00031cc0       ?getLocalName@DOMNotationImpl@xercesc_3_1@@UBEPB_WXZ 10032cc0 f i xerces-c_3_1:DOMNotationImpl.cpp.obj
 0001:00031cc0       ?getString@Token@xercesc_3_1@@UBEPB_WXZ 10032cc0 f i xerces-c_3_1:Token.cpp.obj
 0001:00031cc0       ?getPrefix@DOMCDATASectionImpl@xercesc_3_1@@UBEPB_WXZ 10032cc0 f i xerces-c_3_1:DOMCDATASectionImpl.cpp.obj
 0001:00031cc0       ?createObject@XMLAbstractDoubleFloat@xercesc_3_1@@SAPAVXSerializable@2@PAVMemoryManager@2@@Z 10032cc0 f i xerces-c_3_1:XMLAbstractDoubleFloat.cpp.obj
 0001:00031cc0       ?getNextSibling@DOMEntityImpl@xercesc_3_1@@UBEPAVDOMNode@2@XZ 10032cc0 f i xerces-c_3_1:DOMEntityImpl.cpp.obj
 0001:00031cc0       ?getPrefix@DOMEntityImpl@xercesc_3_1@@UBEPB_WXZ 10032cc0 f i xerces-c_3_1:DOMEntityImpl.cpp.obj
 0001:00031cc0       ?createObject@XMLSchemaDescription@xercesc_3_1@@SAPAVXSerializable@2@PAVMemoryManager@2@@Z 10032cc0 f i xerces-c_3_1:XMLSchemaDescription.cpp.obj
 0001:00031cc0       ?createObject@XMLNumber@xercesc_3_1@@SAPAVXSerializable@2@PAVMemoryManager@2@@Z 10032cc0 f i xerces-c_3_1:XMLNumber.cpp.obj
 0001:00031cc0       ?getPrefix@DOMDocumentFragmentImpl@xercesc_3_1@@UBEPB_WXZ 10032cc0 f i xerces-c_3_1:DOMDocumentFragmentImpl.cpp.obj
 0001:00031cc0       ?createObject@DateTimeValidator@xercesc_3_1@@SAPAVXSerializable@2@PAVMemoryManager@2@@Z 10032cc0 f i xerces-c_3_1:DateTimeValidator.cpp.obj
 0001:00031cc0       ?getLocalName@DOMEntityReferenceImpl@xercesc_3_1@@UBEPB_WXZ 10032cc0 f i xerces-c_3_1:DOMEntityReferenceImpl.cpp.obj
 0001:00031cc0       ?getLastChild@DOMCDATASectionImpl@xercesc_3_1@@UBEPAVDOMNode@2@XZ 10032cc0 f i xerces-c_3_1:DOMCDATASectionImpl.cpp.obj
 0001:00031cc0       ?createObject@XMLElementDecl@xercesc_3_1@@SAPAVXSerializable@2@PAVMemoryManager@2@@Z 10032cc0 f i xerces-c_3_1:XMLElementDecl.cpp.obj
 0001:00031cc0       ?getAttributes@DOMTextImpl@xercesc_3_1@@UBEPAVDOMNamedNodeMap@2@XZ 10032cc0 f i xerces-c_3_1:DOMTextImpl.cpp.obj
 0001:00031cc0       ?getAttributes@DOMNotationImpl@xercesc_3_1@@UBEPAVDOMNamedNodeMap@2@XZ 10032cc0 f i xerces-c_3_1:DOMNotationImpl.cpp.obj
 0001:00031cc0       ?getEntityDeclPool@SGXMLScanner@xercesc_3_1@@UBEPBV?$NameIdPool@VDTDEntityDecl@xercesc_3_1@@@2@XZ 10032cc0 f i xerces-c_3_1:SGXMLScanner.cpp.obj
 0001:00031cc0       ?getReferenceNo@Token@xercesc_3_1@@UBEHXZ 10032cc0 f i xerces-c_3_1:Token.cpp.obj
 0001:00031cc0       ?getContentType@UnZip@@UBEPB_WXZ 10032cc0 f i colorer_lib:ZipXmlInputSource.cpp.obj
 0001:00031cc0       ?getInputSource@XmlInputSource@@UAEPAVInputSource@xercesc_3_1@@XZ 10032cc0 f i colorer_lib:ZipXmlInputSource.cpp.obj
 0001:00031cc0       ?getNodeValue@DOMEntityImpl@xercesc_3_1@@UBEPB_WXZ 10032cc0 f i xerces-c_3_1:DOMEntityImpl.cpp.obj
 0001:00031cc0       ?getContentLeafNameTypeVector@AllContentModel@xercesc_3_1@@UBEPAVContentLeafNameTypeVector@2@XZ 10032cc0 f i xerces-c_3_1:AllContentModel.cpp.obj
 0001:00031cc0       ?getPrefix@DOMNotationImpl@xercesc_3_1@@UBEPB_WXZ 10032cc0 f i xerces-c_3_1:DOMNotationImpl.cpp.obj
 0001:00031cc0       ?getLocalName@DOMAttrImpl@xercesc_3_1@@UBEPB_WXZ 10032cc0 f i xerces-c_3_1:DOMAttrImpl.cpp.obj
 0001:00031cc0       ?getParentNode@DOMDocumentImpl@xercesc_3_1@@UBEPAVDOMNode@2@XZ 10032cc0 f i xerces-c_3_1:DOMDocumentImpl.cpp.obj
 0001:00031cc0       ?getPreviousSibling@DOMEntityImpl@xercesc_3_1@@UBEPAVDOMNode@2@XZ 10032cc0 f i xerces-c_3_1:DOMEntityImpl.cpp.obj
 0001:00031cc0       ?getNextSibling@DOMDocumentImpl@xercesc_3_1@@UBEPAVDOMNode@2@XZ 10032cc0 f i xerces-c_3_1:DOMDocumentImpl.cpp.obj
 0001:00031cc0       ?createObject@Grammar@xercesc_3_1@@SAPAVXSerializable@2@PAVMemoryManager@2@@Z 10032cc0 f i xerces-c_3_1:Grammar.cpp.obj
 0001:00031cc0       ?getName@XSObject@xercesc_3_1@@UBEPB_WXZ 10032cc0 f i xerces-c_3_1:XSObject.cpp.obj
 0001:00031cc0       ?getPrefix@DOMDocumentTypeImpl@xercesc_3_1@@UBEPB_WXZ 10032cc0 f i xerces-c_3_1:DOMDocumentTypeImpl.cpp.obj
 0001:00031cc0       ?createObject@XMLAttDefList@xercesc_3_1@@SAPAVXSerializable@2@PAVMemoryManager@2@@Z 10032cc0 f i xerces-c_3_1:XMLAttDefList.cpp.obj
 0001:00031cc0       ?getParentNode@DOMDocumentFragmentImpl@xercesc_3_1@@UBEPAVDOMNode@2@XZ 10032cc0 f i xerces-c_3_1:DOMDocumentFragmentImpl.cpp.obj
 0001:00031cc0       ?getNamespaceURI@DOMCommentImpl@xercesc_3_1@@UBEPB_WXZ 10032cc0 f i xerces-c_3_1:DOMCommentImpl.cpp.obj
 0001:00031cc0       ?getNamespaceURI@DOMEntityImpl@xercesc_3_1@@UBEPB_WXZ 10032cc0 f i xerces-c_3_1:DOMEntityImpl.cpp.obj
 0001:00031cc0       ?getGrammarType@DTDGrammar@xercesc_3_1@@UBE?AW4GrammarType@Grammar@2@XZ 10032cc0 f i xerces-c_3_1:DTDGrammar.cpp.obj
 0001:00031cc0       ?getFirstChild@DOMCDATASectionImpl@xercesc_3_1@@UBEPAVDOMNode@2@XZ 10032cc0 f i xerces-c_3_1:DOMCDATASectionImpl.cpp.obj
 0001:00031cc0       ?getPreviousSibling@DOMDocumentImpl@xercesc_3_1@@UBEPAVDOMNode@2@XZ 10032cc0 f i xerces-c_3_1:DOMDocumentImpl.cpp.obj
 0001:00031cc0       ?getPrefix@DOMDocumentImpl@xercesc_3_1@@UBEPB_WXZ 10032cc0 f i xerces-c_3_1:DOMDocumentImpl.cpp.obj
 0001:00031cc0       ?getSign@XMLDateTime@xercesc_3_1@@UBEHXZ 10032cc0 f i xerces-c_3_1:XMLDateTime.cpp.obj
 0001:00031cc0       ?getPreviousSibling@DOMDocumentFragmentImpl@xercesc_3_1@@UBEPAVDOMNode@2@XZ 10032cc0 f i xerces-c_3_1:DOMDocumentFragmentImpl.cpp.obj
 0001:00031cc0       ?getNamespaceURI@DOMDocumentImpl@xercesc_3_1@@UBEPB_WXZ 10032cc0 f i xerces-c_3_1:DOMDocumentImpl.cpp.obj
 0001:00031cc0       ?getEntityDeclPool@SGXMLScanner@xercesc_3_1@@UAEPAV?$NameIdPool@VDTDEntityDecl@xercesc_3_1@@@2@XZ 10032cc0 f i xerces-c_3_1:SGXMLScanner.cpp.obj
 0001:00031cc0       ?getNodeValue@DOMElementImpl@xercesc_3_1@@UBEPB_WXZ 10032cc0 f i xerces-c_3_1:DOMElementImpl.cpp.obj
 0001:00031cc0       ?getFirstChild@DOMNotationImpl@xercesc_3_1@@UBEPAVDOMNode@2@XZ 10032cc0 f i xerces-c_3_1:DOMNotationImpl.cpp.obj
 0001:00031cc0       ?getLastChild@DOMNotationImpl@xercesc_3_1@@UBEPAVDOMNode@2@XZ 10032cc0 f i xerces-c_3_1:DOMNotationImpl.cpp.obj
 0001:00031cc0       ?getLocalName@DOMProcessingInstructionImpl@xercesc_3_1@@UBEPB_WXZ 10032cc0 f i xerces-c_3_1:DOMProcessingInstructionImpl.cpp.obj
 0001:00031cc0       ?mem_write_file_func@@YAKPAX0PBXK@Z 10032cc0 f i colorer_lib:MemoryFile.cpp.obj
 0001:00031cc0       ?mem_close_file_func@@YAHPAX0@Z 10032cc0 f i colorer_lib:MemoryFile.cpp.obj
 0001:00031cc0       ?getContentLeafNameTypeVector@MixedContentModel@xercesc_3_1@@UBEPAVContentLeafNameTypeVector@2@XZ 10032cc0 f i xerces-c_3_1:MixedContentModel.cpp.obj
 0001:00031cc0       ?getAttributes@DOMDocumentTypeImpl@xercesc_3_1@@UBEPAVDOMNamedNodeMap@2@XZ 10032cc0 f i xerces-c_3_1:DOMDocumentTypeImpl.cpp.obj
 0001:00031cc0       ?getNodeValue@DOMDocumentImpl@xercesc_3_1@@UBEPB_WXZ 10032cc0 f i xerces-c_3_1:DOMDocumentImpl.cpp.obj
 0001:00031cc0       ?getNamespaceURI@DOMAttrImpl@xercesc_3_1@@UBEPB_WXZ 10032cc0 f i xerces-c_3_1:DOMAttrImpl.cpp.obj
 0001:00031cc0       ?getNodeValue@DOMNotationImpl@xercesc_3_1@@UBEPB_WXZ 10032cc0 f i xerces-c_3_1:DOMNotationImpl.cpp.obj
 0001:00031cc0       ?getAttributes@DOMAttrImpl@xercesc_3_1@@UBEPAVDOMNamedNodeMap@2@XZ 10032cc0 f i xerces-c_3_1:DOMAttrImpl.cpp.obj
 0001:00031cc0       ?getFirstChild@DOMCommentImpl@xercesc_3_1@@UBEPAVDOMNode@2@XZ 10032cc0 f i xerces-c_3_1:DOMCommentImpl.cpp.obj
 0001:00031cc0       ?createObject@XMLGrammarDescription@xercesc_3_1@@SAPAVXSerializable@2@PAVMemoryManager@2@@Z 10032cc0 f i xerces-c_3_1:XMLGrammarDescription.cpp.obj
 0001:00031cc0       ?createObject@IdentityConstraint@xercesc_3_1@@SAPAVXSerializable@2@PAVMemoryManager@2@@Z 10032cc0 f i xerces-c_3_1:IdentityConstraint.cpp.obj
 0001:00031cc0       ?getNodeValue@DOMDocumentFragmentImpl@xercesc_3_1@@UBEPB_WXZ 10032cc0 f i xerces-c_3_1:DOMDocumentFragmentImpl.cpp.obj
 0001:00031cc0       ?getAttributes@DOMEntityImpl@xercesc_3_1@@UBEPAVDOMNamedNodeMap@2@XZ 10032cc0 f i xerces-c_3_1:DOMEntityImpl.cpp.obj
 0001:00031cc0       ?getLocalName@DOMCommentImpl@xercesc_3_1@@UBEPB_WXZ 10032cc0 f i xerces-c_3_1:DOMCommentImpl.cpp.obj
 0001:00031cc0       ?getNamespaceURI@DOMElementImpl@xercesc_3_1@@UBEPB_WXZ 10032cc0 f i xerces-c_3_1:DOMElementImpl.cpp.obj
 0001:00031cc0       ?getNamespaceItem@XSObject@xercesc_3_1@@UAEPAVXSNamespaceItem@2@XZ 10032cc0 f i xerces-c_3_1:XSObject.cpp.obj
 0001:00031cc0       ?size@Token@xercesc_3_1@@UBEKXZ 10032cc0 f i xerces-c_3_1:Token.cpp.obj
 0001:00031cc0       ?getLocalName@DOMEntityImpl@xercesc_3_1@@UBEPB_WXZ 10032cc0 f i xerces-c_3_1:DOMEntityImpl.cpp.obj
 0001:00031cc0       ?getParentNode@DOMEntityImpl@xercesc_3_1@@UBEPAVDOMNode@2@XZ 10032cc0 f i xerces-c_3_1:DOMEntityImpl.cpp.obj
 0001:00031cc0       ?getLastChild@DOMCommentImpl@xercesc_3_1@@UBEPAVDOMNode@2@XZ 10032cc0 f i xerces-c_3_1:DOMCommentImpl.cpp.obj
 0001:00031cc0       ?getNamespaceURI@DOMDocumentTypeImpl@xercesc_3_1@@UBEPB_WXZ 10032cc0 f i xerces-c_3_1:DOMDocumentTypeImpl.cpp.obj
 0001:00031cc0       ?getAttributes@DOMDocumentImpl@xercesc_3_1@@UBEPAVDOMNamedNodeMap@2@XZ 10032cc0 f i xerces-c_3_1:DOMDocumentImpl.cpp.obj
 0001:00031cc0       ?getLocalName@DOMTextImpl@xercesc_3_1@@UBEPB_WXZ 10032cc0 f i xerces-c_3_1:DOMTextImpl.cpp.obj
 0001:00031cc0       ?getPrefix@DOMEntityReferenceImpl@xercesc_3_1@@UBEPB_WXZ 10032cc0 f i xerces-c_3_1:DOMEntityReferenceImpl.cpp.obj
 0001:00031cc0       ?getPrefix@DOMCommentImpl@xercesc_3_1@@UBEPB_WXZ 10032cc0 f i xerces-c_3_1:DOMCommentImpl.cpp.obj
 0001:00031cc0       ?createObject@XMLAttDef@xercesc_3_1@@SAPAVXSerializable@2@PAVMemoryManager@2@@Z 10032cc0 f i xerces-c_3_1:XMLAttDef.cpp.obj
 0001:00031cc0       ?getEntityDeclPool@WFXMLScanner@xercesc_3_1@@UBEPBV?$NameIdPool@VDTDEntityDecl@xercesc_3_1@@@2@XZ 10032cc0 f i xerces-c_3_1:WFXMLScanner.cpp.obj
 0001:00031cc0       ?getContentType@BinMemInputStream@xercesc_3_1@@UBEPB_WXZ 10032cc0 f i xerces-c_3_1:BinMemInputStream.cpp.obj
 0001:00031cc0       ?getContentType@BinFileInputStream@xercesc_3_1@@UBEPB_WXZ 10032cc0 f i xerces-c_3_1:BinFileInputStream.cpp.obj
 0001:00031cc0       ?getEnumString@BooleanDatatypeValidator@xercesc_3_1@@UBEPBV?$RefArrayVectorOf@_W@2@XZ 10032cc0 f i xerces-c_3_1:BooleanDatatypeValidator.cpp.obj
 0001:00031cc0       ?getAttributes@DOMCDATASectionImpl@xercesc_3_1@@UBEPAVDOMNamedNodeMap@2@XZ 10032cc0 f i xerces-c_3_1:DOMCDATASectionImpl.cpp.obj
 0001:00031cd0       ??1XmlInputSource@@UAE@XZ  10032cd0 f i colorer_lib:ZipXmlInputSource.cpp.obj
 0001:00031ce0       ??_GXmlInputSource@@UAEPAXI@Z 10032ce0 f i colorer_lib:ZipXmlInputSource.cpp.obj
 0001:00031ce0       ??_EXmlInputSource@@UAEPAXI@Z 10032ce0 f i * CIL library *:* CIL module *
 0001:00031d10       ??_EZipXmlInputSource@@UAEPAXI@Z 10032d10 f i * CIL library *:* CIL module *
 0001:00031d10       ??_GZipXmlInputSource@@UAEPAXI@Z 10032d10 f i colorer_lib:ZipXmlInputSource.cpp.obj
 0001:00031ea0       ?create@ZipXmlInputSource@@AAEXPB_W0@Z 10032ea0 f   colorer_lib:ZipXmlInputSource.cpp.obj
 0001:00032270       ??0ZipXmlInputSource@@QAE@PB_W0_N@Z 10033270 f   colorer_lib:ZipXmlInputSource.cpp.obj
 0001:000328c0       ?createRelative@ZipXmlInputSource@@UBEPAV1@PB_W@Z 100338c0 f   colorer_lib:ZipXmlInputSource.cpp.obj
 0001:00032940       ?getDomConfig@DOMLSSerializerImpl@xercesc_3_1@@UAEPAVDOMConfiguration@2@XZ 10033940 f   xerces-c_3_1:DOMLSSerializerImpl.cpp.obj
 0001:00032940       ?getInputSource@ZipXmlInputSource@@UAEPAVInputSource@xercesc_3_1@@XZ 10033940 f   colorer_lib:ZipXmlInputSource.cpp.obj
 0001:00032950       ?makeStream@ZipXmlInputSource@@UBEPAVBinInputStream@xercesc_3_1@@XZ 10033950 f   colorer_lib:ZipXmlInputSource.cpp.obj
 0001:00032a70       ??0UnZip@@QAE@PBEKPBVString@@@Z 10033a70 f   colorer_lib:ZipXmlInputSource.cpp.obj
 0001:00032e00       ??_GUnZip@@UAEPAXI@Z       10033e00 f i colorer_lib:ZipXmlInputSource.cpp.obj
 0001:00032e00       ??_EUnZip@@UAEPAXI@Z       10033e00 f i * CIL library *:* CIL module *
 0001:00032ed0       ?curPos@BinMemInputStream@xercesc_3_1@@UBE_KXZ 10033ed0 f   xerces-c_3_1:BinMemInputStream.cpp.obj
 0001:00032ed0       ?curPos@UnZip@@UBE_KXZ     10033ed0 f   colorer_lib:ZipXmlInputSource.cpp.obj
 0001:00032ee0       ?readBytes@UnZip@@UAEKQAEK@Z 10033ee0 f   colorer_lib:ZipXmlInputSource.cpp.obj
 0001:00032f16       ??_EZipXmlInputSource@@W3AEPAXI@Z 10033f16 f i colorer_lib:ZipXmlInputSource.cpp.obj
 0001:00032f20       ??0LocalFileXmlInputSource@@QAE@PB_W0@Z 10033f20 f   colorer_lib:LocalFileXmlInputSource.cpp.obj
 0001:00033060       ??_ELocalFileXmlInputSource@@UAEPAXI@Z 10034060 f i * CIL library *:* CIL module *
 0001:00033060       ??_GLocalFileXmlInputSource@@UAEPAXI@Z 10034060 f i colorer_lib:LocalFileXmlInputSource.cpp.obj
 0001:000331c0       ?makeStream@LocalFileXmlInputSource@@UBEPAVBinInputStream@xercesc_3_1@@XZ 100341c0 f   colorer_lib:LocalFileXmlInputSource.cpp.obj
 0001:000332a0       ?createRelative@LocalFileXmlInputSource@@UBEPAVXmlInputSource@@PB_W@Z 100342a0 f   colorer_lib:LocalFileXmlInputSource.cpp.obj
 0001:00033310       ?getInputSource@LocalFileXmlInputSource@@UAEPAVInputSource@xercesc_3_1@@XZ 10034310 f   colorer_lib:LocalFileXmlInputSource.cpp.obj
 0001:00033314       ??_ELocalFileXmlInputSource@@WBI@AEPAXI@Z 10034314 f i colorer_lib:LocalFileXmlInputSource.cpp.obj
 0001:00033320       ?getRegionDefine@RegionMapperImpl@@UBEPBVRegionDefine@@PBVRegion@@@Z 10034320 f   colorer_lib:RegionMapperImpl.cpp.obj
 0001:000335f0       ?getRegionDefine@RegionMapperImpl@@UBEPBVRegionDefine@@ABVString@@@Z 100345f0 f   colorer_lib:RegionMapperImpl.cpp.obj
 0001:00033730       ??1CharacterClass@@QAE@XZ  10034730 f   colorer_lib:CharacterClass.cpp.obj
 0001:00033780       ?createCharClass@CharacterClass@@SAPAV1@ABVString@@HPAH@Z 10034780 f   colorer_lib:CharacterClass.cpp.obj
 0001:00034000       ?addChar@CharacterClass@@QAEX_W@Z 10035000 f   colorer_lib:CharacterClass.cpp.obj
 0001:000340b0       ?clearChar@CharacterClass@@QAEX_W@Z 100350b0 f   colorer_lib:CharacterClass.cpp.obj
 0001:00034120       ?addCategory@CharacterClass@@QAEXW4ECharCategory@@@Z 10035120 f   colorer_lib:CharacterClass.cpp.obj
 0001:00034280       ?addCategory@CharacterClass@@QAEXABVString@@@Z 10035280 f   colorer_lib:CharacterClass.cpp.obj
 0001:00034300       ?addCategory@CharacterClass@@QAEXPBD@Z 10035300 f   colorer_lib:CharacterClass.cpp.obj
 0001:000343a0       ?clearCategory@CharacterClass@@QAEXW4ECharCategory@@@Z 100353a0 f   colorer_lib:CharacterClass.cpp.obj
 0001:00034510       ?clearCategory@CharacterClass@@QAEXPBD@Z 10035510 f   colorer_lib:CharacterClass.cpp.obj
 0001:00034620       ?addClass@CharacterClass@@QAEXABV1@@Z 10035620 f   colorer_lib:CharacterClass.cpp.obj
 0001:00034700       ?clearClass@CharacterClass@@QAEXABV1@@Z 10035700 f   colorer_lib:CharacterClass.cpp.obj
 0001:00034810       ?clear@CharacterClass@@QAEXXZ 10035810 f   colorer_lib:CharacterClass.cpp.obj
 0001:00034890       ?fill@CharacterClass@@QAEXXZ 10035890 f   colorer_lib:CharacterClass.cpp.obj
 0001:000348f0       ?inClass@CharacterClass@@QBE_N_W@Z 100358f0 f   colorer_lib:CharacterClass.cpp.obj
 0001:00034950       ??0ParseCache@@QAE@XZ      10035950 f   colorer_lib:TextParserHelpers.cpp.obj
 0001:00034990       ?searchLine@ParseCache@@QAEPAV1@HPAPAV1@@Z 10035990 f   colorer_lib:TextParserHelpers.cpp.obj
 0001:00034a40       ??0VTList@@QAE@XZ          10035a40 f   colorer_lib:TextParserHelpers.cpp.obj
 0001:00034a70       ?deltree@VTList@@QAEXXZ    10035a70 f   colorer_lib:TextParserHelpers.cpp.obj
 0001:00034ad0       ?pushvirt@VTList@@QAEPAVSchemeImpl@@PAV2@@Z 10035ad0 f   colorer_lib:TextParserHelpers.cpp.obj
 0001:00034b70       ?kwCompare@@YAHPBX0@Z      10035b70 f   colorer_lib:HRCParserHelpers.cpp.obj
 0001:00034b90       ?kwCompareI@@YAHPBX0@Z     10035b90 f   colorer_lib:HRCParserHelpers.cpp.obj
 0001:00034bb0       ?substrIndex@KeywordList@@QAEXXZ 10035bb0 f   colorer_lib:HRCParserHelpers.cpp.obj
 0001:00034de0       ??0SchemeNode@@QAE@XZ      10035de0 f   colorer_lib:HRCParserHelpers.cpp.obj
 0001:00034e90       ??1SchemeNode@@QAE@XZ      10035e90 f   colorer_lib:HRCParserHelpers.cpp.obj
 0001:00035070       ?_Reallocate_exactly@?$vector@PAVVirtualEntry@@V?$allocator@PAVVirtualEntry@@@std@@@std@@AAEXI@Z 10036070 f i colorer_lib:HRCParserHelpers.cpp.obj
 0001:000350b0       ??1InputSource@colorer@@UAE@XZ 100360b0 f i colorer_lib:JARInputSource.cpp.obj
 0001:000350c0       ??_EInputSource@colorer@@UAEPAXI@Z 100360c0 f i * CIL library *:* CIL module *
 0001:000350c0       ??_GInputSource@colorer@@UAEPAXI@Z 100360c0 f i colorer_lib:JARInputSource.cpp.obj
 0001:000350f0       ??0JARInputSource@@QAE@PBVString@@PAVInputSource@colorer@@@Z 100360f0 f   colorer_lib:JARInputSource.cpp.obj
 0001:000353d0       ??_EJARInputSource@@UAEPAXI@Z 100363d0 f i * CIL library *:* CIL module *
 0001:000353d0       ??_GJARInputSource@@UAEPAXI@Z 100363d0 f i colorer_lib:JARInputSource.cpp.obj
 0001:00035440       ??0JARInputSource@@IAE@PBVString@@PAV0@_N@Z 10036440 f   colorer_lib:JARInputSource.cpp.obj
 0001:00035680       ?createRelative@JARInputSource@@MAEPAVInputSource@colorer@@PBVString@@@Z 10036680 f   colorer_lib:JARInputSource.cpp.obj
 0001:00035700       ?openStream@JARInputSource@@UAEPBEXZ 10036700 f   colorer_lib:JARInputSource.cpp.obj
 0001:00035a10       ?closeStream@JARInputSource@@UAEXXZ 10036a10 f   colorer_lib:JARInputSource.cpp.obj
 0001:00035a90       ?length@JARInputSource@@UBEHXZ 10036a90 f   colorer_lib:JARInputSource.cpp.obj
 0001:00035b00       ??0FileInputSource@@QAE@PBVString@@PAV0@@Z 10036b00 f   colorer_lib:FileInputSource.cpp.obj
 0001:00035fe0       ??_EFileInputSource@@UAEPAXI@Z 10036fe0 f i * CIL library *:* CIL module *
 0001:00035fe0       ??_GFileInputSource@@UAEPAXI@Z 10036fe0 f i colorer_lib:FileInputSource.cpp.obj
 0001:00036050       ?createRelative@FileInputSource@@MAEPAVInputSource@colorer@@PBVString@@@Z 10037050 f   colorer_lib:FileInputSource.cpp.obj
 0001:000360c0       ?openStream@FileInputSource@@UAEPBEXZ 100370c0 f   colorer_lib:FileInputSource.cpp.obj
 0001:00036200       ?closeStream@FileInputSource@@UAEXXZ 10037200 f   colorer_lib:FileInputSource.cpp.obj
 0001:00036280       ?length@FileInputSource@@UBEHXZ 10037280 f   colorer_lib:FileInputSource.cpp.obj
 0001:000362f0       ?write@Writer@@UAEXABVString@@@Z 100372f0 f   colorer_lib:Writer.cpp.obj
 0001:000362f0       ?write@Writer@@UAEXPBVString@@@Z 100372f0 f   colorer_lib:Writer.cpp.obj
 0001:00036310       ?write@Writer@@UAEXABVString@@HH@Z 10037310 f   colorer_lib:Writer.cpp.obj
 0001:00036380       ?write@Writer@@UAEXPBVString@@HH@Z 10037380 f   colorer_lib:Writer.cpp.obj
 0001:00036390       ??_ESharedXmlInputSource@@EAEPAXI@Z 10037390 f i * CIL library *:* CIL module *
 0001:00036390       ??_GSharedXmlInputSource@@EAEPAXI@Z 10037390 f i colorer_lib:SharedXmlInputSource.cpp.obj
 0001:00036510       ?getSharedInputSource@SharedXmlInputSource@@SAPAV1@PB_W0@Z 10037510 f   colorer_lib:SharedXmlInputSource.cpp.obj
 0001:000368a0       ?openStream@SharedInputSource@@UAEPBEXZ 100378a0 f   colorer_lib:SharedInputSource.cpp.obj
 0001:000368a0       ?getInputSource@SharedXmlInputSource@@UAEPAVInputSource@xercesc_3_1@@XZ 100378a0 f   colorer_lib:SharedXmlInputSource.cpp.obj
 0001:000368b0       ?openStream@SharedXmlInputSource@@QAEXXZ 100378b0 f   colorer_lib:SharedXmlInputSource.cpp.obj
 0001:00036940       ?erase@?$_Hash@V?$_Umap_traits@VSString@@PAVSharedXmlInputSource@@V?$_Uhash_compare@VSString@@U?$hash@VSString@@@std@@U?$equal_to@VSString@@@3@@std@@V?$allocator@U?$pair@$$CBVSString@@PAVSharedXmlInputSource@@@std@@@4@$0A@@std@@@std@@QAEIABVSString@@@Z 10037940 f i colorer_lib:SharedXmlInputSource.cpp.obj
 0001:00037890       _unzOpen2                  10038890 f   colorer_lib:unzip.c.obj
 0001:00037910       _unzClose                  10038910 f   colorer_lib:unzip.c.obj
 0001:00037de0       _unzGetCurrentFileInfo     10038de0 f   colorer_lib:unzip.c.obj
 0001:00037eb0       _unzGoToFirstFile          10038eb0 f   colorer_lib:unzip.c.obj
 0001:00037f10       _unzLocateFile             10038f10 f   colorer_lib:unzip.c.obj
 0001:00038390       _unzOpenCurrentFile3       10039390 f   colorer_lib:unzip.c.obj
 0001:000385a0       _unzReadCurrentFile        100395a0 f   colorer_lib:unzip.c.obj
 0001:00038890       _unzCloseCurrentFile       10039890 f   colorer_lib:unzip.c.obj
 0001:00038960       ?mem_open_file_func@@YAPAXPAXPBDH@Z 10039960 f   colorer_lib:MemoryFile.cpp.obj
 0001:00038980       ?mem_read_file_func@@YAKPAX00K@Z 10039980 f   colorer_lib:MemoryFile.cpp.obj
 0001:000389c0       ?mem_tell_file_func@@YAJPAX0@Z 100399c0 f   colorer_lib:MemoryFile.cpp.obj
 0001:000389d0       ?mem_seek_file_func@@YAJPAX0KH@Z 100399d0 f   colorer_lib:MemoryFile.cpp.obj
 0001:00038a20       ?mem_error_file_func@@YAHPAX0@Z 10039a20 f   colorer_lib:MemoryFile.cpp.obj
 0001:00038a30       ?addRange@BitArray@@QAEXHH@Z 10039a30 f   colorer_lib:BitArray.cpp.obj
 0001:00038b60       ?getLocation@SharedInputSource@@UBEPBVString@@XZ 10039b60 f i colorer_lib:SharedInputSource.cpp.obj
 0001:00038b70       ?closeStream@SharedInputSource@@UAEXXZ 10039b70 f i colorer_lib:SharedInputSource.cpp.obj
 0001:00038b80       ?length@SharedInputSource@@UBEHXZ 10039b80 f i colorer_lib:SharedInputSource.cpp.obj
 0001:00038b90       ??_GSharedInputSource@@EAEPAXI@Z 10039b90 f i colorer_lib:SharedInputSource.cpp.obj
 0001:00038b90       ??_ESharedInputSource@@EAEPAXI@Z 10039b90 f i * CIL library *:* CIL module *
 0001:00038ca0       ?getInputSource@SharedInputSource@@SAPAV1@PBVString@@PAVInputSource@colorer@@@Z 10039ca0 f   colorer_lib:SharedInputSource.cpp.obj
 0001:00038fb0       ?erase@?$_Hash@V?$_Umap_traits@VSString@@PAVSharedInputSource@@V?$_Uhash_compare@VSString@@U?$hash@VSString@@@std@@U?$equal_to@VSString@@@3@@std@@V?$allocator@U?$pair@$$CBVSString@@PAVSharedInputSource@@@std@@@4@$0A@@std@@@std@@QAEIABVSString@@@Z 10039fb0 f i colorer_lib:SharedInputSource.cpp.obj
 0001:00039160       _call_zseek64              1003a160 f   colorer_lib:ioapi.c.obj
 0001:000392c0       _inflateReset              1003a2c0 f   colorer_lib:inflate.c.obj
 0001:00039380       _inflateInit2_             1003a380 f   colorer_lib:inflate.c.obj
 0001:00039550       _inflate                   1003a550 f   colorer_lib:inflate.c.obj
 0001:0003ab50       _crc32                     1003bb50 f   colorer_lib:crc32.c.obj
 0001:0003ae00       _zcalloc                   1003be00 f   colorer_lib:zutil.c.obj
 0001:0003ae20       _zcfree                    1003be20 f   colorer_lib:zutil.c.obj
 0001:0003ae30       _adler32                   1003be30 f   colorer_lib:adler32.c.obj
 0001:0003b090       _inflate_table             1003c090 f   colorer_lib:inftrees.c.obj
 0001:0003b530       _inflate_fast              1003c530 f   colorer_lib:inffast.c.obj
 0001:0003b989       ??_EPanicHandler@xercesc_3_1@@UAEPAXI@Z 1003c989 f i * CIL library *:* CIL module *
 0001:0003b989       ??_GPanicHandler@xercesc_3_1@@UAEPAXI@Z 1003c989 f i xerces-c_3_1:PlatformUtils.cpp.obj
 0001:0003b9ac       ??0XMLPlatformUtilsException@xercesc_3_1@@QAE@QBD_KW4Codes@XMLExcepts@1@PAVMemoryManager@1@@Z 1003c9ac f i xerces-c_3_1:PlatformUtils.cpp.obj
 0001:0003b9f3       ??0XMLPlatformUtilsException@xercesc_3_1@@QAE@ABV01@@Z 1003c9f3 f i xerces-c_3_1:PlatformUtils.cpp.obj
 0001:0003ba12       ??1XMLPlatformUtilsException@xercesc_3_1@@UAE@XZ 1003ca12 f i xerces-c_3_1:PlatformUtils.cpp.obj
 0001:0003ba1d       ?duplicate@XMLPlatformUtilsException@xercesc_3_1@@UBEPAVXMLException@2@XZ 1003ca1d f i xerces-c_3_1:PlatformUtils.cpp.obj
 0001:0003ba69       ?getType@XMLPlatformUtilsException@xercesc_3_1@@UBEPB_WXZ 1003ca69 f i xerces-c_3_1:PlatformUtils.cpp.obj
 0001:0003ba6f       ??_GXMLPlatformUtilsException@xercesc_3_1@@UAEPAXI@Z 1003ca6f f i xerces-c_3_1:PlatformUtils.cpp.obj
 0001:0003ba6f       ??_EXMLPlatformUtilsException@xercesc_3_1@@UAEPAXI@Z 1003ca6f f i * CIL library *:* CIL module *
 0001:0003baa6       ??_EMemoryManager@xercesc_3_1@@UAEPAXI@Z 1003caa6 f i * CIL library *:* CIL module *
 0001:0003baa6       ??_GMemoryManager@xercesc_3_1@@UAEPAXI@Z 1003caa6 f i xerces-c_3_1:PlatformUtils.cpp.obj
 0001:0003baa6       ??_GMemoryManagerImpl@xercesc_3_1@@UAEPAXI@Z 1003caa6 f i xerces-c_3_1:PlatformUtils.cpp.obj
 0001:0003baa6       ??_EMemoryManagerImpl@xercesc_3_1@@UAEPAXI@Z 1003caa6 f i * CIL library *:* CIL module *
 0001:0003bac9       ?replicate@XMLString@xercesc_3_1@@SAPA_WQB_WQAVMemoryManager@2@@Z 1003cac9 f i xerces-c_3_1:PlatformUtils.cpp.obj
 0001:0003bb07       ??0RuntimeException@xercesc_3_1@@QAE@QBD_KW4Codes@XMLExcepts@1@PAVMemoryManager@1@@Z 1003cb07 f i xerces-c_3_1:PlatformUtils.cpp.obj
 0001:0003bb4e       ??0RuntimeException@xercesc_3_1@@QAE@ABV01@@Z 1003cb4e f i xerces-c_3_1:PlatformUtils.cpp.obj
 0001:0003bb6d       ??1RuntimeException@xercesc_3_1@@UAE@XZ 1003cb6d f i xerces-c_3_1:PlatformUtils.cpp.obj
 0001:0003bb78       ?duplicate@RuntimeException@xercesc_3_1@@UBEPAVXMLException@2@XZ 1003cb78 f i xerces-c_3_1:PlatformUtils.cpp.obj
 0001:0003bbc4       ?getType@RuntimeException@xercesc_3_1@@UBEPB_WXZ 1003cbc4 f i xerces-c_3_1:PlatformUtils.cpp.obj
 0001:0003bbca       ??_ERuntimeException@xercesc_3_1@@UAEPAXI@Z 1003cbca f i * CIL library *:* CIL module *
 0001:0003bbca       ??_GRuntimeException@xercesc_3_1@@UAEPAXI@Z 1003cbca f i xerces-c_3_1:PlatformUtils.cpp.obj
 0001:0003bc01       ??_GDefaultPanicHandler@xercesc_3_1@@UAEPAXI@Z 1003cc01 f i xerces-c_3_1:PlatformUtils.cpp.obj
 0001:0003bc01       ??_EDefaultPanicHandler@xercesc_3_1@@UAEPAXI@Z 1003cc01 f i * CIL library *:* CIL module *
 0001:0003bc31       ?Initialize@XMLPlatformUtils@xercesc_3_1@@SAXQBD0QAVPanicHandler@2@QAVMemoryManager@2@@Z 1003cc31 f   xerces-c_3_1:PlatformUtils.cpp.obj
 0001:0003be0a       ?Terminate@XMLPlatformUtils@xercesc_3_1@@SAXXZ 1003ce0a f   xerces-c_3_1:PlatformUtils.cpp.obj
 0001:0003bf6e       ?panic@XMLPlatformUtils@xercesc_3_1@@SAXW4PanicReasons@PanicHandler@2@@Z 1003cf6e f   xerces-c_3_1:PlatformUtils.cpp.obj
 0001:0003bf86       ?loadAMsgSet@XMLPlatformUtils@xercesc_3_1@@CAPAVXMLMsgLoader@2@QB_W@Z 1003cf86 f   xerces-c_3_1:PlatformUtils.cpp.obj
 0001:0003bfee       ?makeFileMgr@XMLPlatformUtils@xercesc_3_1@@SAPAVXMLFileMgr@2@QAVMemoryManager@2@@Z 1003cfee f   xerces-c_3_1:PlatformUtils.cpp.obj
 0001:0003c045       ?closeFile@XMLPlatformUtils@xercesc_3_1@@SAXPAXQAVMemoryManager@2@@Z 1003d045 f   xerces-c_3_1:PlatformUtils.cpp.obj
 0001:0003c071       ?writeBufferToFile@XMLPlatformUtils@xercesc_3_1@@SAXQAXKQBEQAVMemoryManager@2@@Z 1003d071 f   xerces-c_3_1:PlatformUtils.cpp.obj
 0001:0003c0b7       ?isRelative@XMLPlatformUtils@xercesc_3_1@@SA_NQB_WQAVMemoryManager@2@@Z 1003d0b7 f   xerces-c_3_1:PlatformUtils.cpp.obj
 0001:0003c0e3       ?weavePaths@XMLPlatformUtils@xercesc_3_1@@SAPA_WQB_W0QAVMemoryManager@2@@Z 1003d0e3 f   xerces-c_3_1:PlatformUtils.cpp.obj
 0001:0003c1e8       ?removeDotSlash@XMLPlatformUtils@xercesc_3_1@@SAXQA_WQAVMemoryManager@2@@Z 1003d1e8 f   xerces-c_3_1:PlatformUtils.cpp.obj
 0001:0003c2fa       ?removeDotDotSlash@XMLPlatformUtils@xercesc_3_1@@SAXQA_WQAVMemoryManager@2@@Z 1003d2fa f   xerces-c_3_1:PlatformUtils.cpp.obj
 0001:0003c478       ?searchSlashDotDotSlash@XMLPlatformUtils@xercesc_3_1@@CAHQA_W@Z 1003d478 f   xerces-c_3_1:PlatformUtils.cpp.obj
 0001:0003c500       ??0EndOfEntityException@xercesc_3_1@@QAE@PAVXMLEntityDecl@1@K@Z 1003d500 f i xerces-c_3_1:ReaderMgr.cpp.obj
 0001:0003c500       ??0?$ArrayJanitor@_W@xercesc_3_1@@QAE@QA_WQAVMemoryManager@1@@Z 1003d500 f i xerces-c_3_1:PlatformUtils.cpp.obj
 0001:0003c514       ??1?$ArrayJanitor@PAUHash2KeysSetBucketElem@xercesc_3_1@@@xercesc_3_1@@QAE@XZ 1003d514 f i xerces-c_3_1:SGXMLScanner.cpp.obj
 0001:0003c514       ??1?$ArrayJanitor@PAU?$ValueHashTableBucketElem@I@xercesc_3_1@@@xercesc_3_1@@QAE@XZ 1003d514 f i xerces-c_3_1:DOMLSParserImpl.cpp.obj
 0001:0003c514       ??1?$ArrayJanitor@PAU?$RefHashTableBucketElem@VXercesAttGroupInfo@xercesc_3_1@@@xercesc_3_1@@@xercesc_3_1@@QAE@XZ 1003d514 f i xerces-c_3_1:XTemplateSerializer.cpp.obj
 0001:0003c514       ??1?$ArrayJanitor@PAU?$RefHashTableBucketElem@VXMLInteger@xercesc_3_1@@@xercesc_3_1@@@xercesc_3_1@@QAE@XZ 1003d514 f i xerces-c_3_1:DFAContentModel.cpp.obj
 0001:0003c514       ??1?$ArrayJanitor@PAU?$RefHashTableBucketElem@VENameMap@xercesc_3_1@@@xercesc_3_1@@@xercesc_3_1@@QAE@XZ 1003d514 f i xerces-c_3_1:TransService.cpp.obj
 0001:0003c514       ??1?$ArrayJanitor@PAU?$RefHash2KeysTableBucketElem@_W@xercesc_3_1@@@xercesc_3_1@@QAE@XZ 1003d514 f i xerces-c_3_1:TraverseSchema.cpp.obj
 0001:0003c514       ??1?$ArrayJanitor@PAU?$RefHash2KeysTableBucketElem@VXSObject@xercesc_3_1@@@xercesc_3_1@@@xercesc_3_1@@QAE@XZ 1003d514 f i xerces-c_3_1:XSModel.cpp.obj
 0001:0003c514       ??1?$ArrayJanitor@PAU?$RefHash2KeysTableBucketElem@VSchemaInfo@xercesc_3_1@@@xercesc_3_1@@@xercesc_3_1@@QAE@XZ 1003d514 f i xerces-c_3_1:TraverseSchema.cpp.obj
 0001:0003c514       ??1?$ArrayJanitor@PAU?$RefHashTableBucketElem@VXSerializedObjectId@xercesc_3_1@@@xercesc_3_1@@@xercesc_3_1@@QAE@XZ 1003d514 f i xerces-c_3_1:XSerializeEngine.cpp.obj
 0001:0003c514       ??1?$ArrayJanitor@PAU?$RefHashTableBucketElem@VDTDElementDecl@xercesc_3_1@@@xercesc_3_1@@@xercesc_3_1@@QAE@XZ 1003d514 f i xerces-c_3_1:DTDGrammar.cpp.obj
 0001:0003c514       ??1?$ArrayJanitor@PAU?$RefHashTableBucketElem@VRangeFactory@xercesc_3_1@@@xercesc_3_1@@@xercesc_3_1@@QAE@XZ 1003d514 f i xerces-c_3_1:RangeTokenMap.cpp.obj
 0001:0003c514       ??1?$ArrayJanitor@PAU?$RefHashTableBucketElem@VXSObject@xercesc_3_1@@@xercesc_3_1@@@xercesc_3_1@@QAE@XZ 1003d514 f i xerces-c_3_1:XSModel.cpp.obj
 0001:0003c514       ??1?$ArrayJanitor@PAU?$RefHash2KeysTableBucketElem@VXMLAttr@xercesc_3_1@@@xercesc_3_1@@@xercesc_3_1@@QAE@XZ 1003d514 f i xerces-c_3_1:WFXMLScanner.cpp.obj
 0001:0003c514       ??1?$ArrayJanitor@PAU?$RefHashTableBucketElem@VDTDAttDef@xercesc_3_1@@@xercesc_3_1@@@xercesc_3_1@@QAE@XZ 1003d514 f i xerces-c_3_1:XTemplateSerializer.cpp.obj
 0001:0003c514       ??1?$ArrayJanitor@PAU?$RefHashTableBucketElem@VComplexTypeInfo@xercesc_3_1@@@xercesc_3_1@@@xercesc_3_1@@QAE@XZ 1003d514 f i xerces-c_3_1:XTemplateSerializer.cpp.obj
 0001:0003c514       ??1?$ArrayJanitor@PAU?$RefHashTableBucketElem@VXSAnnotation@xercesc_3_1@@@xercesc_3_1@@@xercesc_3_1@@QAE@XZ 1003d514 f i xerces-c_3_1:XTemplateSerializer.cpp.obj
 0001:0003c514       ??1?$ArrayJanitor@_N@xercesc_3_1@@QAE@XZ 1003d514 f i xerces-c_3_1:AllContentModel.cpp.obj
 0001:0003c514       ??1?$ArrayJanitor@PAU?$RefHash2KeysTableBucketElem@VValueStore@xercesc_3_1@@@xercesc_3_1@@@xercesc_3_1@@QAE@XZ 1003d514 f i xerces-c_3_1:ValueStoreCache.cpp.obj
 0001:0003c514       ??1?$ArrayJanitor@E@xercesc_3_1@@QAE@XZ 1003d514 f i xerces-c_3_1:TransService.cpp.obj
 0001:0003c514       ??1?$ArrayJanitor@_W@xercesc_3_1@@QAE@XZ 1003d514 f i xerces-c_3_1:PlatformUtils.cpp.obj
 0001:0003c514       ??1?$ArrayJanitor@PAU?$RefHashTableBucketElem@VCPMapEntry@xercesc_3_1@@@xercesc_3_1@@@xercesc_3_1@@QAE@XZ 1003d514 f i xerces-c_3_1:Win32TransService.cpp.obj
 0001:0003c514       ??1?$ArrayJanitor@PAU?$RefHashTableBucketElem@VFieldValueMap@xercesc_3_1@@@xercesc_3_1@@@xercesc_3_1@@QAE@XZ 1003d514 f i xerces-c_3_1:ValueStore.cpp.obj
 0001:0003c514       ??1?$ArrayJanitor@H@xercesc_3_1@@QAE@XZ 1003d514 f i xerces-c_3_1:XMLRangeFactory.cpp.obj
 0001:0003c514       ??1?$ArrayJanitor@PAU?$ValueHashTableBucketElem@_W@xercesc_3_1@@@xercesc_3_1@@QAE@XZ 1003d514 f i xerces-c_3_1:SGXMLScanner.cpp.obj
 0001:0003c514       ??1?$ArrayJanitor@PAU?$RefHashTableBucketElem@VDatatypeValidator@xercesc_3_1@@@xercesc_3_1@@@xercesc_3_1@@QAE@XZ 1003d514 f i xerces-c_3_1:DatatypeValidatorFactory.cpp.obj
 0001:0003c514       ??1?$ArrayJanitor@PAU?$ValueHashTableBucketElem@W4DataType@XSValue@xercesc_3_1@@@xercesc_3_1@@@xercesc_3_1@@QAE@XZ 1003d514 f i xerces-c_3_1:XSValue.cpp.obj
 0001:0003c514       ??1?$ArrayJanitor@PAU?$RefHash2KeysTableBucketElem@VSchemaAttDef@xercesc_3_1@@@xercesc_3_1@@@xercesc_3_1@@QAE@XZ 1003d514 f i xerces-c_3_1:ComplexTypeInfo.cpp.obj
 0001:0003c514       ??1?$ArrayJanitor@PAU?$RefHash2KeysTableBucketElem@V?$KeyRefPair@XVDOMUserDataHandler@xercesc_3_1@@@xercesc_3_1@@@xercesc_3_1@@@xercesc_3_1@@QAE@XZ 1003d514 f i xerces-c_3_1:DOMDocumentImpl.cpp.obj
 0001:0003c514       ??1?$ArrayJanitor@PAU?$RefHash2KeysTableBucketElem@VIdentityConstraint@xercesc_3_1@@@xercesc_3_1@@@xercesc_3_1@@QAE@XZ 1003d514 f i xerces-c_3_1:TraverseSchema.cpp.obj
 0001:0003c514       ??1?$ArrayJanitor@PAU?$RefHash2KeysTableBucketElem@V?$ValueVectorOf@PAVSchemaElementDecl@xercesc_3_1@@@xercesc_3_1@@@xercesc_3_1@@@xercesc_3_1@@QAE@XZ 1003d514 f i xerces-c_3_1:XTemplateSerializer.cpp.obj
 0001:0003c514       ??1?$ArrayJanitor@PAU?$RefHashTableBucketElem@V?$ValueVectorOf@PAVDOMElement@xercesc_3_1@@@xercesc_3_1@@@xercesc_3_1@@@xercesc_3_1@@QAE@XZ 1003d514 f i xerces-c_3_1:TraverseSchema.cpp.obj
 0001:0003c514       ??1?$ArrayJanitor@PAU?$ValueHashTableBucketElem@G@xercesc_3_1@@@xercesc_3_1@@QAE@XZ 1003d514 f i xerces-c_3_1:GeneralAttributeCheck.cpp.obj
 0001:0003c514       ??1?$ArrayJanitor@PAU?$ValueHashTableBucketElem@W4FilterAction@DOMLSParserFilter@xercesc_3_1@@@xercesc_3_1@@@xercesc_3_1@@QAE@XZ 1003d514 f i xerces-c_3_1:DOMLSParserImpl.cpp.obj
 0001:0003c514       ??1?$ArrayJanitor@PAU?$RefHashTableBucketElem@VKVStringPair@xercesc_3_1@@@xercesc_3_1@@@xercesc_3_1@@QAE@XZ 1003d514 f i xerces-c_3_1:DOMXPathNSResolverImpl.cpp.obj
 0001:0003c514       ??1?$ArrayJanitor@PAU?$RefHashTableBucketElem@VValueStore@xercesc_3_1@@@xercesc_3_1@@@xercesc_3_1@@QAE@XZ 1003d514 f i xerces-c_3_1:ValueStoreCache.cpp.obj
 0001:0003c514       ??1?$ArrayJanitor@PAU?$RefHashTableBucketElem@VDOMElement@xercesc_3_1@@@xercesc_3_1@@@xercesc_3_1@@QAE@XZ 1003d514 f i xerces-c_3_1:SchemaInfo.cpp.obj
 0001:0003c514       ??1?$ArrayJanitor@PAU?$RefHashTableBucketElem@VSchemaInfo@xercesc_3_1@@@xercesc_3_1@@@xercesc_3_1@@QAE@XZ 1003d514 f i xerces-c_3_1:TraverseSchema.cpp.obj
 0001:0003c514       ??1?$ArrayJanitor@PAU?$RefHashTableBucketElem@VXMLNotationDecl@xercesc_3_1@@@xercesc_3_1@@@xercesc_3_1@@QAE@XZ 1003d514 f i xerces-c_3_1:DTDGrammar.cpp.obj
 0001:0003c514       ??1?$ArrayJanitor@PAU?$RefHashTableBucketElem@VGrammar@xercesc_3_1@@@xercesc_3_1@@@xercesc_3_1@@QAE@XZ 1003d514 f i xerces-c_3_1:GrammarResolver.cpp.obj
 0001:0003c514       ??1?$ArrayJanitor@PAU?$RefHashTableBucketElem@_W@xercesc_3_1@@@xercesc_3_1@@QAE@XZ 1003d514 f i xerces-c_3_1:DOMNormalizer.cpp.obj
 0001:0003c514       ??1?$ArrayJanitor@PAU?$RefHashTableBucketElem@VXMLRefInfo@xercesc_3_1@@@xercesc_3_1@@@xercesc_3_1@@QAE@XZ 1003d514 f i xerces-c_3_1:ValidationContextImpl.cpp.obj
 0001:0003c514       ??1?$ArrayJanitor@PAU?$RefHashTableBucketElem@VRangeTokenElemMap@xercesc_3_1@@@xercesc_3_1@@@xercesc_3_1@@QAE@XZ 1003d514 f i xerces-c_3_1:RangeTokenMap.cpp.obj
 0001:0003c514       ??1?$ArrayJanitor@D@xercesc_3_1@@QAE@XZ 1003d514 f i xerces-c_3_1:XMLString.cpp.obj
 0001:0003c514       ??1?$ArrayJanitor@PAU?$RefHashTableBucketElem@VXMLCanRepGroup@xercesc_3_1@@@xercesc_3_1@@@xercesc_3_1@@QAE@XZ 1003d514 f i xerces-c_3_1:DatatypeValidatorFactory.cpp.obj
 0001:0003c514       ??1?$ArrayJanitor@PAU?$RefHashTableBucketElem@VDTDEntityDecl@xercesc_3_1@@@xercesc_3_1@@@xercesc_3_1@@QAE@XZ 1003d514 f i xerces-c_3_1:DTDGrammar.cpp.obj
 0001:0003c514       ??1?$ArrayJanitor@PAU?$RefHashTableBucketElem@I@xercesc_3_1@@@xercesc_3_1@@QAE@XZ 1003d514 f i xerces-c_3_1:SGXMLScanner.cpp.obj
 0001:0003c514       ??1?$ArrayJanitor@PAU?$RefHashTableBucketElem@VXMLElementDecl@xercesc_3_1@@@xercesc_3_1@@@xercesc_3_1@@QAE@XZ 1003d514 f i xerces-c_3_1:WFXMLScanner.cpp.obj
 0001:0003c514       ??1?$ArrayJanitor@PAU?$ValueHashTableBucketElem@_N@xercesc_3_1@@@xercesc_3_1@@QAE@XZ 1003d514 f i xerces-c_3_1:EncodingValidator.cpp.obj
 0001:0003c514       ??1?$ArrayJanitor@PAU?$RefHashTableBucketElem@VXSNamespaceItem@xercesc_3_1@@@xercesc_3_1@@@xercesc_3_1@@QAE@XZ 1003d514 f i xerces-c_3_1:XSModel.cpp.obj
 0001:0003c514       ??1?$ArrayJanitor@PAU?$RefHash2KeysTableBucketElem@VXSIDCDefinition@xercesc_3_1@@@xercesc_3_1@@@xercesc_3_1@@QAE@XZ 1003d514 f i xerces-c_3_1:XSObjectFactory.cpp.obj
 0001:0003c514       ??1?$ArrayJanitor@PAU?$RefHashTableBucketElem@VXMLAttDef@xercesc_3_1@@@xercesc_3_1@@@xercesc_3_1@@QAE@XZ 1003d514 f i xerces-c_3_1:XTemplateSerializer.cpp.obj
 0001:0003c514       ??1?$ArrayJanitor@PAU?$RefHashTableBucketElem@VXercesGroupInfo@xercesc_3_1@@@xercesc_3_1@@@xercesc_3_1@@QAE@XZ 1003d514 f i xerces-c_3_1:XTemplateSerializer.cpp.obj
 0001:0003c514       ??1?$ArrayJanitor@PAU?$RefHashTableBucketElem@UPoolElem@XMLStringPool@xercesc_3_1@@@xercesc_3_1@@@xercesc_3_1@@QAE@XZ 1003d514 f i xerces-c_3_1:StringPool.cpp.obj
 0001:0003c514       ??1?$ArrayJanitor@PAU?$RefHashTableBucketElem@V?$ValueVectorOf@PAVSchemaElementDecl@xercesc_3_1@@@xercesc_3_1@@@xercesc_3_1@@@xercesc_3_1@@QAE@XZ 1003d514 f i xerces-c_3_1:TraverseSchema.cpp.obj
 0001:0003c569       ??0SAXException@xercesc_3_1@@QAE@ABV01@@Z 1003d569 f i xerces-c_3_1:XercesDOMParser.cpp.obj
 0001:0003c595       ??1SAXException@xercesc_3_1@@UAE@XZ 1003d595 f i xerces-c_3_1:XercesDOMParser.cpp.obj
 0001:0003c5cc       ??_GSAXException@xercesc_3_1@@UAEPAXI@Z 1003d5cc f i xerces-c_3_1:XercesDOMParser.cpp.obj
 0001:0003c5cc       ??_ESAXException@xercesc_3_1@@UAEPAXI@Z 1003d5cc f i * CIL library *:* CIL module *
 0001:0003c5fd       ??0IOException@xercesc_3_1@@QAE@QBD_KW4Codes@XMLExcepts@1@PAVMemoryManager@1@@Z 1003d5fd f i xerces-c_3_1:XercesDOMParser.cpp.obj
 0001:0003c643       ??0IOException@xercesc_3_1@@QAE@ABV01@@Z 1003d643 f i xerces-c_3_1:XercesDOMParser.cpp.obj
 0001:0003c662       ??1IOException@xercesc_3_1@@UAE@XZ 1003d662 f i xerces-c_3_1:XercesDOMParser.cpp.obj
 0001:0003c66d       ?duplicate@IOException@xercesc_3_1@@UBEPAVXMLException@2@XZ 1003d66d f i xerces-c_3_1:XercesDOMParser.cpp.obj
 0001:0003c6b9       ?getType@IOException@xercesc_3_1@@UBEPB_WXZ 1003d6b9 f i xerces-c_3_1:XercesDOMParser.cpp.obj
 0001:0003c6bf       ??_EIOException@xercesc_3_1@@UAEPAXI@Z 1003d6bf f i * CIL library *:* CIL module *
 0001:0003c6bf       ??_GIOException@xercesc_3_1@@UAEPAXI@Z 1003d6bf f i xerces-c_3_1:XercesDOMParser.cpp.obj
 0001:0003c6f6       ?getMaxInclusive@AbstractNumericFacetValidator@xercesc_3_1@@QBEPAVXMLNumber@2@XZ 1003d6f6 f i xerces-c_3_1:DateTimeValidator.cpp.obj
 0001:0003c6f6       ?getMinLength@AbstractStringValidator@xercesc_3_1@@QBEKXZ 1003d6f6 f i xerces-c_3_1:ListDatatypeValidator.cpp.obj
 0001:0003c6f6       ?getMemoryManager@AbstractDOMParser@xercesc_3_1@@IBEPAVMemoryManager@2@XZ 1003d6f6 f i xerces-c_3_1:XercesDOMParser.cpp.obj
 0001:0003c6fa       ?expandSystemId@DOMLSParserImpl@xercesc_3_1@@UAE_NQB_WAAVXMLBuffer@2@@Z 1003d6fa f i xerces-c_3_1:DOMLSParserImpl.cpp.obj
 0001:0003c6fa       ?customNodeSerialize@DOMLSSerializerImpl@xercesc_3_1@@MAE_NQBVDOMNode@2@H@Z 1003d6fa f i xerces-c_3_1:DOMLSSerializerImpl.cpp.obj
 0001:0003c6fa       ?expandSystemId@XercesDOMParser@xercesc_3_1@@UAE_NQB_WAAVXMLBuffer@2@@Z 1003d6fa f i xerces-c_3_1:XercesDOMParser.cpp.obj
 0001:0003c6ff       ??0XercesDOMParser@xercesc_3_1@@QAE@QAVXMLValidator@1@QAVMemoryManager@1@QAVXMLGrammarPool@1@@Z 1003d6ff f   xerces-c_3_1:XercesDOMParser.cpp.obj
 0001:0003c749       ??_EXercesDOMParser@xercesc_3_1@@UAEPAXI@Z 1003d749 f i * CIL library *:* CIL module *
 0001:0003c749       ??_GXercesDOMParser@xercesc_3_1@@UAEPAXI@Z 1003d749 f i xerces-c_3_1:XercesDOMParser.cpp.obj
 0001:0003c77a       ??1XercesDOMParser@xercesc_3_1@@UAE@XZ 1003d77a f   xerces-c_3_1:XercesDOMParser.cpp.obj
 0001:0003c7a1       ?setErrorHandler@XercesDOMParser@xercesc_3_1@@QAEXQAVErrorHandler@2@@Z 1003d7a1 f   xerces-c_3_1:XercesDOMParser.cpp.obj
 0001:0003c7c8       ?error@XercesDOMParser@xercesc_3_1@@UAEXIQB_WW4ErrTypes@XMLErrorReporter@2@000_K2@Z 1003d7c8 f   xerces-c_3_1:XercesDOMParser.cpp.obj
 0001:0003c85c       ?resolveEntity@XercesDOMParser@xercesc_3_1@@UAEPAVInputSource@2@PAVXMLResourceIdentifier@2@@Z 1003d85c f   xerces-c_3_1:XercesDOMParser.cpp.obj
 0001:0003c88e       ??_EXercesDOMParser@xercesc_3_1@@W3AEPAXI@Z 1003d88e f i xerces-c_3_1:XercesDOMParser.cpp.obj
 0001:0003c896       ??_EXercesDOMParser@xercesc_3_1@@W7AEPAXI@Z 1003d896 f i xerces-c_3_1:XercesDOMParser.cpp.obj
 0001:0003c89e       ??_EXercesDOMParser@xercesc_3_1@@WM@AEPAXI@Z 1003d89e f i xerces-c_3_1:XercesDOMParser.cpp.obj
 0001:0003c8a6       ??_EXercesDOMParser@xercesc_3_1@@WBA@AEPAXI@Z 1003d8a6 f i xerces-c_3_1:XercesDOMParser.cpp.obj
 0001:0003c8ae       ??1AnnotationErrorReporter@xercesc_3_1@@UAE@XZ 1003d8ae f i xerces-c_3_1:TraverseSchema.cpp.obj
 0001:0003c8ae       ??1XMLErrorReporter@xercesc_3_1@@UAE@XZ 1003d8ae f i xerces-c_3_1:AbstractDOMParser.cpp.obj
 0001:0003c8b5       ??_EXMLErrorReporter@xercesc_3_1@@UAEPAXI@Z 1003d8b5 f i * CIL library *:* CIL module *
 0001:0003c8b5       ??_GXMLErrorReporter@xercesc_3_1@@UAEPAXI@Z 1003d8b5 f i xerces-c_3_1:AbstractDOMParser.cpp.obj
 0001:0003c8d8       ??0ArrayIndexOutOfBoundsException@xercesc_3_1@@QAE@QBD_KW4Codes@XMLExcepts@1@PAVMemoryManager@1@@Z 1003d8d8 f i xerces-c_3_1:AbstractDOMParser.cpp.obj
 0001:0003c91f       ??0ArrayIndexOutOfBoundsException@xercesc_3_1@@QAE@ABV01@@Z 1003d91f f i xerces-c_3_1:AbstractDOMParser.cpp.obj
 0001:0003c93e       ??1ArrayIndexOutOfBoundsException@xercesc_3_1@@UAE@XZ 1003d93e f i xerces-c_3_1:AbstractDOMParser.cpp.obj
 0001:0003c949       ?duplicate@ArrayIndexOutOfBoundsException@xercesc_3_1@@UBEPAVXMLException@2@XZ 1003d949 f i xerces-c_3_1:AbstractDOMParser.cpp.obj
 0001:0003c995       ?getType@ArrayIndexOutOfBoundsException@xercesc_3_1@@UBEPB_WXZ 1003d995 f i xerces-c_3_1:AbstractDOMParser.cpp.obj
 0001:0003c99b       ??_GArrayIndexOutOfBoundsException@xercesc_3_1@@UAEPAXI@Z 1003d99b f i xerces-c_3_1:AbstractDOMParser.cpp.obj
 0001:0003c99b       ??_EArrayIndexOutOfBoundsException@xercesc_3_1@@UAEPAXI@Z 1003d99b f i * CIL library *:* CIL module *
 0001:0003c9d2       ?append@XMLBuffer@xercesc_3_1@@QAEX_W@Z 1003d9d2 f i xerces-c_3_1:AbstractDOMParser.cpp.obj
 0001:0003c9fa       ?append@XMLBuffer@xercesc_3_1@@QAEXQB_WK@Z 1003d9fa f i xerces-c_3_1:AbstractDOMParser.cpp.obj
 0001:0003ca44       ?append@XMLBuffer@xercesc_3_1@@QAEXQB_W@Z 1003da44 f i xerces-c_3_1:AbstractDOMParser.cpp.obj
 0001:0003ca94       ?hash@XMLString@xercesc_3_1@@SAKQB_WK@Z 1003da94 f i xerces-c_3_1:AbstractDOMParser.cpp.obj
 0001:0003cad8       ??1XMLDocumentHandler@xercesc_3_1@@UAE@XZ 1003dad8 f i xerces-c_3_1:AbstractDOMParser.cpp.obj
 0001:0003cadf       ??_EXMLDocumentHandler@xercesc_3_1@@UAEPAXI@Z 1003dadf f i * CIL library *:* CIL module *
 0001:0003cadf       ??_GXMLDocumentHandler@xercesc_3_1@@UAEPAXI@Z 1003dadf f i xerces-c_3_1:AbstractDOMParser.cpp.obj
 0001:0003cb02       ??1XMLEntityHandler@xercesc_3_1@@UAE@XZ 1003db02 f i xerces-c_3_1:AbstractDOMParser.cpp.obj
 0001:0003cb09       ??_EXMLEntityHandler@xercesc_3_1@@UAEPAXI@Z 1003db09 f i * CIL library *:* CIL module *
 0001:0003cb09       ??_GXMLEntityHandler@xercesc_3_1@@UAEPAXI@Z 1003db09 f i xerces-c_3_1:AbstractDOMParser.cpp.obj
 0001:0003cb2c       ??1DocTypeHandler@xercesc_3_1@@UAE@XZ 1003db2c f i xerces-c_3_1:AbstractDOMParser.cpp.obj
 0001:0003cb33       ??_GDocTypeHandler@xercesc_3_1@@UAEPAXI@Z 1003db33 f i xerces-c_3_1:AbstractDOMParser.cpp.obj
 0001:0003cb33       ??_EDocTypeHandler@xercesc_3_1@@UAEPAXI@Z 1003db33 f i * CIL library *:* CIL module *
 0001:0003cb56       ??1XMLBufBid@xercesc_3_1@@QAE@XZ 1003db56 f i xerces-c_3_1:AbstractDOMParser.cpp.obj
 0001:0003cb85       ??1PSVIHandler@xercesc_3_1@@UAE@XZ 1003db85 f i xerces-c_3_1:AbstractDOMParser.cpp.obj
 0001:0003cb8c       ??_GPSVIHandler@xercesc_3_1@@UAEPAXI@Z 1003db8c f i xerces-c_3_1:AbstractDOMParser.cpp.obj
 0001:0003cb8c       ??_EPSVIHandler@xercesc_3_1@@UAEPAXI@Z 1003db8c f i * CIL library *:* CIL module *
 0001:0003cbaf       ?handlePartialElementPSVI@PSVIHandler@xercesc_3_1@@UAEXQB_W0PAVPSVIElement@2@@Z 1003dbaf f i xerces-c_3_1:AbstractDOMParser.cpp.obj
 0001:0003cbaf       ?matched@XPathMatcher@xercesc_3_1@@MAEXQB_WQAVDatatypeValidator@2@_N@Z 1003dbaf f i xerces-c_3_1:XPathMatcher.cpp.obj
 0001:0003cbaf       ?validate@AnySimpleTypeDatatypeValidator@xercesc_3_1@@UAEXQB_WQAVValidationContext@2@QAVMemoryManager@2@@Z 1003dbaf f i xerces-c_3_1:AnySimpleTypeDatatypeValidator.cpp.obj
 0001:0003cbb2       ?setExternalSchemaLocation@XMLScanner@xercesc_3_1@@QAEXQB_W@Z 1003dbb2 f i xerces-c_3_1:AbstractDOMParser.cpp.obj
 0001:0003cbe2       ?setExternalNoNamespaceSchemaLocation@XMLScanner@xercesc_3_1@@QAEXQB_W@Z 1003dbe2 f i xerces-c_3_1:AbstractDOMParser.cpp.obj
 0001:0003cc12       ?getPooledString@DOMDocumentImpl@xercesc_3_1@@QAEPB_WPB_W@Z 1003dc12 f i xerces-c_3_1:AbstractDOMParser.cpp.obj
 0001:0003cc9f       ?indexofQualifiedName@DOMDocumentImpl@xercesc_3_1@@SAHPB_W@Z 1003dc9f f i xerces-c_3_1:AbstractDOMParser.cpp.obj
 0001:0003ccf0       ??2@YAPAXIPAVDOMDocument@xercesc_3_1@@@Z 1003dcf0 f i xerces-c_3_1:AbstractDOMParser.cpp.obj
 0001:0003cd1a       ??0AbstractDOMParser@xercesc_3_1@@IAE@QAVXMLValidator@1@QAVMemoryManager@1@QAVXMLGrammarPool@1@@Z 1003dd1a f   xerces-c_3_1:AbstractDOMParser.cpp.obj
 0001:0003ce66       ??_EAbstractDOMParser@xercesc_3_1@@UAEPAXI@Z 1003de66 f i * CIL library *:* CIL module *
 0001:0003ce66       ??_GAbstractDOMParser@xercesc_3_1@@UAEPAXI@Z 1003de66 f i xerces-c_3_1:AbstractDOMParser.cpp.obj
 0001:0003ce97       ??1AbstractDOMParser@xercesc_3_1@@UAE@XZ 1003de97 f   xerces-c_3_1:AbstractDOMParser.cpp.obj
 0001:0003cf10       ?cleanUp@AbstractDOMParser@xercesc_3_1@@AAEXXZ 1003df10 f   xerces-c_3_1:AbstractDOMParser.cpp.obj
 0001:0003cf76       ?reset@AbstractDOMParser@xercesc_3_1@@QAEXXZ 1003df76 f   xerces-c_3_1:AbstractDOMParser.cpp.obj
 0001:0003d001       ?resetInProgress@AbstractDOMParser@xercesc_3_1@@AAEXXZ 1003e001 f   xerces-c_3_1:AbstractDOMParser.cpp.obj
 0001:0003d006       ?resetPool@AbstractDOMParser@xercesc_3_1@@IAEXXZ 1003e006 f   xerces-c_3_1:AbstractDOMParser.cpp.obj
 0001:0003d067       ?getValidationScheme@AbstractDOMParser@xercesc_3_1@@QBE?AW4ValSchemes@12@XZ 1003e067 f   xerces-c_3_1:AbstractDOMParser.cpp.obj
 0001:0003d07e       ?setPSVIHandler@AbstractDOMParser@xercesc_3_1@@UAEXQAVPSVIHandler@2@@Z 1003e07e f   xerces-c_3_1:AbstractDOMParser.cpp.obj
 0001:0003d0a7       ?setValidationScheme@AbstractDOMParser@xercesc_3_1@@QAEXW4ValSchemes@12@@Z 1003e0a7 f   xerces-c_3_1:AbstractDOMParser.cpp.obj
 0001:0003d0e1       ?setSecurityManager@AbstractDOMParser@xercesc_3_1@@QAEXQAVSecurityManager@2@@Z 1003e0e1 f   xerces-c_3_1:AbstractDOMParser.cpp.obj
 0001:0003d136       ?useScanner@AbstractDOMParser@xercesc_3_1@@QAEXQB_W@Z 1003e136 f   xerces-c_3_1:AbstractDOMParser.cpp.obj
 0001:0003d180       ?setCreateSchemaInfo@AbstractDOMParser@xercesc_3_1@@QAEX_N@Z 1003e180 f   xerces-c_3_1:AbstractDOMParser.cpp.obj
 0001:0003d1a9       ?parse@AbstractDOMParser@xercesc_3_1@@QAEXABVInputSource@2@@Z 1003e1a9 f   xerces-c_3_1:AbstractDOMParser.cpp.obj
 0001:0003d262       ?parse@AbstractDOMParser@xercesc_3_1@@QAEXQB_W@Z 1003e262 f   xerces-c_3_1:AbstractDOMParser.cpp.obj
 0001:0003d31b       ?parse@AbstractDOMParser@xercesc_3_1@@QAEXQBD@Z 1003e31b f   xerces-c_3_1:AbstractDOMParser.cpp.obj
 0001:0003d3d4       ?handleElementPSVI@AbstractDOMParser@xercesc_3_1@@UAEXQB_W0PAVPSVIElement@2@@Z 1003e3d4 f   xerces-c_3_1:AbstractDOMParser.cpp.obj
 0001:0003d5de       ?handlePartialElementPSVI@AbstractDOMParser@xercesc_3_1@@UAEXQB_W0PAVPSVIElement@2@@Z 1003e5de f   xerces-c_3_1:AbstractDOMParser.cpp.obj
 0001:0003d5f2       ?handleAttributesPSVI@AbstractDOMParser@xercesc_3_1@@UAEXQB_W0PAVPSVIAttributeList@2@@Z 1003e5f2 f   xerces-c_3_1:AbstractDOMParser.cpp.obj
 0001:0003d89d       ?docCharacters@AbstractDOMParser@xercesc_3_1@@UAEXQB_WK_N@Z 1003e89d f   xerces-c_3_1:AbstractDOMParser.cpp.obj
 0001:0003d8fa       ?docComment@AbstractDOMParser@xercesc_3_1@@UAEXQB_W@Z 1003e8fa f   xerces-c_3_1:AbstractDOMParser.cpp.obj
 0001:0003d92b       ?docPI@AbstractDOMParser@xercesc_3_1@@UAEXQB_W0@Z 1003e92b f   xerces-c_3_1:AbstractDOMParser.cpp.obj
 0001:0003d959       ?endEntityReference@AbstractDOMParser@xercesc_3_1@@UAEXABVXMLEntityDecl@2@@Z 1003e959 f   xerces-c_3_1:AbstractDOMParser.cpp.obj
 0001:0003d9b2       ?endElement@AbstractDOMParser@xercesc_3_1@@UAEXABVXMLElementDecl@2@I_NQB_W@Z 1003e9b2 f   xerces-c_3_1:AbstractDOMParser.cpp.obj
 0001:0003dabf       ?ignorableWhitespace@AbstractDOMParser@xercesc_3_1@@UAEXQB_WK_N@Z 1003eabf f   xerces-c_3_1:AbstractDOMParser.cpp.obj
 0001:0003db3a       ?resetDocument@AbstractDOMParser@xercesc_3_1@@UAEXXZ 1003eb3a f   xerces-c_3_1:AbstractDOMParser.cpp.obj
 0001:0003db3f       ?startDocument@AbstractDOMParser@xercesc_3_1@@UAEXXZ 1003eb3f f   xerces-c_3_1:AbstractDOMParser.cpp.obj
 0001:0003dbe6       ?endDocument@AbstractDOMParser@xercesc_3_1@@UAEXXZ 1003ebe6 f   xerces-c_3_1:AbstractDOMParser.cpp.obj
 0001:0003dc0f       ?startElement@AbstractDOMParser@xercesc_3_1@@UAEXABVXMLElementDecl@2@IQB_WABV?$RefVectorOf@VXMLAttr@xercesc_3_1@@@2@K_N3@Z 1003ec0f f   xerces-c_3_1:AbstractDOMParser.cpp.obj
 0001:0003e1ef       ?startEntityReference@AbstractDOMParser@xercesc_3_1@@UAEXABVXMLEntityDecl@2@@Z 1003f1ef f   xerces-c_3_1:AbstractDOMParser.cpp.obj
 0001:0003e28c       ?XMLDecl@AbstractDOMParser@xercesc_3_1@@UAEXQB_W000@Z 1003f28c f   xerces-c_3_1:AbstractDOMParser.cpp.obj
 0001:0003e2e6       ?attDef@AbstractDOMParser@xercesc_3_1@@UAEXABVDTDElementDecl@2@ABVDTDAttDef@2@_N@Z 1003f2e6 f   xerces-c_3_1:AbstractDOMParser.cpp.obj
 0001:0003e4e2       ?doctypeComment@AbstractDOMParser@xercesc_3_1@@UAEXQB_W@Z 1003f4e2 f   xerces-c_3_1:AbstractDOMParser.cpp.obj
 0001:0003e546       ?doctypeDecl@AbstractDOMParser@xercesc_3_1@@UAEXABVDTDElementDecl@2@QB_W1_N2@Z 1003f546 f   xerces-c_3_1:AbstractDOMParser.cpp.obj
 0001:0003e57d       ?doctypePI@AbstractDOMParser@xercesc_3_1@@UAEXQB_W0@Z 1003f57d f   xerces-c_3_1:AbstractDOMParser.cpp.obj
 0001:0003e5d9       ?doctypeWhitespace@AbstractDOMParser@xercesc_3_1@@UAEXQB_WK@Z 1003f5d9 f   xerces-c_3_1:AbstractDOMParser.cpp.obj
 0001:0003e5f2       ?elementDecl@AbstractDOMParser@xercesc_3_1@@UAEXABVDTDElementDecl@2@_N@Z 1003f5f2 f   xerces-c_3_1:AbstractDOMParser.cpp.obj
 0001:0003e671       ?endAttList@AbstractDOMParser@xercesc_3_1@@UAEXABVDTDElementDecl@2@@Z 1003f671 f   xerces-c_3_1:AbstractDOMParser.cpp.obj
 0001:0003e8ae       ?endIntSubset@AbstractDOMParser@xercesc_3_1@@UAEXXZ 1003f8ae f   xerces-c_3_1:AbstractDOMParser.cpp.obj
 0001:0003e8d8       ?entityDecl@AbstractDOMParser@xercesc_3_1@@UAEXABVDTDEntityDecl@2@_N1@Z 1003f8d8 f   xerces-c_3_1:AbstractDOMParser.cpp.obj
 0001:0003eaa6       ?resetDocType@AbstractDOMParser@xercesc_3_1@@UAEXXZ 1003faa6 f   xerces-c_3_1:AbstractDOMParser.cpp.obj
 0001:0003eaab       ?notationDecl@AbstractDOMParser@xercesc_3_1@@UAEXABVXMLNotationDecl@2@_N@Z 1003faab f   xerces-c_3_1:AbstractDOMParser.cpp.obj
 0001:0003ec01       ?startAttList@AbstractDOMParser@xercesc_3_1@@UAEXABVDTDElementDecl@2@@Z 1003fc01 f   xerces-c_3_1:AbstractDOMParser.cpp.obj
 0001:0003ec54       ?startIntSubset@AbstractDOMParser@xercesc_3_1@@UAEXXZ 1003fc54 f   xerces-c_3_1:AbstractDOMParser.cpp.obj
 0001:0003ec5c       ?TextDecl@AbstractDOMParser@xercesc_3_1@@UAEXQB_W0@Z 1003fc5c f   xerces-c_3_1:AbstractDOMParser.cpp.obj
 0001:0003eca1       ?createCDATASection@AbstractDOMParser@xercesc_3_1@@MAEPAVDOMCDATASection@2@PB_WK@Z 1003fca1 f   xerces-c_3_1:AbstractDOMParser.cpp.obj
 0001:0003ed2a       ?createText@AbstractDOMParser@xercesc_3_1@@MAEPAVDOMText@2@PB_WK@Z 1003fd2a f   xerces-c_3_1:AbstractDOMParser.cpp.obj
 0001:0003edb3       ?createElement@AbstractDOMParser@xercesc_3_1@@MAEPAVDOMElement@2@PB_W@Z 1003fdb3 f   xerces-c_3_1:AbstractDOMParser.cpp.obj
 0001:0003ee01       ?createElementNS@AbstractDOMParser@xercesc_3_1@@MAEPAVDOMElement@2@PB_W000@Z 1003fe01 f   xerces-c_3_1:AbstractDOMParser.cpp.obj
 0001:0003ee58       ?createAttr@AbstractDOMParser@xercesc_3_1@@MAEPAVDOMAttr@2@PB_W@Z 1003fe58 f   xerces-c_3_1:AbstractDOMParser.cpp.obj
 0001:0003eeab       ?createAttrNS@AbstractDOMParser@xercesc_3_1@@MAEPAVDOMAttr@2@PB_W000@Z 1003feab f   xerces-c_3_1:AbstractDOMParser.cpp.obj
 0001:0003ef02       ??0?$RefVectorOf@VDOMDocumentImpl@xercesc_3_1@@@xercesc_3_1@@QAE@K_NQAVMemoryManager@1@@Z 1003ff02 f i xerces-c_3_1:AbstractDOMParser.cpp.obj
 0001:0003ef53       ??1?$JanitorMemFunCall@VAbstractDOMParser@xercesc_3_1@@@xercesc_3_1@@QAE@XZ 1003ff53 f i xerces-c_3_1:AbstractDOMParser.cpp.obj
 0001:0003ef53       ??1?$JanitorMemFunCall@VXMLScanner@xercesc_3_1@@@xercesc_3_1@@QAE@XZ 1003ff53 f i xerces-c_3_1:XMLScanner.cpp.obj
 0001:0003ef53       ??1?$JanitorMemFunCall@VSchemaGrammar@xercesc_3_1@@@xercesc_3_1@@QAE@XZ 1003ff53 f i xerces-c_3_1:SchemaGrammar.cpp.obj
 0001:0003ef53       ??1?$JanitorMemFunCall@VDOMXPathResultImpl@xercesc_3_1@@@xercesc_3_1@@QAE@XZ 1003ff53 f i xerces-c_3_1:DOMXPathExpressionImpl.cpp.obj
 0001:0003ef53       ??1?$JanitorMemFunCall@VIdentityConstraintHandler@xercesc_3_1@@@xercesc_3_1@@QAE@XZ 1003ff53 f i xerces-c_3_1:IdentityConstraintHandler.cpp.obj
 0001:0003ef53       ??1?$JanitorMemFunCall@VDOMLSParserImpl@xercesc_3_1@@@xercesc_3_1@@QAE@XZ 1003ff53 f i xerces-c_3_1:DOMLSParserImpl.cpp.obj
 0001:0003ef53       ??1?$JanitorMemFunCall@VIdentityConstraint@xercesc_3_1@@@xercesc_3_1@@QAE@XZ 1003ff53 f i xerces-c_3_1:IdentityConstraint.cpp.obj
 0001:0003ef53       ??1?$JanitorMemFunCall@VUnionDatatypeValidator@xercesc_3_1@@@xercesc_3_1@@QAE@XZ 1003ff53 f i xerces-c_3_1:UnionDatatypeValidator.cpp.obj
 0001:0003ef53       ??1?$JanitorMemFunCall@VWFXMLScanner@xercesc_3_1@@@xercesc_3_1@@QAE@XZ 1003ff53 f i xerces-c_3_1:WFXMLScanner.cpp.obj
 0001:0003ef53       ??1?$JanitorMemFunCall@VIGXMLScanner@xercesc_3_1@@@xercesc_3_1@@QAE@XZ 1003ff53 f i xerces-c_3_1:IGXMLScanner.cpp.obj
 0001:0003ef53       ??1?$JanitorMemFunCall@VXMLNotationDecl@xercesc_3_1@@@xercesc_3_1@@QAE@XZ 1003ff53 f i xerces-c_3_1:XMLNotationDecl.cpp.obj
 0001:0003ef53       ??1?$JanitorMemFunCall@VXMLBigDecimal@xercesc_3_1@@@xercesc_3_1@@QAE@XZ 1003ff53 f i xerces-c_3_1:XMLBigDecimal.cpp.obj
 0001:0003ef53       ??1?$JanitorMemFunCall@VXMLAttDef@xercesc_3_1@@@xercesc_3_1@@QAE@XZ 1003ff53 f i xerces-c_3_1:XMLAttDef.cpp.obj
 0001:0003ef53       ??1?$JanitorMemFunCall@VXMLURL@xercesc_3_1@@@xercesc_3_1@@QAE@XZ 1003ff53 f i xerces-c_3_1:XMLURL.cpp.obj
 0001:0003ef53       ??1?$JanitorMemFunCall@VXPathMatcher@xercesc_3_1@@@xercesc_3_1@@QAE@XZ 1003ff53 f i xerces-c_3_1:XPathMatcher.cpp.obj
 0001:0003ef53       ??1?$JanitorMemFunCall@VRegularExpression@xercesc_3_1@@@xercesc_3_1@@QAE@XZ 1003ff53 f i xerces-c_3_1:RegularExpression.cpp.obj
 0001:0003ef53       ??1?$JanitorMemFunCall@VXMLEntityDecl@xercesc_3_1@@@xercesc_3_1@@QAE@XZ 1003ff53 f i xerces-c_3_1:XMLEntityDecl.cpp.obj
 0001:0003ef53       ??1?$JanitorMemFunCall@VDGXMLScanner@xercesc_3_1@@@xercesc_3_1@@QAE@XZ 1003ff53 f i xerces-c_3_1:DGXMLScanner.cpp.obj
 0001:0003ef53       ??1?$JanitorMemFunCall@VXMLGrammarPoolImpl@xercesc_3_1@@@xercesc_3_1@@QAE@XZ 1003ff53 f i xerces-c_3_1:XMLGrammarPoolImpl.cpp.obj
 0001:0003ef53       ??1?$JanitorMemFunCall@VReaderMgr@xercesc_3_1@@@xercesc_3_1@@QAE@XZ 1003ff53 f i xerces-c_3_1:XMLScanner.cpp.obj
 0001:0003ef53       ??1?$JanitorMemFunCall@VSGXMLScanner@xercesc_3_1@@@xercesc_3_1@@QAE@XZ 1003ff53 f i xerces-c_3_1:SGXMLScanner.cpp.obj
 0001:0003ef53       ??1?$JanitorMemFunCall@VXMLUri@xercesc_3_1@@@xercesc_3_1@@QAE@XZ 1003ff53 f i xerces-c_3_1:XMLUri.cpp.obj
 0001:0003ef53       ??1?$JanitorMemFunCall@VQName@xercesc_3_1@@@xercesc_3_1@@QAE@XZ 1003ff53 f i xerces-c_3_1:QName.cpp.obj
 0001:0003ef53       ??1?$JanitorMemFunCall@VDOMXPathExpressionImpl@xercesc_3_1@@@xercesc_3_1@@QAE@XZ 1003ff53 f i xerces-c_3_1:DOMXPathExpressionImpl.cpp.obj
 0001:0003ef53       ??1?$JanitorMemFunCall@VXercesXPath@xercesc_3_1@@@xercesc_3_1@@QAE@XZ 1003ff53 f i xerces-c_3_1:XercesXPath.cpp.obj
 0001:0003ef91       ?release@?$JanitorMemFunCall@VXMLNotationDecl@xercesc_3_1@@@xercesc_3_1@@QAEPAVXMLNotationDecl@2@XZ 1003ff91 f i xerces-c_3_1:XMLNotationDecl.cpp.obj
 0001:0003ef91       ?release@?$JanitorMemFunCall@VWFXMLScanner@xercesc_3_1@@@xercesc_3_1@@QAEPAVWFXMLScanner@2@XZ 1003ff91 f i xerces-c_3_1:WFXMLScanner.cpp.obj
 0001:0003ef91       ?release@?$JanitorMemFunCall@VSchemaGrammar@xercesc_3_1@@@xercesc_3_1@@QAEPAVSchemaGrammar@2@XZ 1003ff91 f i xerces-c_3_1:SchemaGrammar.cpp.obj
 0001:0003ef91       ?release@?$JanitorMemFunCall@VXercesXPath@xercesc_3_1@@@xercesc_3_1@@QAEPAVXercesXPath@2@XZ 1003ff91 f i xerces-c_3_1:XercesXPath.cpp.obj
 0001:0003ef91       ?release@?$JanitorMemFunCall@VIdentityConstraint@xercesc_3_1@@@xercesc_3_1@@QAEPAVIdentityConstraint@2@XZ 1003ff91 f i xerces-c_3_1:IdentityConstraint.cpp.obj
 0001:0003ef91       ?release@?$JanitorMemFunCall@VQName@xercesc_3_1@@@xercesc_3_1@@QAEPAVQName@2@XZ 1003ff91 f i xerces-c_3_1:QName.cpp.obj
 0001:0003ef91       ?release@?$JanitorMemFunCall@VXPathMatcherStack@xercesc_3_1@@@xercesc_3_1@@QAEPAVXPathMatcherStack@2@XZ 1003ff91 f i xerces-c_3_1:XPathMatcherStack.cpp.obj
 0001:0003ef91       ?release@?$Janitor@VXMLDateTime@xercesc_3_1@@@xercesc_3_1@@QAEPAVXMLDateTime@2@XZ 1003ff91 f i xerces-c_3_1:MonthDayDatatypeValidator.cpp.obj
 0001:0003ef91       ?release@?$JanitorMemFunCall@VBMPattern@xercesc_3_1@@@xercesc_3_1@@QAEPAVBMPattern@2@XZ 1003ff91 f i xerces-c_3_1:BMPattern.cpp.obj
 0001:0003ef91       ?release@?$JanitorMemFunCall@VSGXMLScanner@xercesc_3_1@@@xercesc_3_1@@QAEPAVSGXMLScanner@2@XZ 1003ff91 f i xerces-c_3_1:SGXMLScanner.cpp.obj
 0001:0003ef91       ?release@?$JanitorMemFunCall@VValueStoreCache@xercesc_3_1@@@xercesc_3_1@@QAEPAVValueStoreCache@2@XZ 1003ff91 f i xerces-c_3_1:ValueStoreCache.cpp.obj
 0001:0003ef91       ?release@?$Janitor@V?$BaseRefVectorOf@_W@xercesc_3_1@@@xercesc_3_1@@QAEPAV?$BaseRefVectorOf@_W@2@XZ 1003ff91 f i xerces-c_3_1:ListDatatypeValidator.cpp.obj
 0001:0003ef91       ?release@?$JanitorMemFunCall@VAbstractDOMParser@xercesc_3_1@@@xercesc_3_1@@QAEPAVAbstractDOMParser@2@XZ 1003ff91 f i xerces-c_3_1:AbstractDOMParser.cpp.obj
 0001:0003ef91       ?release@?$JanitorMemFunCall@VRegularExpression@xercesc_3_1@@@xercesc_3_1@@QAEPAVRegularExpression@2@XZ 1003ff91 f i xerces-c_3_1:RegularExpression.cpp.obj
 0001:0003ef91       ?release@?$JanitorMemFunCall@VXMLBigDecimal@xercesc_3_1@@@xercesc_3_1@@QAEPAVXMLBigDecimal@2@XZ 1003ff91 f i xerces-c_3_1:XMLBigDecimal.cpp.obj
 0001:0003ef91       ?release@?$JanitorMemFunCall@VFieldValueMap@xercesc_3_1@@@xercesc_3_1@@QAEPAVFieldValueMap@2@XZ 1003ff91 f i xerces-c_3_1:FieldValueMap.cpp.obj
 0001:0003ef91       ?release@?$JanitorMemFunCall@VDOMXPathExpressionImpl@xercesc_3_1@@@xercesc_3_1@@QAEPAVDOMXPathExpressionImpl@2@XZ 1003ff91 f i xerces-c_3_1:DOMXPathExpressionImpl.cpp.obj
 0001:0003ef91       ?release@?$JanitorMemFunCall@VXMLAttDef@xercesc_3_1@@@xercesc_3_1@@QAEPAVXMLAttDef@2@XZ 1003ff91 f i xerces-c_3_1:XMLAttDef.cpp.obj
 0001:0003ef91       ?release@?$JanitorMemFunCall@VReaderMgr@xercesc_3_1@@@xercesc_3_1@@QAEPAVReaderMgr@2@XZ 1003ff91 f i xerces-c_3_1:XMLScanner.cpp.obj
 0001:0003ef91       ?release@?$JanitorMemFunCall@VIdentityConstraintHandler@xercesc_3_1@@@xercesc_3_1@@QAEPAVIdentityConstraintHandler@2@XZ 1003ff91 f i xerces-c_3_1:IdentityConstraintHandler.cpp.obj
 0001:0003ef91       ?release@?$Janitor@VBinInputStream@xercesc_3_1@@@xercesc_3_1@@QAEPAVBinInputStream@2@XZ 1003ff91 f i xerces-c_3_1:ReaderMgr.cpp.obj
 0001:0003ef91       ?release@?$JanitorMemFunCall@VXMLAttr@xercesc_3_1@@@xercesc_3_1@@QAEPAVXMLAttr@2@XZ 1003ff91 f i xerces-c_3_1:XMLAttr.cpp.obj
 0001:0003ef91       ?release@?$JanitorMemFunCall@VXPathMatcher@xercesc_3_1@@@xercesc_3_1@@QAEPAVXPathMatcher@2@XZ 1003ff91 f i xerces-c_3_1:XPathMatcher.cpp.obj
 0001:0003ef91       ?release@?$JanitorMemFunCall@VXMLURL@xercesc_3_1@@@xercesc_3_1@@QAEPAVXMLURL@2@XZ 1003ff91 f i xerces-c_3_1:XMLURL.cpp.obj
 0001:0003ef91       ?release@?$JanitorMemFunCall@VXMLScanner@xercesc_3_1@@@xercesc_3_1@@QAEPAVXMLScanner@2@XZ 1003ff91 f i xerces-c_3_1:XMLScanner.cpp.obj
 0001:0003ef91       ?release@?$JanitorMemFunCall@VXMLGrammarPoolImpl@xercesc_3_1@@@xercesc_3_1@@QAEPAVXMLGrammarPoolImpl@2@XZ 1003ff91 f i xerces-c_3_1:XMLGrammarPoolImpl.cpp.obj
 0001:0003ef91       ?release@?$JanitorMemFunCall@VRangeTokenMap@xercesc_3_1@@@xercesc_3_1@@QAEPAVRangeTokenMap@2@XZ 1003ff91 f i xerces-c_3_1:RangeTokenMap.cpp.obj
 0001:0003ef91       ?release@?$JanitorMemFunCall@VXMLEntityDecl@xercesc_3_1@@@xercesc_3_1@@QAEPAVXMLEntityDecl@2@XZ 1003ff91 f i xerces-c_3_1:XMLEntityDecl.cpp.obj
 0001:0003ef91       ?release@?$JanitorMemFunCall@VDGXMLScanner@xercesc_3_1@@@xercesc_3_1@@QAEPAVDGXMLScanner@2@XZ 1003ff91 f i xerces-c_3_1:DGXMLScanner.cpp.obj
 0001:0003ef91       ?release@?$JanitorMemFunCall@VXMLStringTokenizer@xercesc_3_1@@@xercesc_3_1@@QAEPAVXMLStringTokenizer@2@XZ 1003ff91 f i xerces-c_3_1:XMLStringTokenizer.cpp.obj
 0001:0003ef91       ?release@?$JanitorMemFunCall@VXMLUri@xercesc_3_1@@@xercesc_3_1@@QAEPAVXMLUri@2@XZ 1003ff91 f i xerces-c_3_1:XMLUri.cpp.obj
 0001:0003ef91       ?release@?$JanitorMemFunCall@VIGXMLScanner@xercesc_3_1@@@xercesc_3_1@@QAEPAVIGXMLScanner@2@XZ 1003ff91 f i xerces-c_3_1:IGXMLScanner.cpp.obj
 0001:0003ef91       ?release@?$JanitorMemFunCall@VDOMLSParserImpl@xercesc_3_1@@@xercesc_3_1@@QAEPAVDOMLSParserImpl@2@XZ 1003ff91 f i xerces-c_3_1:DOMLSParserImpl.cpp.obj
 0001:0003ef91       ?release@?$JanitorMemFunCall@VUnionDatatypeValidator@xercesc_3_1@@@xercesc_3_1@@QAEPAVUnionDatatypeValidator@2@XZ 1003ff91 f i xerces-c_3_1:UnionDatatypeValidator.cpp.obj
 0001:0003ef91       ?release@?$JanitorMemFunCall@VTraverseSchema@xercesc_3_1@@@xercesc_3_1@@QAEPAVTraverseSchema@2@XZ 1003ff91 f i xerces-c_3_1:TraverseSchema.cpp.obj
 0001:0003ef97       ?addElement@?$BaseRefVectorOf@VReferencePosition@RegxParser@xercesc_3_1@@@xercesc_3_1@@QAEXQAVReferencePosition@RegxParser@2@@Z 1003ff97 f i xerces-c_3_1:RegxParser.cpp.obj
 0001:0003ef97       ?addElement@?$BaseRefVectorOf@VDOMImplementation@xercesc_3_1@@@xercesc_3_1@@QAEXQAVDOMImplementation@2@@Z 1003ff97 f i xerces-c_3_1:DOMImplementationListImpl.cpp.obj
 0001:0003ef97       ?addElement@?$BaseRefVectorOf@_W@xercesc_3_1@@QAEXQA_W@Z 1003ff97 f i xerces-c_3_1:XMLString.cpp.obj
 0001:0003ef97       ?addElement@?$BaseRefVectorOf@VDOMDocumentImpl@xercesc_3_1@@@xercesc_3_1@@QAEXQAVDOMDocumentImpl@2@@Z 1003ff97 f i xerces-c_3_1:AbstractDOMParser.cpp.obj
 0001:0003ef97       ?addElement@?$BaseRefVectorOf@VXMLEntityDecl@xercesc_3_1@@@xercesc_3_1@@QAEXQAVXMLEntityDecl@2@@Z 1003ff97 f i xerces-c_3_1:ReaderMgr.cpp.obj
 0001:0003ef97       ?addElement@?$BaseRefVectorOf@VDOMRangeImpl@xercesc_3_1@@@xercesc_3_1@@QAEXQAVDOMRangeImpl@2@@Z 1003ff97 f i xerces-c_3_1:DOMDocumentImpl.cpp.obj
 0001:0003ef97       ?addElement@?$BaseRefVectorOf@VXSAttributeUse@xercesc_3_1@@@xercesc_3_1@@QAEXQAVXSAttributeUse@2@@Z 1003ff97 f i xerces-c_3_1:XSObjectFactory.cpp.obj
 0001:0003ef97       ?addElement@?$BaseRefVectorOf@VDOMBuffer@xercesc_3_1@@@xercesc_3_1@@QAEXQAVDOMBuffer@2@@Z 1003ff97 f i xerces-c_3_1:DOMDocumentImpl.cpp.obj
 0001:0003ef97       ?addElement@?$BaseRefVectorOf@VXSIDCDefinition@xercesc_3_1@@@xercesc_3_1@@QAEXQAVXSIDCDefinition@2@@Z 1003ff97 f i xerces-c_3_1:XSObjectFactory.cpp.obj
 0001:0003ef97       ?addElement@?$BaseRefVectorOf@VDatatypeValidator@xercesc_3_1@@@xercesc_3_1@@QAEXQAVDatatypeValidator@2@@Z 1003ff97 f i xerces-c_3_1:XTemplateSerializer.cpp.obj
 0001:0003ef97       ?addElement@?$BaseRefVectorOf@VXMLAttr@xercesc_3_1@@@xercesc_3_1@@QAEXQAVXMLAttr@2@@Z 1003ff97 f i xerces-c_3_1:DOMXPathExpressionImpl.cpp.obj
 0001:0003ef97       ?addElement@?$BaseRefVectorOf@VValueStore@xercesc_3_1@@@xercesc_3_1@@QAEXQAVValueStore@2@@Z 1003ff97 f i xerces-c_3_1:ValueStoreCache.cpp.obj
 0001:0003ef97       ?addElement@?$BaseRefVectorOf@V?$RefHashTableOf@_WUStringHasher@xercesc_3_1@@@xercesc_3_1@@@xercesc_3_1@@QAEXQAV?$RefHashTableOf@_WUStringHasher@xercesc_3_1@@@2@@Z 1003ff97 f i xerces-c_3_1:DOMLSSerializerImpl.cpp.obj
 0001:0003ef97       ?addElement@?$BaseRefVectorOf@VXMLReader@xercesc_3_1@@@xercesc_3_1@@QAEXQAVXMLReader@2@@Z 1003ff97 f i xerces-c_3_1:ReaderMgr.cpp.obj
 0001:0003ef97       ?addElement@?$BaseRefVectorOf@V?$RefHashTableOf@VValueStore@xercesc_3_1@@UPtrHasher@2@@xercesc_3_1@@@xercesc_3_1@@QAEXQAV?$RefHashTableOf@VValueStore@xercesc_3_1@@UPtrHasher@2@@2@@Z 1003ff97 f i xerces-c_3_1:ValueStoreCache.cpp.obj
 0001:0003ef97       ?addElement@?$BaseRefVectorOf@VSchemaElementDecl@xercesc_3_1@@@xercesc_3_1@@QAEXQAVSchemaElementDecl@2@@Z 1003ff97 f i xerces-c_3_1:XTemplateSerializer.cpp.obj
 0001:0003ef97       ?addElement@?$BaseRefVectorOf@VSchemaAttDef@xercesc_3_1@@@xercesc_3_1@@QAEXQAVSchemaAttDef@2@@Z 1003ff97 f i xerces-c_3_1:XTemplateSerializer.cpp.obj
 0001:0003ef97       ?addElement@?$BaseRefVectorOf@VXSSimpleTypeDefinition@xercesc_3_1@@@xercesc_3_1@@QAEXQAVXSSimpleTypeDefinition@2@@Z 1003ff97 f i xerces-c_3_1:XSObjectFactory.cpp.obj
 0001:0003ef97       ?addElement@?$BaseRefVectorOf@VXSParticle@xercesc_3_1@@@xercesc_3_1@@QAEXQAVXSParticle@2@@Z 1003ff97 f i xerces-c_3_1:XSObjectFactory.cpp.obj
 0001:0003ef97       ?addElement@?$BaseRefVectorOf@VKVStringPair@xercesc_3_1@@@xercesc_3_1@@QAEXQAVKVStringPair@2@@Z 1003ff97 f i xerces-c_3_1:SGXMLScanner.cpp.obj
 0001:0003ef97       ?addElement@?$BaseRefVectorOf@VSchemaInfo@xercesc_3_1@@@xercesc_3_1@@QAEXQAVSchemaInfo@2@@Z 1003ff97 f i xerces-c_3_1:TraverseSchema.cpp.obj
 0001:0003ef97       ?addElement@?$BaseRefVectorOf@VIdentityConstraint@xercesc_3_1@@@xercesc_3_1@@QAEXQAVIdentityConstraint@2@@Z 1003ff97 f i xerces-c_3_1:XTemplateSerializer.cpp.obj
 0001:0003ef97       ?addElement@?$BaseRefVectorOf@VIC_Field@xercesc_3_1@@@xercesc_3_1@@QAEXQAVIC_Field@2@@Z 1003ff97 f i xerces-c_3_1:XTemplateSerializer.cpp.obj
 0001:0003ef97       ?addElement@?$BaseRefVectorOf@VToken@xercesc_3_1@@@xercesc_3_1@@QAEXQAVToken@2@@Z 1003ff97 f i xerces-c_3_1:TokenFactory.cpp.obj
 0001:0003ef97       ?addElement@?$BaseRefVectorOf@VOp@xercesc_3_1@@@xercesc_3_1@@QAEXQAVOp@2@@Z 1003ff97 f i xerces-c_3_1:OpFactory.cpp.obj
 0001:0003ef97       ?addElement@?$BaseRefVectorOf@VPSVIAttributeStorage@xercesc_3_1@@@xercesc_3_1@@QAEXQAVPSVIAttributeStorage@2@@Z 1003ff97 f i xerces-c_3_1:SGXMLScanner.cpp.obj
 0001:0003ef97       ?addElement@?$BaseRefVectorOf@V?$ValueStackOf@K@xercesc_3_1@@@xercesc_3_1@@QAEXQAV?$ValueStackOf@K@2@@Z 1003ff97 f i xerces-c_3_1:XPathMatcher.cpp.obj
 0001:0003ef97       ?addElement@?$BaseRefVectorOf@VXPathMatcher@xercesc_3_1@@@xercesc_3_1@@QAEXQAVXPathMatcher@2@@Z 1003ff97 f i xerces-c_3_1:IdentityConstraintHandler.cpp.obj
 0001:0003ef97       ?addElement@?$BaseRefVectorOf@VDOMNodeIteratorImpl@xercesc_3_1@@@xercesc_3_1@@QAEXQAVDOMNodeIteratorImpl@2@@Z 1003ff97 f i xerces-c_3_1:DOMDocumentImpl.cpp.obj
 0001:0003ef97       ?addElement@?$BaseRefVectorOf@VXSObject@xercesc_3_1@@@xercesc_3_1@@QAEXQAVXSObject@2@@Z 1003ff97 f i xerces-c_3_1:XSModel.cpp.obj
 0001:0003ef97       ?addElement@?$BaseRefVectorOf@VXSFacet@xercesc_3_1@@@xercesc_3_1@@QAEXQAVXSFacet@2@@Z 1003ff97 f i xerces-c_3_1:XSObjectFactory.cpp.obj
 0001:0003ef97       ?addElement@?$BaseRefVectorOf@VXSAnnotation@xercesc_3_1@@@xercesc_3_1@@QAEXQAVXSAnnotation@2@@Z 1003ff97 f i xerces-c_3_1:XSModel.cpp.obj
 0001:0003ef97       ?addElement@?$BaseRefVectorOf@VXercesLocationPath@xercesc_3_1@@@xercesc_3_1@@QAEXQAVXercesLocationPath@2@@Z 1003ff97 f i xerces-c_3_1:XercesXPath.cpp.obj
 0001:0003ef97       ?addElement@?$BaseRefVectorOf@VXMLElementDecl@xercesc_3_1@@@xercesc_3_1@@QAEXQAVXMLElementDecl@2@@Z 1003ff97 f i xerces-c_3_1:WFXMLScanner.cpp.obj
 0001:0003ef97       ?addElement@?$BaseRefVectorOf@VXSMultiValueFacet@xercesc_3_1@@@xercesc_3_1@@QAEXQAVXSMultiValueFacet@2@@Z 1003ff97 f i xerces-c_3_1:XSObjectFactory.cpp.obj
 0001:0003ef97       ?addElement@?$BaseRefVectorOf@VXSNamespaceItem@xercesc_3_1@@@xercesc_3_1@@QAEXQAVXSNamespaceItem@2@@Z 1003ff97 f i xerces-c_3_1:XSModel.cpp.obj
 0001:0003ef97       ?addElement@?$BaseRefVectorOf@VScope@InScopeNamespaces@DOMNormalizer@xercesc_3_1@@@xercesc_3_1@@QAEXQAVScope@InScopeNamespaces@DOMNormalizer@2@@Z 1003ff97 f i xerces-c_3_1:DOMNormalizer.cpp.obj
 0001:0003ef97       ?addElement@?$BaseRefVectorOf@VDOMNode@xercesc_3_1@@@xercesc_3_1@@QAEXQAVDOMNode@2@@Z 1003ff97 f i xerces-c_3_1:DOMDocumentImpl.cpp.obj
 0001:0003f01b       ?setElementAt@?$BaseRefVectorOf@VDatatypeValidator@xercesc_3_1@@@xercesc_3_1@@UAEXQAVDatatypeValidator@2@K@Z 1004001b f i xerces-c_3_1:XTemplateSerializer.cpp.obj
 0001:0003f01b       ?setElementAt@?$BaseRefVectorOf@VXSAttributeUse@xercesc_3_1@@@xercesc_3_1@@UAEXQAVXSAttributeUse@2@K@Z 1004001b f i xerces-c_3_1:XSObjectFactory.cpp.obj
 0001:0003f01b       ?setElementAt@?$BaseRefVectorOf@VXSIDCDefinition@xercesc_3_1@@@xercesc_3_1@@UAEXQAVXSIDCDefinition@2@K@Z 1004001b f i xerces-c_3_1:XSObjectFactory.cpp.obj
 0001:0003f01b       ?setElementAt@?$BaseRefVectorOf@VDOMRangeImpl@xercesc_3_1@@@xercesc_3_1@@UAEXQAVDOMRangeImpl@2@K@Z 1004001b f i xerces-c_3_1:DOMDocumentImpl.cpp.obj
 0001:0003f01b       ?setElementAt@?$BaseRefVectorOf@VXSAnnotation@xercesc_3_1@@@xercesc_3_1@@UAEXQAVXSAnnotation@2@K@Z 1004001b f i xerces-c_3_1:XSModel.cpp.obj
 0001:0003f01b       ?setElementAt@?$BaseRefVectorOf@VXSSimpleTypeDefinition@xercesc_3_1@@@xercesc_3_1@@UAEXQAVXSSimpleTypeDefinition@2@K@Z 1004001b f i xerces-c_3_1:XSObjectFactory.cpp.obj
 0001:0003f01b       ?setElementAt@?$BaseRefVectorOf@VIdentityConstraint@xercesc_3_1@@@xercesc_3_1@@UAEXQAVIdentityConstraint@2@K@Z 1004001b f i xerces-c_3_1:XTemplateSerializer.cpp.obj
 0001:0003f01b       ?setElementAt@?$BaseRefVectorOf@VSchemaAttDef@xercesc_3_1@@@xercesc_3_1@@UAEXQAVSchemaAttDef@2@K@Z 1004001b f i xerces-c_3_1:XTemplateSerializer.cpp.obj
 0001:0003f01b       ?setElementAt@?$BaseRefVectorOf@VDOMNode@xercesc_3_1@@@xercesc_3_1@@UAEXQAVDOMNode@2@K@Z 1004001b f i xerces-c_3_1:DOMDocumentImpl.cpp.obj
 0001:0003f01b       ?setElementAt@?$BaseRefVectorOf@VIC_Field@xercesc_3_1@@@xercesc_3_1@@UAEXQAVIC_Field@2@K@Z 1004001b f i xerces-c_3_1:XTemplateSerializer.cpp.obj
 0001:0003f01b       ?setElementAt@?$BaseRefVectorOf@VSchemaElementDecl@xercesc_3_1@@@xercesc_3_1@@UAEXQAVSchemaElementDecl@2@K@Z 1004001b f i xerces-c_3_1:XTemplateSerializer.cpp.obj
 0001:0003f01b       ?setElementAt@?$BaseRefVectorOf@VXSFacet@xercesc_3_1@@@xercesc_3_1@@UAEXQAVXSFacet@2@K@Z 1004001b f i xerces-c_3_1:XSObjectFactory.cpp.obj
 0001:0003f01b       ?setElementAt@?$BaseRefVectorOf@VENameMap@xercesc_3_1@@@xercesc_3_1@@UAEXQAVENameMap@2@K@Z 1004001b f i xerces-c_3_1:TransService.cpp.obj
 0001:0003f01b       ?setElementAt@?$BaseRefVectorOf@VToken@xercesc_3_1@@@xercesc_3_1@@UAEXQAVToken@2@K@Z 1004001b f i xerces-c_3_1:TokenFactory.cpp.obj
 0001:0003f01b       ?setElementAt@?$BaseRefVectorOf@VXMLEntityDecl@xercesc_3_1@@@xercesc_3_1@@UAEXQAVXMLEntityDecl@2@K@Z 1004001b f i xerces-c_3_1:ReaderMgr.cpp.obj
 0001:0003f01b       ?setElementAt@?$BaseRefVectorOf@VXMLNumber@xercesc_3_1@@@xercesc_3_1@@UAEXQAVXMLNumber@2@K@Z 1004001b f i xerces-c_3_1:XTemplateSerializer.cpp.obj
 0001:0003f01b       ?setElementAt@?$BaseRefVectorOf@VDOMImplementation@xercesc_3_1@@@xercesc_3_1@@UAEXQAVDOMImplementation@2@K@Z 1004001b f i xerces-c_3_1:DOMImplementationListImpl.cpp.obj
 0001:0003f01b       ?setElementAt@?$BaseRefVectorOf@VXSParticle@xercesc_3_1@@@xercesc_3_1@@UAEXQAVXSParticle@2@K@Z 1004001b f i xerces-c_3_1:XSObjectFactory.cpp.obj
 0001:0003f01b       ?setElementAt@?$BaseRefVectorOf@VDOMImplementationSource@xercesc_3_1@@@xercesc_3_1@@UAEXQAVDOMImplementationSource@2@K@Z 1004001b f i xerces-c_3_1:DOMImplementationRegistry.cpp.obj
 0001:0003f01b       ?setElementAt@?$BaseRefVectorOf@VXercesStep@xercesc_3_1@@@xercesc_3_1@@UAEXQAVXercesStep@2@K@Z 1004001b f i xerces-c_3_1:XercesXPath.cpp.obj
 0001:0003f01b       ?setElementAt@?$BaseRefVectorOf@VXSMultiValueFacet@xercesc_3_1@@@xercesc_3_1@@UAEXQAVXSMultiValueFacet@2@K@Z 1004001b f i xerces-c_3_1:XSObjectFactory.cpp.obj
 0001:0003f01b       ?setElementAt@?$BaseRefVectorOf@VXercesLocationPath@xercesc_3_1@@@xercesc_3_1@@UAEXQAVXercesLocationPath@2@K@Z 1004001b f i xerces-c_3_1:XercesXPath.cpp.obj
 0001:0003f01b       ?setElementAt@?$BaseRefVectorOf@VOp@xercesc_3_1@@@xercesc_3_1@@UAEXQAVOp@2@K@Z 1004001b f i xerces-c_3_1:OpFactory.cpp.obj
 0001:0003f01b       ?setElementAt@?$BaseRefVectorOf@VXSObject@xercesc_3_1@@@xercesc_3_1@@UAEXQAVXSObject@2@K@Z 1004001b f i xerces-c_3_1:XSModel.cpp.obj
 0001:0003f01b       ?setElementAt@?$BaseRefVectorOf@VDOMNodeIteratorImpl@xercesc_3_1@@@xercesc_3_1@@UAEXQAVDOMNodeIteratorImpl@2@K@Z 1004001b f i xerces-c_3_1:DOMDocumentImpl.cpp.obj
 0001:0003f01b       ?setElementAt@?$BaseRefVectorOf@VXMLElementDecl@xercesc_3_1@@@xercesc_3_1@@UAEXQAVXMLElementDecl@2@K@Z 1004001b f i xerces-c_3_1:WFXMLScanner.cpp.obj
 0001:0003f01b       ?setElementAt@?$BaseRefVectorOf@VDOMDocumentImpl@xercesc_3_1@@@xercesc_3_1@@UAEXQAVDOMDocumentImpl@2@K@Z 1004001b f i xerces-c_3_1:AbstractDOMParser.cpp.obj
 0001:0003f01b       ?setElementAt@?$BaseRefVectorOf@VKVStringPair@xercesc_3_1@@@xercesc_3_1@@UAEXQAVKVStringPair@2@K@Z 1004001b f i xerces-c_3_1:SGXMLScanner.cpp.obj
 0001:0003f01b       ?setElementAt@?$BaseRefVectorOf@VXPathMatcher@xercesc_3_1@@@xercesc_3_1@@UAEXQAVXPathMatcher@2@K@Z 1004001b f i xerces-c_3_1:XPathMatcherStack.cpp.obj
 0001:0003f077       ?removeAllElements@?$BaseRefVectorOf@VDatatypeValidator@xercesc_3_1@@@xercesc_3_1@@UAEXXZ 10040077 f i xerces-c_3_1:XTemplateSerializer.cpp.obj
 0001:0003f077       ?removeAllElements@?$BaseRefVectorOf@VIC_Field@xercesc_3_1@@@xercesc_3_1@@UAEXXZ 10040077 f i xerces-c_3_1:XTemplateSerializer.cpp.obj
 0001:0003f077       ?removeAllElements@?$BaseRefVectorOf@VXSMultiValueFacet@xercesc_3_1@@@xercesc_3_1@@UAEXXZ 10040077 f i xerces-c_3_1:XSObjectFactory.cpp.obj
 0001:0003f077       ?removeAllElements@?$BaseRefVectorOf@VXPathMatcher@xercesc_3_1@@@xercesc_3_1@@UAEXXZ 10040077 f i xerces-c_3_1:XPathMatcherStack.cpp.obj
 0001:0003f077       ?removeAllElements@?$BaseRefVectorOf@VXercesLocationPath@xercesc_3_1@@@xercesc_3_1@@UAEXXZ 10040077 f i xerces-c_3_1:XercesXPath.cpp.obj
 0001:0003f077       ?removeAllElements@?$BaseRefVectorOf@VOp@xercesc_3_1@@@xercesc_3_1@@UAEXXZ 10040077 f i xerces-c_3_1:OpFactory.cpp.obj
 0001:0003f077       ?removeAllElements@?$BaseRefVectorOf@VXMLNumber@xercesc_3_1@@@xercesc_3_1@@UAEXXZ 10040077 f i xerces-c_3_1:XTemplateSerializer.cpp.obj
 0001:0003f077       ?removeAllElements@?$BaseRefVectorOf@VDOMImplementationSource@xercesc_3_1@@@xercesc_3_1@@UAEXXZ 10040077 f i xerces-c_3_1:DOMImplementationRegistry.cpp.obj
 0001:0003f077       ?removeAllElements@?$BaseRefVectorOf@VXSFacet@xercesc_3_1@@@xercesc_3_1@@UAEXXZ 10040077 f i xerces-c_3_1:XSObjectFactory.cpp.obj
 0001:0003f077       ?removeAllElements@?$BaseRefVectorOf@VKVStringPair@xercesc_3_1@@@xercesc_3_1@@UAEXXZ 10040077 f i xerces-c_3_1:SGXMLScanner.cpp.obj
 0001:0003f077       ?removeAllElements@?$BaseRefVectorOf@VXercesStep@xercesc_3_1@@@xercesc_3_1@@UAEXXZ 10040077 f i xerces-c_3_1:XercesXPath.cpp.obj
 0001:0003f077       ?removeAllElements@?$BaseRefVectorOf@VSchemaAttDef@xercesc_3_1@@@xercesc_3_1@@UAEXXZ 10040077 f i xerces-c_3_1:XTemplateSerializer.cpp.obj
 0001:0003f077       ?removeAllElements@?$BaseRefVectorOf@VXSParticle@xercesc_3_1@@@xercesc_3_1@@UAEXXZ 10040077 f i xerces-c_3_1:XSObjectFactory.cpp.obj
 0001:0003f077       ?removeAllElements@?$BaseRefVectorOf@VDOMImplementation@xercesc_3_1@@@xercesc_3_1@@UAEXXZ 10040077 f i xerces-c_3_1:DOMImplementationListImpl.cpp.obj
 0001:0003f077       ?removeAllElements@?$BaseRefVectorOf@VToken@xercesc_3_1@@@xercesc_3_1@@UAEXXZ 10040077 f i xerces-c_3_1:TokenFactory.cpp.obj
 0001:0003f077       ?removeAllElements@?$BaseRefVectorOf@VXSObject@xercesc_3_1@@@xercesc_3_1@@UAEXXZ 10040077 f i xerces-c_3_1:XSModel.cpp.obj
 0001:0003f077       ?removeAllElements@?$BaseRefVectorOf@VDOMNodeIteratorImpl@xercesc_3_1@@@xercesc_3_1@@UAEXXZ 10040077 f i xerces-c_3_1:DOMDocumentImpl.cpp.obj
 0001:0003f077       ?removeAllElements@?$BaseRefVectorOf@VXSAnnotation@xercesc_3_1@@@xercesc_3_1@@UAEXXZ 10040077 f i xerces-c_3_1:XSModel.cpp.obj
 0001:0003f077       ?removeAllElements@?$BaseRefVectorOf@VXMLEntityDecl@xercesc_3_1@@@xercesc_3_1@@UAEXXZ 10040077 f i xerces-c_3_1:ReaderMgr.cpp.obj
 0001:0003f077       ?removeAllElements@?$BaseRefVectorOf@VXMLElementDecl@xercesc_3_1@@@xercesc_3_1@@UAEXXZ 10040077 f i xerces-c_3_1:WFXMLScanner.cpp.obj
 0001:0003f077       ?removeAllElements@?$BaseRefVectorOf@VENameMap@xercesc_3_1@@@xercesc_3_1@@UAEXXZ 10040077 f i xerces-c_3_1:TransService.cpp.obj
 0001:0003f077       ?removeAllElements@?$BaseRefVectorOf@VDOMRangeImpl@xercesc_3_1@@@xercesc_3_1@@UAEXXZ 10040077 f i xerces-c_3_1:DOMDocumentImpl.cpp.obj
 0001:0003f077       ?removeAllElements@?$BaseRefVectorOf@VDOMNode@xercesc_3_1@@@xercesc_3_1@@UAEXXZ 10040077 f i xerces-c_3_1:DOMDocumentImpl.cpp.obj
 0001:0003f077       ?removeAllElements@?$BaseRefVectorOf@VSchemaElementDecl@xercesc_3_1@@@xercesc_3_1@@UAEXXZ 10040077 f i xerces-c_3_1:XTemplateSerializer.cpp.obj
 0001:0003f077       ?removeAllElements@?$BaseRefVectorOf@VXSIDCDefinition@xercesc_3_1@@@xercesc_3_1@@UAEXXZ 10040077 f i xerces-c_3_1:XSObjectFactory.cpp.obj
 0001:0003f077       ?removeAllElements@?$BaseRefVectorOf@VDOMDocumentImpl@xercesc_3_1@@@xercesc_3_1@@UAEXXZ 10040077 f i xerces-c_3_1:AbstractDOMParser.cpp.obj
 0001:0003f077       ?removeAllElements@?$BaseRefVectorOf@VXSSimpleTypeDefinition@xercesc_3_1@@@xercesc_3_1@@UAEXXZ 10040077 f i xerces-c_3_1:XSObjectFactory.cpp.obj
 0001:0003f077       ?removeAllElements@?$BaseRefVectorOf@VIdentityConstraint@xercesc_3_1@@@xercesc_3_1@@UAEXXZ 10040077 f i xerces-c_3_1:XTemplateSerializer.cpp.obj
 0001:0003f077       ?removeAllElements@?$BaseRefVectorOf@VXSAttributeUse@xercesc_3_1@@@xercesc_3_1@@UAEXXZ 10040077 f i xerces-c_3_1:XSObjectFactory.cpp.obj
 0001:0003f0ac       ?removeElementAt@?$BaseRefVectorOf@VToken@xercesc_3_1@@@xercesc_3_1@@UAEXK@Z 100400ac f i xerces-c_3_1:TokenFactory.cpp.obj
 0001:0003f0ac       ?removeElementAt@?$BaseRefVectorOf@VDOMDocumentImpl@xercesc_3_1@@@xercesc_3_1@@UAEXK@Z 100400ac f i xerces-c_3_1:AbstractDOMParser.cpp.obj
 0001:0003f0ac       ?removeElementAt@?$BaseRefVectorOf@VDOMNodeIteratorImpl@xercesc_3_1@@@xercesc_3_1@@UAEXK@Z 100400ac f i xerces-c_3_1:DOMDocumentImpl.cpp.obj
 0001:0003f0ac       ?removeElementAt@?$BaseRefVectorOf@VXSFacet@xercesc_3_1@@@xercesc_3_1@@UAEXK@Z 100400ac f i xerces-c_3_1:XSObjectFactory.cpp.obj
 0001:0003f0ac       ?removeElementAt@?$BaseRefVectorOf@VENameMap@xercesc_3_1@@@xercesc_3_1@@UAEXK@Z 100400ac f i xerces-c_3_1:TransService.cpp.obj
 0001:0003f0ac       ?removeElementAt@?$BaseRefVectorOf@VXSMultiValueFacet@xercesc_3_1@@@xercesc_3_1@@UAEXK@Z 100400ac f i xerces-c_3_1:XSObjectFactory.cpp.obj
 0001:0003f0ac       ?removeElementAt@?$BaseRefVectorOf@VXMLElementDecl@xercesc_3_1@@@xercesc_3_1@@UAEXK@Z 100400ac f i xerces-c_3_1:WFXMLScanner.cpp.obj
 0001:0003f0ac       ?removeElementAt@?$BaseRefVectorOf@VDatatypeValidator@xercesc_3_1@@@xercesc_3_1@@UAEXK@Z 100400ac f i xerces-c_3_1:XTemplateSerializer.cpp.obj
 0001:0003f0ac       ?removeElementAt@?$BaseRefVectorOf@VOp@xercesc_3_1@@@xercesc_3_1@@UAEXK@Z 100400ac f i xerces-c_3_1:OpFactory.cpp.obj
 0001:0003f0ac       ?removeElementAt@?$BaseRefVectorOf@VXSParticle@xercesc_3_1@@@xercesc_3_1@@UAEXK@Z 100400ac f i xerces-c_3_1:XSObjectFactory.cpp.obj
 0001:0003f0ac       ?removeElementAt@?$BaseRefVectorOf@VXSObject@xercesc_3_1@@@xercesc_3_1@@UAEXK@Z 100400ac f i xerces-c_3_1:XSModel.cpp.obj
 0001:0003f0ac       ?removeElementAt@?$BaseRefVectorOf@VXMLNumber@xercesc_3_1@@@xercesc_3_1@@UAEXK@Z 100400ac f i xerces-c_3_1:XTemplateSerializer.cpp.obj
 0001:0003f0ac       ?removeElementAt@?$BaseRefVectorOf@VIC_Field@xercesc_3_1@@@xercesc_3_1@@UAEXK@Z 100400ac f i xerces-c_3_1:XTemplateSerializer.cpp.obj
 0001:0003f0ac       ?removeElementAt@?$BaseRefVectorOf@VDOMNode@xercesc_3_1@@@xercesc_3_1@@UAEXK@Z 100400ac f i xerces-c_3_1:DOMDocumentImpl.cpp.obj
 0001:0003f0ac       ?removeElementAt@?$BaseRefVectorOf@VXSSimpleTypeDefinition@xercesc_3_1@@@xercesc_3_1@@UAEXK@Z 100400ac f i xerces-c_3_1:XSObjectFactory.cpp.obj
 0001:0003f0ac       ?removeElementAt@?$BaseRefVectorOf@VXMLEntityDecl@xercesc_3_1@@@xercesc_3_1@@UAEXK@Z 100400ac f i xerces-c_3_1:ReaderMgr.cpp.obj
 0001:0003f0ac       ?removeElementAt@?$BaseRefVectorOf@VXSIDCDefinition@xercesc_3_1@@@xercesc_3_1@@UAEXK@Z 100400ac f i xerces-c_3_1:XSObjectFactory.cpp.obj
 0001:0003f0ac       ?removeElementAt@?$BaseRefVectorOf@VDOMImplementationSource@xercesc_3_1@@@xercesc_3_1@@UAEXK@Z 100400ac f i xerces-c_3_1:DOMImplementationRegistry.cpp.obj
 0001:0003f0ac       ?removeElementAt@?$BaseRefVectorOf@VKVStringPair@xercesc_3_1@@@xercesc_3_1@@UAEXK@Z 100400ac f i xerces-c_3_1:SGXMLScanner.cpp.obj
 0001:0003f0ac       ?removeElementAt@?$BaseRefVectorOf@VXSAttributeUse@xercesc_3_1@@@xercesc_3_1@@UAEXK@Z 100400ac f i xerces-c_3_1:XSObjectFactory.cpp.obj
 0001:0003f0ac       ?removeElementAt@?$BaseRefVectorOf@VDOMImplementation@xercesc_3_1@@@xercesc_3_1@@UAEXK@Z 100400ac f i xerces-c_3_1:DOMImplementationListImpl.cpp.obj
 0001:0003f0ac       ?removeElementAt@?$BaseRefVectorOf@VIdentityConstraint@xercesc_3_1@@@xercesc_3_1@@UAEXK@Z 100400ac f i xerces-c_3_1:XTemplateSerializer.cpp.obj
 0001:0003f0ac       ?removeElementAt@?$BaseRefVectorOf@VXercesStep@xercesc_3_1@@@xercesc_3_1@@UAEXK@Z 100400ac f i xerces-c_3_1:XercesXPath.cpp.obj
 0001:0003f0ac       ?removeElementAt@?$BaseRefVectorOf@VXPathMatcher@xercesc_3_1@@@xercesc_3_1@@UAEXK@Z 100400ac f i xerces-c_3_1:XPathMatcherStack.cpp.obj
 0001:0003f0ac       ?removeElementAt@?$BaseRefVectorOf@VDOMRangeImpl@xercesc_3_1@@@xercesc_3_1@@UAEXK@Z 100400ac f i xerces-c_3_1:DOMDocumentImpl.cpp.obj
 0001:0003f0ac       ?removeElementAt@?$BaseRefVectorOf@VSchemaElementDecl@xercesc_3_1@@@xercesc_3_1@@UAEXK@Z 100400ac f i xerces-c_3_1:XTemplateSerializer.cpp.obj
 0001:0003f0ac       ?removeElementAt@?$BaseRefVectorOf@VSchemaAttDef@xercesc_3_1@@@xercesc_3_1@@UAEXK@Z 100400ac f i xerces-c_3_1:XTemplateSerializer.cpp.obj
 0001:0003f0ac       ?removeElementAt@?$BaseRefVectorOf@VXSAnnotation@xercesc_3_1@@@xercesc_3_1@@UAEXK@Z 100400ac f i xerces-c_3_1:XSModel.cpp.obj
 0001:0003f0ac       ?removeElementAt@?$BaseRefVectorOf@VXercesLocationPath@xercesc_3_1@@@xercesc_3_1@@UAEXK@Z 100400ac f i xerces-c_3_1:XercesXPath.cpp.obj
 0001:0003f13b       ?removeLastElement@?$BaseRefVectorOf@VSchemaElementDecl@xercesc_3_1@@@xercesc_3_1@@UAEXXZ 1004013b f i xerces-c_3_1:XTemplateSerializer.cpp.obj
 0001:0003f13b       ?removeLastElement@?$BaseRefVectorOf@VXMLNumber@xercesc_3_1@@@xercesc_3_1@@UAEXXZ 1004013b f i xerces-c_3_1:XTemplateSerializer.cpp.obj
 0001:0003f13b       ?removeLastElement@?$BaseRefVectorOf@VOp@xercesc_3_1@@@xercesc_3_1@@UAEXXZ 1004013b f i xerces-c_3_1:OpFactory.cpp.obj
 0001:0003f13b       ?removeLastElement@?$BaseRefVectorOf@VXMLElementDecl@xercesc_3_1@@@xercesc_3_1@@UAEXXZ 1004013b f i xerces-c_3_1:WFXMLScanner.cpp.obj
 0001:0003f13b       ?removeLastElement@?$BaseRefVectorOf@VDOMDocumentImpl@xercesc_3_1@@@xercesc_3_1@@UAEXXZ 1004013b f i xerces-c_3_1:AbstractDOMParser.cpp.obj
 0001:0003f13b       ?removeLastElement@?$BaseRefVectorOf@VToken@xercesc_3_1@@@xercesc_3_1@@UAEXXZ 1004013b f i xerces-c_3_1:TokenFactory.cpp.obj
 0001:0003f13b       ?removeLastElement@?$BaseRefVectorOf@VIdentityConstraint@xercesc_3_1@@@xercesc_3_1@@UAEXXZ 1004013b f i xerces-c_3_1:XTemplateSerializer.cpp.obj
 0001:0003f13b       ?removeLastElement@?$BaseRefVectorOf@VSchemaAttDef@xercesc_3_1@@@xercesc_3_1@@UAEXXZ 1004013b f i xerces-c_3_1:XTemplateSerializer.cpp.obj
 0001:0003f13b       ?removeLastElement@?$BaseRefVectorOf@VDOMNodeIteratorImpl@xercesc_3_1@@@xercesc_3_1@@UAEXXZ 1004013b f i xerces-c_3_1:DOMDocumentImpl.cpp.obj
 0001:0003f13b       ?removeLastElement@?$BaseRefVectorOf@VKVStringPair@xercesc_3_1@@@xercesc_3_1@@UAEXXZ 1004013b f i xerces-c_3_1:SGXMLScanner.cpp.obj
 0001:0003f13b       ?removeLastElement@?$BaseRefVectorOf@VDOMNode@xercesc_3_1@@@xercesc_3_1@@UAEXXZ 1004013b f i xerces-c_3_1:DOMDocumentImpl.cpp.obj
 0001:0003f13b       ?removeLastElement@?$BaseRefVectorOf@VXPathMatcher@xercesc_3_1@@@xercesc_3_1@@UAEXXZ 1004013b f i xerces-c_3_1:XPathMatcherStack.cpp.obj
 0001:0003f13b       ?removeLastElement@?$BaseRefVectorOf@VXSMultiValueFacet@xercesc_3_1@@@xercesc_3_1@@UAEXXZ 1004013b f i xerces-c_3_1:XSObjectFactory.cpp.obj
 0001:0003f13b       ?removeLastElement@?$BaseRefVectorOf@VXSAttributeUse@xercesc_3_1@@@xercesc_3_1@@UAEXXZ 1004013b f i xerces-c_3_1:XSObjectFactory.cpp.obj
 0001:0003f13b       ?removeLastElement@?$BaseRefVectorOf@VDOMImplementation@xercesc_3_1@@@xercesc_3_1@@UAEXXZ 1004013b f i xerces-c_3_1:DOMImplementationListImpl.cpp.obj
 0001:0003f13b       ?removeLastElement@?$BaseRefVectorOf@VXMLEntityDecl@xercesc_3_1@@@xercesc_3_1@@UAEXXZ 1004013b f i xerces-c_3_1:ReaderMgr.cpp.obj
 0001:0003f13b       ?removeLastElement@?$BaseRefVectorOf@VXercesLocationPath@xercesc_3_1@@@xercesc_3_1@@UAEXXZ 1004013b f i xerces-c_3_1:XercesXPath.cpp.obj
 0001:0003f13b       ?removeLastElement@?$BaseRefVectorOf@VDOMRangeImpl@xercesc_3_1@@@xercesc_3_1@@UAEXXZ 1004013b f i xerces-c_3_1:DOMDocumentImpl.cpp.obj
 0001:0003f13b       ?removeLastElement@?$BaseRefVectorOf@VENameMap@xercesc_3_1@@@xercesc_3_1@@UAEXXZ 1004013b f i xerces-c_3_1:TransService.cpp.obj
 0001:0003f13b       ?removeLastElement@?$BaseRefVectorOf@VXSObject@xercesc_3_1@@@xercesc_3_1@@UAEXXZ 1004013b f i xerces-c_3_1:XSModel.cpp.obj
 0001:0003f13b       ?removeLastElement@?$BaseRefVectorOf@VXSIDCDefinition@xercesc_3_1@@@xercesc_3_1@@UAEXXZ 1004013b f i xerces-c_3_1:XSObjectFactory.cpp.obj
 0001:0003f13b       ?removeLastElement@?$BaseRefVectorOf@VXercesStep@xercesc_3_1@@@xercesc_3_1@@UAEXXZ 1004013b f i xerces-c_3_1:XercesXPath.cpp.obj
 0001:0003f13b       ?removeLastElement@?$BaseRefVectorOf@VXSParticle@xercesc_3_1@@@xercesc_3_1@@UAEXXZ 1004013b f i xerces-c_3_1:XSObjectFactory.cpp.obj
 0001:0003f13b       ?removeLastElement@?$BaseRefVectorOf@VDatatypeValidator@xercesc_3_1@@@xercesc_3_1@@UAEXXZ 1004013b f i xerces-c_3_1:XTemplateSerializer.cpp.obj
 0001:0003f13b       ?removeLastElement@?$BaseRefVectorOf@VXSSimpleTypeDefinition@xercesc_3_1@@@xercesc_3_1@@UAEXXZ 1004013b f i xerces-c_3_1:XSObjectFactory.cpp.obj
 0001:0003f13b       ?removeLastElement@?$BaseRefVectorOf@VXSFacet@xercesc_3_1@@@xercesc_3_1@@UAEXXZ 1004013b f i xerces-c_3_1:XSObjectFactory.cpp.obj
 0001:0003f13b       ?removeLastElement@?$BaseRefVectorOf@VXSAnnotation@xercesc_3_1@@@xercesc_3_1@@UAEXXZ 1004013b f i xerces-c_3_1:XSModel.cpp.obj
 0001:0003f13b       ?removeLastElement@?$BaseRefVectorOf@VIC_Field@xercesc_3_1@@@xercesc_3_1@@UAEXXZ 1004013b f i xerces-c_3_1:XTemplateSerializer.cpp.obj
 0001:0003f13b       ?removeLastElement@?$BaseRefVectorOf@VDOMImplementationSource@xercesc_3_1@@@xercesc_3_1@@UAEXXZ 1004013b f i xerces-c_3_1:DOMImplementationRegistry.cpp.obj
 0001:0003f15f       ?cleanup@?$BaseRefVectorOf@VDatatypeValidator@xercesc_3_1@@@xercesc_3_1@@UAEXXZ 1004015f f i xerces-c_3_1:XTemplateSerializer.cpp.obj
 0001:0003f15f       ?cleanup@?$BaseRefVectorOf@VXSFacet@xercesc_3_1@@@xercesc_3_1@@UAEXXZ 1004015f f i xerces-c_3_1:XSObjectFactory.cpp.obj
 0001:0003f15f       ?cleanup@?$BaseRefVectorOf@VSchemaAttDef@xercesc_3_1@@@xercesc_3_1@@UAEXXZ 1004015f f i xerces-c_3_1:XTemplateSerializer.cpp.obj
 0001:0003f15f       ?cleanup@?$BaseRefVectorOf@VOp@xercesc_3_1@@@xercesc_3_1@@UAEXXZ 1004015f f i xerces-c_3_1:OpFactory.cpp.obj
 0001:0003f15f       ?cleanup@?$BaseRefVectorOf@VXSMultiValueFacet@xercesc_3_1@@@xercesc_3_1@@UAEXXZ 1004015f f i xerces-c_3_1:XSObjectFactory.cpp.obj
 0001:0003f15f       ?cleanup@?$BaseRefVectorOf@VToken@xercesc_3_1@@@xercesc_3_1@@UAEXXZ 1004015f f i xerces-c_3_1:TokenFactory.cpp.obj
 0001:0003f15f       ?cleanup@?$BaseRefVectorOf@VDOMImplementationSource@xercesc_3_1@@@xercesc_3_1@@UAEXXZ 1004015f f i xerces-c_3_1:DOMImplementationRegistry.cpp.obj
 0001:0003f15f       ?cleanup@?$BaseRefVectorOf@VDOMRangeImpl@xercesc_3_1@@@xercesc_3_1@@UAEXXZ 1004015f f i xerces-c_3_1:DOMDocumentImpl.cpp.obj
 0001:0003f15f       ?cleanup@?$BaseRefVectorOf@VDOMNodeIteratorImpl@xercesc_3_1@@@xercesc_3_1@@UAEXXZ 1004015f f i xerces-c_3_1:DOMDocumentImpl.cpp.obj
 0001:0003f15f       ?cleanup@?$BaseRefVectorOf@VXSAnnotation@xercesc_3_1@@@xercesc_3_1@@UAEXXZ 1004015f f i xerces-c_3_1:XSModel.cpp.obj
 0001:0003f15f       ?cleanup@?$BaseRefVectorOf@VSchemaElementDecl@xercesc_3_1@@@xercesc_3_1@@UAEXXZ 1004015f f i xerces-c_3_1:XTemplateSerializer.cpp.obj
 0001:0003f15f       ?cleanup@?$BaseRefVectorOf@VXMLNumber@xercesc_3_1@@@xercesc_3_1@@UAEXXZ 1004015f f i xerces-c_3_1:XTemplateSerializer.cpp.obj
 0001:0003f15f       ?cleanup@?$BaseRefVectorOf@VXSObject@xercesc_3_1@@@xercesc_3_1@@UAEXXZ 1004015f f i xerces-c_3_1:XSModel.cpp.obj
 0001:0003f15f       ?cleanup@?$BaseRefVectorOf@VDOMDocumentImpl@xercesc_3_1@@@xercesc_3_1@@UAEXXZ 1004015f f i xerces-c_3_1:AbstractDOMParser.cpp.obj
 0001:0003f15f       ?cleanup@?$BaseRefVectorOf@VIC_Field@xercesc_3_1@@@xercesc_3_1@@UAEXXZ 1004015f f i xerces-c_3_1:XTemplateSerializer.cpp.obj
 0001:0003f15f       ?cleanup@?$BaseRefVectorOf@VXSSimpleTypeDefinition@xercesc_3_1@@@xercesc_3_1@@UAEXXZ 1004015f f i xerces-c_3_1:XSObjectFactory.cpp.obj
 0001:0003f15f       ?cleanup@?$BaseRefVectorOf@VENameMap@xercesc_3_1@@@xercesc_3_1@@UAEXXZ 1004015f f i xerces-c_3_1:TransService.cpp.obj
 0001:0003f15f       ?cleanup@?$BaseRefVectorOf@VDOMImplementation@xercesc_3_1@@@xercesc_3_1@@UAEXXZ 1004015f f i xerces-c_3_1:DOMImplementationListImpl.cpp.obj
 0001:0003f15f       ?cleanup@?$BaseRefVectorOf@VXMLEntityDecl@xercesc_3_1@@@xercesc_3_1@@UAEXXZ 1004015f f i xerces-c_3_1:ReaderMgr.cpp.obj
 0001:0003f15f       ?cleanup@?$BaseRefVectorOf@VXSAttributeUse@xercesc_3_1@@@xercesc_3_1@@UAEXXZ 1004015f f i xerces-c_3_1:XSObjectFactory.cpp.obj
 0001:0003f15f       ?cleanup@?$BaseRefVectorOf@VKVStringPair@xercesc_3_1@@@xercesc_3_1@@UAEXXZ 1004015f f i xerces-c_3_1:SGXMLScanner.cpp.obj
 0001:0003f15f       ?cleanup@?$BaseRefVectorOf@VXercesStep@xercesc_3_1@@@xercesc_3_1@@UAEXXZ 1004015f f i xerces-c_3_1:XercesXPath.cpp.obj
 0001:0003f15f       ?cleanup@?$BaseRefVectorOf@VXMLElementDecl@xercesc_3_1@@@xercesc_3_1@@UAEXXZ 1004015f f i xerces-c_3_1:WFXMLScanner.cpp.obj
 0001:0003f15f       ?cleanup@?$BaseRefVectorOf@VXercesLocationPath@xercesc_3_1@@@xercesc_3_1@@UAEXXZ 1004015f f i xerces-c_3_1:XercesXPath.cpp.obj
 0001:0003f15f       ?cleanup@?$BaseRefVectorOf@VDOMNode@xercesc_3_1@@@xercesc_3_1@@UAEXXZ 1004015f f i xerces-c_3_1:DOMDocumentImpl.cpp.obj
 0001:0003f15f       ?cleanup@?$BaseRefVectorOf@VXSIDCDefinition@xercesc_3_1@@@xercesc_3_1@@UAEXXZ 1004015f f i xerces-c_3_1:XSObjectFactory.cpp.obj
 0001:0003f15f       ?cleanup@?$BaseRefVectorOf@VXSParticle@xercesc_3_1@@@xercesc_3_1@@UAEXXZ 1004015f f i xerces-c_3_1:XSObjectFactory.cpp.obj
 0001:0003f15f       ?cleanup@?$BaseRefVectorOf@VXPathMatcher@xercesc_3_1@@@xercesc_3_1@@UAEXXZ 1004015f f i xerces-c_3_1:XPathMatcherStack.cpp.obj
 0001:0003f15f       ?cleanup@?$BaseRefVectorOf@VIdentityConstraint@xercesc_3_1@@@xercesc_3_1@@UAEXXZ 1004015f f i xerces-c_3_1:XTemplateSerializer.cpp.obj
 0001:0003f194       ?elementAt@?$BaseRefVectorOf@VKVStringPair@xercesc_3_1@@@xercesc_3_1@@QBEPBVKVStringPair@2@K@Z 10040194 f i xerces-c_3_1:SGXMLScanner.cpp.obj
 0001:0003f194       ?elementAt@?$BaseRefVectorOf@VXMLAttr@xercesc_3_1@@@xercesc_3_1@@QBEPBVXMLAttr@2@K@Z 10040194 f i xerces-c_3_1:AbstractDOMParser.cpp.obj
 0001:0003f1c2       ??_E?$RefVectorOf@VDOMDocumentImpl@xercesc_3_1@@@xercesc_3_1@@UAEPAXI@Z 100401c2 f i * CIL library *:* CIL module *
 0001:0003f1c2       ??_G?$RefVectorOf@VDOMDocumentImpl@xercesc_3_1@@@xercesc_3_1@@UAEPAXI@Z 100401c2 f i xerces-c_3_1:AbstractDOMParser.cpp.obj
 0001:0003f24c       ??_G?$BaseRefVectorOf@VDOMDocumentImpl@xercesc_3_1@@@xercesc_3_1@@UAEPAXI@Z 1004024c f i xerces-c_3_1:AbstractDOMParser.cpp.obj
 0001:0003f24c       ??_E?$BaseRefVectorOf@VDOMDocumentImpl@xercesc_3_1@@@xercesc_3_1@@UAEPAXI@Z 1004024c f i * CIL library *:* CIL module *
 0001:0003f27c       ??_EAbstractDOMParser@xercesc_3_1@@WM@AEPAXI@Z 1004027c f i xerces-c_3_1:AbstractDOMParser.cpp.obj
 0001:0003f284       ??_EAbstractDOMParser@xercesc_3_1@@WBA@AEPAXI@Z 10040284 f i xerces-c_3_1:AbstractDOMParser.cpp.obj
 0001:0003f28c       ??_EAbstractDOMParser@xercesc_3_1@@W3AEPAXI@Z 1004028c f i xerces-c_3_1:AbstractDOMParser.cpp.obj
 0001:0003f294       ??_EAbstractDOMParser@xercesc_3_1@@W7AEPAXI@Z 10040294 f i xerces-c_3_1:AbstractDOMParser.cpp.obj
 0001:0003f29c       ??_ESAXParseException@xercesc_3_1@@UAEPAXI@Z 1004029c f i * CIL library *:* CIL module *
 0001:0003f29c       ??_GSAXParseException@xercesc_3_1@@UAEPAXI@Z 1004029c f i xerces-c_3_1:SAXParseException.cpp.obj
 0001:0003f2cd       ??0SAXParseException@xercesc_3_1@@QAE@QB_W00_K1QAVMemoryManager@1@@Z 100402cd f   xerces-c_3_1:SAXParseException.cpp.obj
 0001:0003f346       ??0SAXParseException@xercesc_3_1@@QAE@ABV01@@Z 10040346 f   xerces-c_3_1:SAXParseException.cpp.obj
 0001:0003f3b8       ??1SAXParseException@xercesc_3_1@@UAE@XZ 100403b8 f   xerces-c_3_1:SAXParseException.cpp.obj
 0001:0003f403       ?moveChars@XMLString@xercesc_3_1@@SAXQA_WQB_WK@Z 10040403 f i xerces-c_3_1:XMLString.cpp.obj
 0001:0003f418       ?validateRegion@XMLString@xercesc_3_1@@CA_NQB_WH0HK@Z 10040418 f i xerces-c_3_1:XMLString.cpp.obj
 0001:0003f47e       ??0IllegalArgumentException@xercesc_3_1@@QAE@QBD_KW4Codes@XMLExcepts@1@PAVMemoryManager@1@@Z 1004047e f i xerces-c_3_1:XMLString.cpp.obj
 0001:0003f4c5       ??0IllegalArgumentException@xercesc_3_1@@QAE@ABV01@@Z 100404c5 f i xerces-c_3_1:XMLString.cpp.obj
 0001:0003f4e4       ??1IllegalArgumentException@xercesc_3_1@@UAE@XZ 100404e4 f i xerces-c_3_1:XMLString.cpp.obj
 0001:0003f4ef       ?duplicate@IllegalArgumentException@xercesc_3_1@@UBEPAVXMLException@2@XZ 100404ef f i xerces-c_3_1:XMLString.cpp.obj
 0001:0003f53b       ?getType@IllegalArgumentException@xercesc_3_1@@UBEPB_WXZ 1004053b f i xerces-c_3_1:XMLString.cpp.obj
 0001:0003f541       ??_EIllegalArgumentException@xercesc_3_1@@UAEPAXI@Z 10040541 f i * CIL library *:* CIL module *
 0001:0003f541       ??_GIllegalArgumentException@xercesc_3_1@@UAEPAXI@Z 10040541 f i xerces-c_3_1:XMLString.cpp.obj
 0001:0003f578       ??0NumberFormatException@xercesc_3_1@@QAE@QBD_KW4Codes@XMLExcepts@1@PAVMemoryManager@1@@Z 10040578 f i xerces-c_3_1:XMLString.cpp.obj
 0001:0003f5bf       ??0NumberFormatException@xercesc_3_1@@QAE@ABV01@@Z 100405bf f i xerces-c_3_1:XMLString.cpp.obj
 0001:0003f5de       ??1NumberFormatException@xercesc_3_1@@UAE@XZ 100405de f i xerces-c_3_1:XMLString.cpp.obj
 0001:0003f5e9       ?duplicate@NumberFormatException@xercesc_3_1@@UBEPAVXMLException@2@XZ 100405e9 f i xerces-c_3_1:XMLString.cpp.obj
 0001:0003f635       ?getType@NumberFormatException@xercesc_3_1@@UBEPB_WXZ 10040635 f i xerces-c_3_1:XMLString.cpp.obj
 0001:0003f63b       ??_GNumberFormatException@xercesc_3_1@@UAEPAXI@Z 1004063b f i xerces-c_3_1:XMLString.cpp.obj
 0001:0003f63b       ??_ENumberFormatException@xercesc_3_1@@UAEPAXI@Z 1004063b f i * CIL library *:* CIL module *
 0001:0003f672       ?cut@XMLString@xercesc_3_1@@SAXQA_WK@Z 10040672 f   xerces-c_3_1:XMLString.cpp.obj
 0001:0003f698       ?replaceTokens@XMLString@xercesc_3_1@@SAKQA_WKQB_W111QAVMemoryManager@2@@Z 10040698 f   xerces-c_3_1:XMLString.cpp.obj
 0001:0003f7d2       ?replicate@XMLString@xercesc_3_1@@SAPADQBDQAVMemoryManager@2@@Z 100407d2 f   xerces-c_3_1:XMLString.cpp.obj
 0001:0003f806       ?transcode@XMLString@xercesc_3_1@@SAPA_WQBDQAVMemoryManager@2@@Z 10040806 f   xerces-c_3_1:XMLString.cpp.obj
 0001:0003f814       ?isValidNOTATION@XMLString@xercesc_3_1@@SA_NQB_WQAVMemoryManager@2@@Z 10040814 f   xerces-c_3_1:XMLString.cpp.obj
 0001:0003f93b       ?isValidEncName@XMLString@xercesc_3_1@@SA_NQB_W@Z 1004093b f   xerces-c_3_1:XMLString.cpp.obj
 0001:0003f9b6       ?isHex@XMLString@xercesc_3_1@@SA_N_W@Z 100409b6 f   xerces-c_3_1:XMLString.cpp.obj
 0001:0003f9dd       ?sizeToText@XMLString@xercesc_3_1@@SAXKQA_WKIQAVMemoryManager@2@@Z 100409dd f   xerces-c_3_1:XMLString.cpp.obj
 0001:0003fac8       ?binToText@XMLString@xercesc_3_1@@SAXKQA_WKIQAVMemoryManager@2@@Z 10040ac8 f   xerces-c_3_1:XMLString.cpp.obj
 0001:0003fc1a       ?binToText@XMLString@xercesc_3_1@@SAXIQA_WKIQAVMemoryManager@2@@Z 10040c1a f   xerces-c_3_1:XMLString.cpp.obj
 0001:0003fc23       ?binToText@XMLString@xercesc_3_1@@SAXHQA_WKIQAVMemoryManager@2@@Z 10040c23 f   xerces-c_3_1:XMLString.cpp.obj
 0001:0003fc50       ?catString@XMLString@xercesc_3_1@@SAXQA_WQB_W@Z 10040c50 f   xerces-c_3_1:XMLString.cpp.obj
 0001:0003fc91       ?compareIStringASCII@XMLString@xercesc_3_1@@SAHQB_W0@Z 10040c91 f   xerces-c_3_1:XMLString.cpp.obj
 0001:0003fd1d       ?compareNString@XMLString@xercesc_3_1@@SAHQB_W0K@Z 10040d1d f   xerces-c_3_1:XMLString.cpp.obj
 0001:0003fd55       ?compareString@XMLString@xercesc_3_1@@SAHQB_W0@Z 10040d55 f   xerces-c_3_1:XMLString.cpp.obj
 0001:0003fddd       ?regionMatches@XMLString@xercesc_3_1@@SA_NQB_WH0HK@Z 10040ddd f   xerces-c_3_1:XMLString.cpp.obj
 0001:0003fe1e       ?regionIMatches@XMLString@xercesc_3_1@@SA_NQB_WH0HK@Z 10040e1e f   xerces-c_3_1:XMLString.cpp.obj
 0001:0003fe63       ?copyString@XMLString@xercesc_3_1@@SAXQA_WQB_W@Z 10040e63 f   xerces-c_3_1:XMLString.cpp.obj
 0001:0003fe88       ?copyNString@XMLString@xercesc_3_1@@SA_NQA_WQB_WK@Z 10040e88 f   xerces-c_3_1:XMLString.cpp.obj
 0001:0003fede       ?findAny@XMLString@xercesc_3_1@@SAPA_WQA_WQB_W@Z 10040ede f   xerces-c_3_1:XMLString.cpp.obj
 0001:0003fede       ?findAny@XMLString@xercesc_3_1@@SAPB_WQB_W0@Z 10040ede f   xerces-c_3_1:XMLString.cpp.obj
 0001:0003ff23       ?patternMatch@XMLString@xercesc_3_1@@SAHQB_W0@Z 10040f23 f   xerces-c_3_1:XMLString.cpp.obj
 0001:0003ffa4       ?indexOf@XMLString@xercesc_3_1@@SAHQB_W_W@Z 10040fa4 f   xerces-c_3_1:XMLString.cpp.obj
 0001:0003ffda       ?indexOf@XMLString@xercesc_3_1@@SAHQB_W_WKQAVMemoryManager@2@@Z 10040fda f   xerces-c_3_1:XMLString.cpp.obj
 0001:0004005d       ?lastIndexOf@XMLString@xercesc_3_1@@SAH_WQB_WK@Z 1004105d f   xerces-c_3_1:XMLString.cpp.obj
 0001:00040087       ?textToBin@XMLString@xercesc_3_1@@SA_NQB_WAAIQAVMemoryManager@2@@Z 10041087 f   xerces-c_3_1:XMLString.cpp.obj
 0001:000401aa       ?parseInt@XMLString@xercesc_3_1@@SAHQB_WQAVMemoryManager@2@@Z 100411aa f   xerces-c_3_1:XMLString.cpp.obj
 0001:0004031c       ?trim@XMLString@xercesc_3_1@@SAXQA_W@Z 1004131c f   xerces-c_3_1:XMLString.cpp.obj
 0001:0004039e       ?upperCaseASCII@XMLString@xercesc_3_1@@SAXQA_W@Z 1004139e f   xerces-c_3_1:XMLString.cpp.obj
 0001:000403c1       ?subString@XMLString@xercesc_3_1@@SAXQA_WQB_WKKQAVMemoryManager@2@@Z 100413c1 f   xerces-c_3_1:XMLString.cpp.obj
 0001:000403f4       ?subString@XMLString@xercesc_3_1@@SAXQA_WQB_WKKKQAVMemoryManager@2@@Z 100413f4 f   xerces-c_3_1:XMLString.cpp.obj
 0001:0004049a       ?tokenizeString@XMLString@xercesc_3_1@@SAPAV?$BaseRefVectorOf@_W@2@QB_WQAVMemoryManager@2@@Z 1004149a f   xerces-c_3_1:XMLString.cpp.obj
 0001:000405ca       ?isInList@XMLString@xercesc_3_1@@SA_NQB_W0@Z 100415ca f   xerces-c_3_1:XMLString.cpp.obj
 0001:00040675       ?isWSReplaced@XMLString@xercesc_3_1@@SA_NQB_W@Z 10041675 f   xerces-c_3_1:XMLString.cpp.obj
 0001:000406a8       ?replaceWS@XMLString@xercesc_3_1@@SAXPA_WQAVMemoryManager@2@@Z 100416a8 f   xerces-c_3_1:XMLString.cpp.obj
 0001:000406d0       ?isWSCollapsed@XMLString@xercesc_3_1@@SA_NQB_W@Z 100416d0 f   xerces-c_3_1:XMLString.cpp.obj
 0001:00040730       ?collapseWS@XMLString@xercesc_3_1@@SAXPA_WQAVMemoryManager@2@@Z 10041730 f   xerces-c_3_1:XMLString.cpp.obj
 0001:0004080a       ?removeWS@XMLString@xercesc_3_1@@SAXPA_WQAVMemoryManager@2@@Z 1004180a f   xerces-c_3_1:XMLString.cpp.obj
 0001:00040848       ?removeChar@XMLString@xercesc_3_1@@SAXQB_WAB_WAAVXMLBuffer@2@@Z 10041848 f   xerces-c_3_1:XMLString.cpp.obj
 0001:0004087b       ?fixURI@XMLString@xercesc_3_1@@SAXQB_WQA_W@Z 1004187b f   xerces-c_3_1:XMLString.cpp.obj
 0001:000409b4       ?setElementAt@?$BaseRefVectorOf@_W@xercesc_3_1@@UAEXQA_WK@Z 100419b4 f i xerces-c_3_1:XMLString.cpp.obj
 0001:00040a0f       ?removeAllElements@?$BaseRefVectorOf@_W@xercesc_3_1@@UAEXXZ 10041a0f f i xerces-c_3_1:XMLString.cpp.obj
 0001:00040a43       ?removeElementAt@?$BaseRefVectorOf@_W@xercesc_3_1@@UAEXK@Z 10041a43 f i xerces-c_3_1:XMLString.cpp.obj
 0001:00040acf       ?removeLastElement@?$BaseRefVectorOf@_W@xercesc_3_1@@UAEXXZ 10041acf f i xerces-c_3_1:XMLString.cpp.obj
 0001:00040af2       ?cleanup@?$BaseRefVectorOf@_W@xercesc_3_1@@UAEXXZ 10041af2 f i xerces-c_3_1:XMLString.cpp.obj
 0001:00040b26       ?setElementAt@?$RefArrayVectorOf@_W@xercesc_3_1@@UAEXQA_WK@Z 10041b26 f i xerces-c_3_1:XMLString.cpp.obj
 0001:00040b80       ?removeAllElements@?$RefArrayVectorOf@_W@xercesc_3_1@@UAEXXZ 10041b80 f i xerces-c_3_1:XMLString.cpp.obj
 0001:00040bb3       ?removeElementAt@?$RefArrayVectorOf@_W@xercesc_3_1@@UAEXK@Z 10041bb3 f i xerces-c_3_1:XMLString.cpp.obj
 0001:00040c3b       ?removeLastElement@?$RefArrayVectorOf@_W@xercesc_3_1@@UAEXXZ 10041c3b f i xerces-c_3_1:XMLString.cpp.obj
 0001:00040c61       ?cleanup@?$RefArrayVectorOf@_W@xercesc_3_1@@UAEXXZ 10041c61 f i xerces-c_3_1:XMLString.cpp.obj
 0001:00040c94       ??_E?$BaseRefVectorOf@_W@xercesc_3_1@@UAEPAXI@Z 10041c94 f i * CIL library *:* CIL module *
 0001:00040c94       ??_G?$BaseRefVectorOf@_W@xercesc_3_1@@UAEPAXI@Z 10041c94 f i xerces-c_3_1:XMLString.cpp.obj
 0001:00040cc4       ??_E?$RefArrayVectorOf@_W@xercesc_3_1@@UAEPAXI@Z 10041cc4 f i * CIL library *:* CIL module *
 0001:00040cc4       ??_G?$RefArrayVectorOf@_W@xercesc_3_1@@UAEPAXI@Z 10041cc4 f i xerces-c_3_1:XMLString.cpp.obj
 0001:00040d4c       ??0?$BaseRefVectorOf@_W@xercesc_3_1@@QAE@K_NQAVMemoryManager@1@@Z 10041d4c f i xerces-c_3_1:XMLString.cpp.obj
 0001:00040d9b       ??2XMemory@xercesc_3_1@@SAPAXI@Z 10041d9b f   xerces-c_3_1:XMemory.cpp.obj
 0001:00040dba       ??2XMemory@xercesc_3_1@@SAPAXIPAVMemoryManager@1@@Z 10041dba f   xerces-c_3_1:XMemory.cpp.obj
 0001:00040dd1       ??3XMemory@xercesc_3_1@@SAXPAX@Z 10041dd1 f   xerces-c_3_1:XMemory.cpp.obj
 0001:00040dd1       ??3XMemory@xercesc_3_1@@SAXPAXPAVMemoryManager@1@@Z 10041dd1 f   xerces-c_3_1:XMemory.cpp.obj
 0001:00040e04       ??1InputSource@xercesc_3_1@@UAE@XZ 10041e04 f   xerces-c_3_1:InputSource.cpp.obj
 0001:00040e53       ??_GInputSource@xercesc_3_1@@UAEPAXI@Z 10041e53 f i xerces-c_3_1:InputSource.cpp.obj
 0001:00040e53       ??_EInputSource@xercesc_3_1@@UAEPAXI@Z 10041e53 f i * CIL library *:* CIL module *
 0001:00040e84       ?setEncoding@InputSource@xercesc_3_1@@UAEXQB_W@Z 10041e84 f   xerces-c_3_1:InputSource.cpp.obj
 0001:00040ea8       ?setPublicId@InputSource@xercesc_3_1@@UAEXQB_W@Z 10041ea8 f   xerces-c_3_1:InputSource.cpp.obj
 0001:00040ecc       ?setSystemId@InputSource@xercesc_3_1@@UAEXQB_W@Z 10041ecc f   xerces-c_3_1:InputSource.cpp.obj
 0001:00040ef0       ??0InputSource@xercesc_3_1@@IAE@QAVMemoryManager@1@@Z 10041ef0 f   xerces-c_3_1:InputSource.cpp.obj
 0001:00040f14       ??1BinInputStream@xercesc_3_1@@UAE@XZ 10041f14 f   xerces-c_3_1:BinInputStream.cpp.obj
 0001:00040f1b       ??_GBinInputStream@xercesc_3_1@@UAEPAXI@Z 10041f1b f i xerces-c_3_1:BinInputStream.cpp.obj
 0001:00040f1b       ??_EBinInputStream@xercesc_3_1@@UAEPAXI@Z 10041f1b f i * CIL library *:* CIL module *
 0001:00040f4b       ??0BinFileInputStream@xercesc_3_1@@QAE@QB_WQAVMemoryManager@1@@Z 10041f4b f   xerces-c_3_1:BinFileInputStream.cpp.obj
 0001:00040fc0       ??_GBinFileInputStream@xercesc_3_1@@UAEPAXI@Z 10041fc0 f i xerces-c_3_1:BinFileInputStream.cpp.obj
 0001:00040fc0       ??_EBinFileInputStream@xercesc_3_1@@UAEPAXI@Z 10041fc0 f i * CIL library *:* CIL module *
 0001:00040ff1       ??1BinFileInputStream@xercesc_3_1@@UAE@XZ 10041ff1 f   xerces-c_3_1:BinFileInputStream.cpp.obj
 0001:00041069       ?curPos@BinFileInputStream@xercesc_3_1@@UBE_KXZ 10042069 f   xerces-c_3_1:BinFileInputStream.cpp.obj
 0001:000410ad       ?readBytes@BinFileInputStream@xercesc_3_1@@UAEKQAEK@Z 100420ad f   xerces-c_3_1:BinFileInputStream.cpp.obj
 0001:000410f9       ??0LocalFileInputSource@xercesc_3_1@@QAE@QB_W0QAVMemoryManager@1@@Z 100420f9 f   xerces-c_3_1:LocalFileInputSource.cpp.obj
 0001:00041188       ??_GLocalFileInputSource@xercesc_3_1@@UAEPAXI@Z 10042188 f i xerces-c_3_1:LocalFileInputSource.cpp.obj
 0001:00041188       ??_ELocalFileInputSource@xercesc_3_1@@UAEPAXI@Z 10042188 f i * CIL library *:* CIL module *
 0001:000411bf       ??0LocalFileInputSource@xercesc_3_1@@QAE@QB_WQAVMemoryManager@1@@Z 100421bf f   xerces-c_3_1:LocalFileInputSource.cpp.obj
 0001:00041335       ??1LocalFileInputSource@xercesc_3_1@@UAE@XZ 10042335 f   xerces-c_3_1:LocalFileInputSource.cpp.obj
 0001:00041340       ?makeStream@LocalFileInputSource@xercesc_3_1@@UBEPAVBinInputStream@2@XZ 10042340 f   xerces-c_3_1:LocalFileInputSource.cpp.obj
 0001:00041399       ??0TranscodingException@xercesc_3_1@@QAE@QBD_KW4Codes@XMLExcepts@1@PAVMemoryManager@1@@Z 10042399 f i xerces-c_3_1:Win32TransService.cpp.obj
 0001:000413e0       ??0TranscodingException@xercesc_3_1@@QAE@ABV01@@Z 100423e0 f i xerces-c_3_1:Win32TransService.cpp.obj
 0001:000413ff       ??0TranscodingException@xercesc_3_1@@QAE@QBD_KW4Codes@XMLExcepts@1@QB_W333PAVMemoryManager@1@@Z 100423ff f i xerces-c_3_1:Win32TransService.cpp.obj
 0001:0004144f       ??1TranscodingException@xercesc_3_1@@UAE@XZ 1004244f f i xerces-c_3_1:Win32TransService.cpp.obj
 0001:0004145a       ?duplicate@TranscodingException@xercesc_3_1@@UBEPAVXMLException@2@XZ 1004245a f i xerces-c_3_1:Win32TransService.cpp.obj
 0001:000414a6       ?getType@TranscodingException@xercesc_3_1@@UBEPB_WXZ 100424a6 f i xerces-c_3_1:Win32TransService.cpp.obj
 0001:000414ac       ??_ETranscodingException@xercesc_3_1@@UAEPAXI@Z 100424ac f i * CIL library *:* CIL module *
 0001:000414ac       ??_GTranscodingException@xercesc_3_1@@UAEPAXI@Z 100424ac f i xerces-c_3_1:Win32TransService.cpp.obj
 0001:000414e3       ?isAlias@xercesc_3_1@@YA_NQAUHKEY__@@QADI@Z 100424e3 f   xerces-c_3_1:Win32TransService.cpp.obj
 0001:0004150c       ??0CPMapEntry@xercesc_3_1@@QAE@QBDIPAVMemoryManager@1@@Z 1004250c f   xerces-c_3_1:Win32TransService.cpp.obj
 0001:00041576       ??0Win32TransService@xercesc_3_1@@QAE@PAVMemoryManager@1@@Z 10042576 f   xerces-c_3_1:Win32TransService.cpp.obj
 0001:0004194b       ??_GWin32TransService@xercesc_3_1@@UAEPAXI@Z 1004294b f i xerces-c_3_1:Win32TransService.cpp.obj
 0001:0004194b       ??_EWin32TransService@xercesc_3_1@@UAEPAXI@Z 1004294b f i * CIL library *:* CIL module *
 0001:0004197c       ??1Win32TransService@xercesc_3_1@@UAE@XZ 1004297c f   xerces-c_3_1:Win32TransService.cpp.obj
 0001:000419d9       ?compareIString@Win32TransService@xercesc_3_1@@UAEHQB_W0@Z 100429d9 f   xerces-c_3_1:Win32TransService.cpp.obj
 0001:000419ed       ?compareNIString@Win32TransService@xercesc_3_1@@UAEHQB_W0K@Z 100429ed f   xerces-c_3_1:Win32TransService.cpp.obj
 0001:00041a05       ?getId@Win32TransService@xercesc_3_1@@UBEPB_WXZ 10042a05 f   xerces-c_3_1:Win32TransService.cpp.obj
 0001:00041a0b       ?makeNewLCPTranscoder@Win32TransService@xercesc_3_1@@UAEPAVXMLLCPTranscoder@2@PAVMemoryManager@2@@Z 10042a0b f   xerces-c_3_1:Win32TransService.cpp.obj
 0001:00041a2e       ?isSerializable@XMLNotationDecl@xercesc_3_1@@UBE_NXZ 10042a2e f   xerces-c_3_1:XMLNotationDecl.cpp.obj
 0001:00041a2e       ?isSerializable@IC_Key@xercesc_3_1@@UBE_NXZ 10042a2e f   xerces-c_3_1:IC_Key.cpp.obj
 0001:00041a2e       ?isSerializable@KVStringPair@xercesc_3_1@@UBE_NXZ 10042a2e f   xerces-c_3_1:KVStringPair.cpp.obj
 0001:00041a2e       ?isSerializable@XSAnnotation@xercesc_3_1@@UBE_NXZ 10042a2e f   xerces-c_3_1:XSAnnotation.cpp.obj
 0001:00041a2e       ?isSerializable@XMLDouble@xercesc_3_1@@UBE_NXZ 10042a2e f   xerces-c_3_1:XMLDouble.cpp.obj
 0001:00041a2e       ?isSerializable@XercesNodeTest@xercesc_3_1@@UBE_NXZ 10042a2e f   xerces-c_3_1:XercesXPath.cpp.obj
 0001:00041a2e       ?isSerializable@XercesAttGroupInfo@xercesc_3_1@@UBE_NXZ 10042a2e f   xerces-c_3_1:XercesAttGroupInfo.cpp.obj
 0001:00041a2e       ?isSerializable@UnionDatatypeValidator@xercesc_3_1@@UBE_NXZ 10042a2e f   xerces-c_3_1:UnionDatatypeValidator.cpp.obj
 0001:00041a2e       ?isSerializable@AnySimpleTypeDatatypeValidator@xercesc_3_1@@UBE_NXZ 10042a2e f   xerces-c_3_1:AnySimpleTypeDatatypeValidator.cpp.obj
 0001:00041a2e       ?isSerializable@QName@xercesc_3_1@@UBE_NXZ 10042a2e f   xerces-c_3_1:QName.cpp.obj
 0001:00041a2e       ?isSerializable@ComplexTypeInfo@xercesc_3_1@@UBE_NXZ 10042a2e f   xerces-c_3_1:ComplexTypeInfo.cpp.obj
 0001:00041a2e       ?isSerializable@NOTATIONDatatypeValidator@xercesc_3_1@@UBE_NXZ 10042a2e f   xerces-c_3_1:NOTATIONDatatypeValidator.cpp.obj
 0001:00041a2e       ?isSerializable@XercesGroupInfo@xercesc_3_1@@UBE_NXZ 10042a2e f   xerces-c_3_1:XercesGroupInfo.cpp.obj
 0001:00041a2e       ?isSerializable@StringDatatypeValidator@xercesc_3_1@@UBE_NXZ 10042a2e f   xerces-c_3_1:StringDatatypeValidator.cpp.obj
 0001:00041a2e       ?isSerializable@DTDEntityDecl@xercesc_3_1@@UBE_NXZ 10042a2e f   xerces-c_3_1:DTDEntityDecl.cpp.obj
 0001:00041a2e       ?isSerializable@XMLRefInfo@xercesc_3_1@@UBE_NXZ 10042a2e f   xerces-c_3_1:XMLRefInfo.cpp.obj
 0001:00041a2e       ?isSerializable@ENTITYDatatypeValidator@xercesc_3_1@@UBE_NXZ 10042a2e f   xerces-c_3_1:ENTITYDatatypeValidator.cpp.obj
 0001:00041a2e       ?isSerializable@DateDatatypeValidator@xercesc_3_1@@UBE_NXZ 10042a2e f   xerces-c_3_1:DateDatatypeValidator.cpp.obj
 0001:00041a2e       ?isSerializable@DateTimeDatatypeValidator@xercesc_3_1@@UBE_NXZ 10042a2e f   xerces-c_3_1:DateTimeDatatypeValidator.cpp.obj
 0001:00041a2e       ?supportsSrcOfs@Win32TransService@xercesc_3_1@@UBE_NXZ 10042a2e f   xerces-c_3_1:Win32TransService.cpp.obj
 0001:00041a2e       ?isSerializable@AbstractNumericValidator@xercesc_3_1@@UBE_NXZ 10042a2e f   xerces-c_3_1:AbstractNumericValidator.cpp.obj
 0001:00041a2e       ?isSerializable@YearMonthDatatypeValidator@xercesc_3_1@@UBE_NXZ 10042a2e f   xerces-c_3_1:YearMonthDatatypeValidator.cpp.obj
 0001:00041a2e       ?isSerializable@NameDatatypeValidator@xercesc_3_1@@UBE_NXZ 10042a2e f   xerces-c_3_1:NameDatatypeValidator.cpp.obj
 0001:00041a2e       ?isSerializable@DateTimeValidator@xercesc_3_1@@UBE_NXZ 10042a2e f   xerces-c_3_1:DateTimeValidator.cpp.obj
 0001:00041a2e       ?isSerializable@DTDAttDefList@xercesc_3_1@@UBE_NXZ 10042a2e f   xerces-c_3_1:DTDAttDefList.cpp.obj
 0001:00041a2e       ?isSerializable@XMLAbstractDoubleFloat@xercesc_3_1@@UBE_NXZ 10042a2e f   xerces-c_3_1:XMLAbstractDoubleFloat.cpp.obj
 0001:00041a2e       ?isSerializable@DecimalDatatypeValidator@xercesc_3_1@@UBE_NXZ 10042a2e f   xerces-c_3_1:DecimalDatatypeValidator.cpp.obj
 0001:00041a2e       ?isSerializable@IdentityConstraint@xercesc_3_1@@UBE_NXZ 10042a2e f   xerces-c_3_1:IdentityConstraint.cpp.obj
 0001:00041a2e       ?isAtomic@DatatypeValidator@xercesc_3_1@@UBE_NXZ 10042a2e f   xerces-c_3_1:DatatypeValidatorFactory.cpp.obj
 0001:00041a2e       ?isSerializable@SchemaAttDef@xercesc_3_1@@UBE_NXZ 10042a2e f   xerces-c_3_1:SchemaAttDef.cpp.obj
 0001:00041a2e       ?isSerializable@XMLBigDecimal@xercesc_3_1@@UBE_NXZ 10042a2e f   xerces-c_3_1:XMLBigDecimal.cpp.obj
 0001:00041a2e       ?isSerializable@XercesXPath@xercesc_3_1@@UBE_NXZ 10042a2e f   xerces-c_3_1:XercesXPath.cpp.obj
 0001:00041a2e       ?isSerializable@XMLElementDecl@xercesc_3_1@@UBE_NXZ 10042a2e f   xerces-c_3_1:XMLElementDecl.cpp.obj
 0001:00041a2e       ?isSerializable@XMLDTDDescriptionImpl@xercesc_3_1@@UBE_NXZ 10042a2e f   xerces-c_3_1:XMLDTDDescriptionImpl.cpp.obj
 0001:00041a2e       ?isSerializable@XMLStringPool@xercesc_3_1@@UBE_NXZ 10042a2e f   xerces-c_3_1:StringPool.cpp.obj
 0001:00041a2e       ?isSerializable@BooleanDatatypeValidator@xercesc_3_1@@UBE_NXZ 10042a2e f   xerces-c_3_1:BooleanDatatypeValidator.cpp.obj
 0001:00041a2e       ?isSerializable@DayDatatypeValidator@xercesc_3_1@@UBE_NXZ 10042a2e f   xerces-c_3_1:DayDatatypeValidator.cpp.obj
 0001:00041a2e       ?isSerializable@AnyURIDatatypeValidator@xercesc_3_1@@UBE_NXZ 10042a2e f   xerces-c_3_1:AnyURIDatatypeValidator.cpp.obj
 0001:00041a2e       ?isSerializable@XMLDateTime@xercesc_3_1@@UBE_NXZ 10042a2e f   xerces-c_3_1:XMLDateTime.cpp.obj
 0001:00041a2e       ?isSerializable@DurationDatatypeValidator@xercesc_3_1@@UBE_NXZ 10042a2e f   xerces-c_3_1:DurationDatatypeValidator.cpp.obj
 0001:00041a2e       ?isSerializable@XMLAttDef@xercesc_3_1@@UBE_NXZ 10042a2e f   xerces-c_3_1:XMLAttDef.cpp.obj
 0001:00041a2e       ?isSerializable@DTDElementDecl@xercesc_3_1@@UBE_NXZ 10042a2e f   xerces-c_3_1:DTDElementDecl.cpp.obj
 0001:00041a2e       ?requiresNamespaces@SchemaValidator@xercesc_3_1@@UBE_NXZ 10042a2e f   xerces-c_3_1:SchemaValidator.cpp.obj
 0001:00041a2e       ?isSerializable@SchemaElementDecl@xercesc_3_1@@UBE_NXZ 10042a2e f   xerces-c_3_1:SchemaElementDecl.cpp.obj
 0001:00041a2e       ?isSerializable@IDREFDatatypeValidator@xercesc_3_1@@UBE_NXZ 10042a2e f   xerces-c_3_1:IDREFDatatypeValidator.cpp.obj
 0001:00041a2e       ?isSerializable@XMLFloat@xercesc_3_1@@UBE_NXZ 10042a2e f   xerces-c_3_1:XMLFloat.cpp.obj
 0001:00041a2e       ?isSerializable@QNameDatatypeValidator@xercesc_3_1@@UBE_NXZ 10042a2e f   xerces-c_3_1:QNameDatatypeValidator.cpp.obj
 0001:00041a2e       ?isSerializable@XercesLocationPath@xercesc_3_1@@UBE_NXZ 10042a2e f   xerces-c_3_1:XercesXPath.cpp.obj
 0001:00041a2e       ?isSerializable@AbstractNumericFacetValidator@xercesc_3_1@@UBE_NXZ 10042a2e f   xerces-c_3_1:AbstractNumericFacetValidator.cpp.obj
 0001:00041a2e       ?isSerializable@SchemaAttDefList@xercesc_3_1@@UBE_NXZ 10042a2e f   xerces-c_3_1:SchemaAttDefList.cpp.obj
 0001:00041a2e       ?isSerializable@IC_Field@xercesc_3_1@@UBE_NXZ 10042a2e f   xerces-c_3_1:IC_Field.cpp.obj
 0001:00041a2e       ?isSerializable@XMLEntityDecl@xercesc_3_1@@UBE_NXZ 10042a2e f   xerces-c_3_1:XMLEntityDecl.cpp.obj
 0001:00041a2e       ?isSerializable@DTDAttDef@xercesc_3_1@@UBE_NXZ 10042a2e f   xerces-c_3_1:DTDAttDef.cpp.obj
 0001:00041a2e       ?isSerializable@MonthDayDatatypeValidator@xercesc_3_1@@UBE_NXZ 10042a2e f   xerces-c_3_1:MonthDayDatatypeValidator.cpp.obj
 0001:00041a2e       ?isSerializable@XMLUri@xercesc_3_1@@UBE_NXZ 10042a2e f   xerces-c_3_1:XMLUri.cpp.obj
 0001:00041a2e       ?isSerializable@YearDatatypeValidator@xercesc_3_1@@UBE_NXZ 10042a2e f   xerces-c_3_1:YearDatatypeValidator.cpp.obj
 0001:00041a2e       ?isSerializable@TimeDatatypeValidator@xercesc_3_1@@UBE_NXZ 10042a2e f   xerces-c_3_1:TimeDatatypeValidator.cpp.obj
 0001:00041a2e       ?handlesDTD@DTDValidator@xercesc_3_1@@UBE_NXZ 10042a2e f   xerces-c_3_1:DTDValidator.cpp.obj
 0001:00041a2e       ?isSerializable@MonthDatatypeValidator@xercesc_3_1@@UBE_NXZ 10042a2e f   xerces-c_3_1:MonthDatatypeValidator.cpp.obj
 0001:00041a2e       ?isSerializable@IC_Selector@xercesc_3_1@@UBE_NXZ 10042a2e f   xerces-c_3_1:IC_Selector.cpp.obj
 0001:00041a2e       ?isSerializable@NCNameDatatypeValidator@xercesc_3_1@@UBE_NXZ 10042a2e f   xerces-c_3_1:NCNameDatatypeValidator.cpp.obj
 0001:00041a2e       ?isSerializable@IC_KeyRef@xercesc_3_1@@UBE_NXZ 10042a2e f   xerces-c_3_1:IC_KeyRef.cpp.obj
 0001:00041a2e       ___acrt_uninitialize_command_line 10042a2e f   libucrt:argv_data.obj
 0001:00041a2e       ?isSerializable@DTDGrammar@xercesc_3_1@@UBE_NXZ 10042a2e f   xerces-c_3_1:DTDGrammar.cpp.obj
 0001:00041a2e       ?isSerializable@SchemaGrammar@xercesc_3_1@@UBE_NXZ 10042a2e f   xerces-c_3_1:SchemaGrammar.cpp.obj
 0001:00041a2e       ?isSerializable@ListDatatypeValidator@xercesc_3_1@@UBE_NXZ 10042a2e f   xerces-c_3_1:ListDatatypeValidator.cpp.obj
 0001:00041a2e       ?isSerializable@Base64BinaryDatatypeValidator@xercesc_3_1@@UBE_NXZ 10042a2e f   xerces-c_3_1:Base64BinaryDatatypeValidator.cpp.obj
 0001:00041a2e       ?isSerializable@XercesStep@xercesc_3_1@@UBE_NXZ 10042a2e f   xerces-c_3_1:XercesXPath.cpp.obj
 0001:00041a2e       ?isSerializable@DatatypeValidatorFactory@xercesc_3_1@@UBE_NXZ 10042a2e f   xerces-c_3_1:DatatypeValidatorFactory.cpp.obj
 0001:00041a2e       ?isSerializable@XMLSchemaDescriptionImpl@xercesc_3_1@@UBE_NXZ 10042a2e f   xerces-c_3_1:XMLSchemaDescriptionImpl.cpp.obj
 0001:00041a2e       ?isRepeatableLeaf@CMRepeatingLeaf@xercesc_3_1@@UBE_NXZ 10042a2e f   xerces-c_3_1:DFAContentModel.cpp.obj
 0001:00041a2e       ?isSerializable@ContentSpecNode@xercesc_3_1@@UBE_NXZ 10042a2e f   xerces-c_3_1:ContentSpecNode.cpp.obj
 0001:00041a2e       ?isSerializable@IDDatatypeValidator@xercesc_3_1@@UBE_NXZ 10042a2e f   xerces-c_3_1:IDDatatypeValidator.cpp.obj
 0001:00041a2e       ?isSerializable@AbstractStringValidator@xercesc_3_1@@UBE_NXZ 10042a2e f   xerces-c_3_1:AbstractStringValidator.cpp.obj
 0001:00041a2e       ?isSerializable@DatatypeValidator@xercesc_3_1@@UBE_NXZ 10042a2e f   xerces-c_3_1:DatatypeValidator.cpp.obj
 0001:00041a2e       ?isSerializable@IC_Unique@xercesc_3_1@@UBE_NXZ 10042a2e f   xerces-c_3_1:IC_Unique.cpp.obj
 0001:00041a2e       ?isSerializable@HexBinaryDatatypeValidator@xercesc_3_1@@UBE_NXZ 10042a2e f   xerces-c_3_1:HexBinaryDatatypeValidator.cpp.obj
 0001:00041a2e       ?handlesSchema@SchemaValidator@xercesc_3_1@@UBE_NXZ 10042a2e f   xerces-c_3_1:SchemaValidator.cpp.obj
 0001:00041a2e       ?isSerializable@DoubleDatatypeValidator@xercesc_3_1@@UBE_NXZ 10042a2e f   xerces-c_3_1:DoubleDatatypeValidator.cpp.obj
 0001:00041a2e       ?isSerializable@FloatDatatypeValidator@xercesc_3_1@@UBE_NXZ 10042a2e f   xerces-c_3_1:FloatDatatypeValidator.cpp.obj
 0001:00041a31       ?upperCase@Win32TransService@xercesc_3_1@@UAEXQA_W@Z 10042a31 f   xerces-c_3_1:Win32TransService.cpp.obj
 0001:00041a41       ?lowerCase@Win32TransService@xercesc_3_1@@UAEXQA_W@Z 10042a41 f   xerces-c_3_1:Win32TransService.cpp.obj
 0001:00041a51       ?makeNewXMLTranscoder@Win32TransService@xercesc_3_1@@MAEPAVXMLTranscoder@2@QB_WAAW4Codes@XMLTransService@2@KQAVMemoryManager@2@@Z 10042a51 f   xerces-c_3_1:Win32TransService.cpp.obj
 0001:00041af2       ?getFlagsValue@xercesc_3_1@@YAKIK@Z 10042af2 f i xerces-c_3_1:Win32TransService.cpp.obj
 0001:00041b2c       ??0Win32Transcoder@xercesc_3_1@@QAE@QB_WIKQAVMemoryManager@1@@Z 10042b2c f   xerces-c_3_1:Win32TransService.cpp.obj
 0001:00041b82       ??_GWin32Transcoder@xercesc_3_1@@UAEPAXI@Z 10042b82 f i xerces-c_3_1:Win32TransService.cpp.obj
 0001:00041b82       ??_EWin32Transcoder@xercesc_3_1@@UAEPAXI@Z 10042b82 f i * CIL library *:* CIL module *
 0001:00041bb9       ?transcodeFrom@Win32Transcoder@xercesc_3_1@@UAEKQBEKQA_WKAAKQAE@Z 10042bb9 f   xerces-c_3_1:Win32TransService.cpp.obj
 0001:00041ced       ?transcodeTo@Win32Transcoder@xercesc_3_1@@UAEKQB_WKQAEKAAKW4UnRepOpts@XMLTranscoder@2@@Z 10042ced f   xerces-c_3_1:Win32TransService.cpp.obj
 0001:00041dce       ?canTranscodeTo@Win32Transcoder@xercesc_3_1@@UAE_NI@Z 10042dce f   xerces-c_3_1:Win32TransService.cpp.obj
 0001:00041e41       ??_EWin32LCPTranscoder@xercesc_3_1@@UAEPAXI@Z 10042e41 f i * CIL library *:* CIL module *
 0001:00041e41       ??_GWin32LCPTranscoder@xercesc_3_1@@UAEPAXI@Z 10042e41 f i xerces-c_3_1:Win32TransService.cpp.obj
 0001:00041e71       ?calcRequiredSize@Win32LCPTranscoder@xercesc_3_1@@UAEKQBDQAVMemoryManager@2@@Z 10042e71 f   xerces-c_3_1:Win32TransService.cpp.obj
 0001:00041e8f       ?calcRequiredSize@Win32LCPTranscoder@xercesc_3_1@@UAEKQB_WQAVMemoryManager@2@@Z 10042e8f f   xerces-c_3_1:Win32TransService.cpp.obj
 0001:00041eae       ?transcode@Win32LCPTranscoder@xercesc_3_1@@UAEPADQB_WQAVMemoryManager@2@@Z 10042eae f   xerces-c_3_1:Win32TransService.cpp.obj
 0001:00041f0b       ?transcode@Win32LCPTranscoder@xercesc_3_1@@UAEPA_WQBDQAVMemoryManager@2@@Z 10042f0b f   xerces-c_3_1:Win32TransService.cpp.obj
 0001:00041f83       ?transcode@Win32LCPTranscoder@xercesc_3_1@@UAE_NQBDQA_WKQAVMemoryManager@2@@Z 10042f83 f   xerces-c_3_1:Win32TransService.cpp.obj
 0001:00041fc0       ?transcode@Win32LCPTranscoder@xercesc_3_1@@UAE_NQB_WQADKQAVMemoryManager@2@@Z 10042fc0 f   xerces-c_3_1:Win32TransService.cpp.obj
 0001:0004200b       ??0?$RefHashTableOf@VCPMapEntry@xercesc_3_1@@UStringHasher@2@@xercesc_3_1@@QAE@KQAVMemoryManager@1@@Z 1004300b f i xerces-c_3_1:Win32TransService.cpp.obj
 0001:00042056       ?put@?$RefHashTableOf@VCPMapEntry@xercesc_3_1@@UStringHasher@2@@xercesc_3_1@@QAEXPAXQAVCPMapEntry@2@@Z 10043056 f i xerces-c_3_1:Win32TransService.cpp.obj
 0001:000420f5       ?findBucketElem@?$RefHashTableOf@V?$ValueVectorOf@PAVSchemaElementDecl@xercesc_3_1@@@xercesc_3_1@@UStringHasher@2@@xercesc_3_1@@AAEPAU?$RefHashTableBucketElem@V?$ValueVectorOf@PAVSchemaElementDecl@xercesc_3_1@@@xercesc_3_1@@@2@QBXAAK@Z 100430f5 f i xerces-c_3_1:TraverseSchema.cpp.obj
 0001:000420f5       ?findBucketElem@?$RefHashTableOf@VXMLNotationDecl@xercesc_3_1@@UStringHasher@2@@xercesc_3_1@@AAEPAU?$RefHashTableBucketElem@VXMLNotationDecl@xercesc_3_1@@@2@QBXAAK@Z 100430f5 f i xerces-c_3_1:DTDGrammar.cpp.obj
 0001:000420f5       ?findBucketElem@?$RefHashTableOf@VXSNamespaceItem@xercesc_3_1@@UStringHasher@2@@xercesc_3_1@@AAEPAU?$RefHashTableBucketElem@VXSNamespaceItem@xercesc_3_1@@@2@QBXAAK@Z 100430f5 f i xerces-c_3_1:XSModel.cpp.obj
 0001:000420f5       ?findBucketElem@?$RefHashTableOf@VXercesGroupInfo@xercesc_3_1@@UStringHasher@2@@xercesc_3_1@@AAEPAU?$RefHashTableBucketElem@VXercesGroupInfo@xercesc_3_1@@@2@QBXAAK@Z 100430f5 f i xerces-c_3_1:XTemplateSerializer.cpp.obj
 0001:000420f5       ?findBucketElem@?$RefHashTableOf@VXSObject@xercesc_3_1@@UStringHasher@2@@xercesc_3_1@@AAEPAU?$RefHashTableBucketElem@VXSObject@xercesc_3_1@@@2@QBXAAK@Z 100430f5 f i xerces-c_3_1:XSModel.cpp.obj
 0001:000420f5       ?findBucketElem@?$RefHashTableOf@VComplexTypeInfo@xercesc_3_1@@UStringHasher@2@@xercesc_3_1@@AAEPAU?$RefHashTableBucketElem@VComplexTypeInfo@xercesc_3_1@@@2@QBXAAK@Z 100430f5 f i xerces-c_3_1:XTemplateSerializer.cpp.obj
 0001:000420f5       ?findBucketElem@?$RefHashTableOf@UPoolElem@XMLStringPool@xercesc_3_1@@UStringHasher@3@@xercesc_3_1@@AAEPAU?$RefHashTableBucketElem@UPoolElem@XMLStringPool@xercesc_3_1@@@2@QBXAAK@Z 100430f5 f i xerces-c_3_1:StringPool.cpp.obj
 0001:000420f5       ?findBucketElem@?$RefHashTableOf@VDTDEntityDecl@xercesc_3_1@@UStringHasher@2@@xercesc_3_1@@ABEPBU?$RefHashTableBucketElem@VDTDEntityDecl@xercesc_3_1@@@2@QBXAAK@Z 100430f5 f i xerces-c_3_1:DTDGrammar.cpp.obj
 0001:000420f5       ?findBucketElem@?$RefHashTableOf@VRangeFactory@xercesc_3_1@@UStringHasher@2@@xercesc_3_1@@AAEPAU?$RefHashTableBucketElem@VRangeFactory@xercesc_3_1@@@2@QBXAAK@Z 100430f5 f i xerces-c_3_1:RangeTokenMap.cpp.obj
 0001:000420f5       ?findBucketElem@?$RefHashTableOf@_WUStringHasher@xercesc_3_1@@@xercesc_3_1@@AAEPAU?$RefHashTableBucketElem@_W@2@QBXAAK@Z 100430f5 f i xerces-c_3_1:DOMNormalizer.cpp.obj
 0001:000420f5       ?findBucketElem@?$RefHashTableOf@VXercesAttGroupInfo@xercesc_3_1@@UStringHasher@2@@xercesc_3_1@@AAEPAU?$RefHashTableBucketElem@VXercesAttGroupInfo@xercesc_3_1@@@2@QBXAAK@Z 100430f5 f i xerces-c_3_1:XTemplateSerializer.cpp.obj
 0001:000420f5       ?findBucketElem@?$RefHashTableOf@VDTDEntityDecl@xercesc_3_1@@UStringHasher@2@@xercesc_3_1@@AAEPAU?$RefHashTableBucketElem@VDTDEntityDecl@xercesc_3_1@@@2@QBXAAK@Z 100430f5 f i xerces-c_3_1:DTDGrammar.cpp.obj
 0001:000420f5       ?findBucketElem@?$RefHashTableOf@VDTDAttDef@xercesc_3_1@@UStringHasher@2@@xercesc_3_1@@AAEPAU?$RefHashTableBucketElem@VDTDAttDef@xercesc_3_1@@@2@QBXAAK@Z 100430f5 f i xerces-c_3_1:XTemplateSerializer.cpp.obj
 0001:000420f5       ?findBucketElem@?$RefHashTableOf@VXMLElementDecl@xercesc_3_1@@UStringHasher@2@@xercesc_3_1@@AAEPAU?$RefHashTableBucketElem@VXMLElementDecl@xercesc_3_1@@@2@QBXAAK@Z 100430f5 f i xerces-c_3_1:WFXMLScanner.cpp.obj
 0001:000420f5       ?findBucketElem@?$RefHashTableOf@VENameMap@xercesc_3_1@@UStringHasher@2@@xercesc_3_1@@AAEPAU?$RefHashTableBucketElem@VENameMap@xercesc_3_1@@@2@QBXAAK@Z 100430f5 f i xerces-c_3_1:TransService.cpp.obj
 0001:000420f5       ?findBucketElem@?$RefHashTableOf@VDOMElement@xercesc_3_1@@UStringHasher@2@@xercesc_3_1@@AAEPAU?$RefHashTableBucketElem@VDOMElement@xercesc_3_1@@@2@QBXAAK@Z 100430f5 f i xerces-c_3_1:SchemaInfo.cpp.obj
 0001:000420f5       ?findBucketElem@?$RefHashTableOf@VXMLAttDef@xercesc_3_1@@UStringHasher@2@@xercesc_3_1@@AAEPAU?$RefHashTableBucketElem@VXMLAttDef@xercesc_3_1@@@2@QBXAAK@Z 100430f5 f i xerces-c_3_1:SGXMLScanner.cpp.obj
 0001:000420f5       ?findBucketElem@?$RefHashTableOf@VRangeTokenElemMap@xercesc_3_1@@UStringHasher@2@@xercesc_3_1@@AAEPAU?$RefHashTableBucketElem@VRangeTokenElemMap@xercesc_3_1@@@2@QBXAAK@Z 100430f5 f i xerces-c_3_1:RangeTokenMap.cpp.obj
 0001:000420f5       ?findBucketElem@?$RefHashTableOf@VGrammar@xercesc_3_1@@UStringHasher@2@@xercesc_3_1@@AAEPAU?$RefHashTableBucketElem@VGrammar@xercesc_3_1@@@2@QBXAAK@Z 100430f5 f i xerces-c_3_1:GrammarResolver.cpp.obj
 0001:000420f5       ?findBucketElem@?$RefHashTableOf@VDatatypeValidator@xercesc_3_1@@UStringHasher@2@@xercesc_3_1@@AAEPAU?$RefHashTableBucketElem@VDatatypeValidator@xercesc_3_1@@@2@QBXAAK@Z 100430f5 f i xerces-c_3_1:GrammarResolver.cpp.obj
 0001:000420f5       ?findBucketElem@?$RefHashTableOf@VKVStringPair@xercesc_3_1@@UStringHasher@2@@xercesc_3_1@@AAEPAU?$RefHashTableBucketElem@VKVStringPair@xercesc_3_1@@@2@QBXAAK@Z 100430f5 f i xerces-c_3_1:DOMXPathNSResolverImpl.cpp.obj
 0001:000420f5       ?findBucketElem@?$RefHashTableOf@VDTDElementDecl@xercesc_3_1@@UStringHasher@2@@xercesc_3_1@@AAEPAU?$RefHashTableBucketElem@VDTDElementDecl@xercesc_3_1@@@2@QBXAAK@Z 100430f5 f i xerces-c_3_1:DTDGrammar.cpp.obj
 0001:000420f5       ?findBucketElem@?$RefHashTableOf@VCPMapEntry@xercesc_3_1@@UStringHasher@2@@xercesc_3_1@@AAEPAU?$RefHashTableBucketElem@VCPMapEntry@xercesc_3_1@@@2@QBXAAK@Z 100430f5 f i xerces-c_3_1:Win32TransService.cpp.obj
 0001:000420f5       ?findBucketElem@?$RefHashTableOf@VXMLRefInfo@xercesc_3_1@@UStringHasher@2@@xercesc_3_1@@AAEPAU?$RefHashTableBucketElem@VXMLRefInfo@xercesc_3_1@@@2@QBXAAK@Z 100430f5 f i xerces-c_3_1:ValidationContextImpl.cpp.obj
 0001:00042134       ?rehash@?$RefHashTableOf@V?$ValueVectorOf@PAVSchemaElementDecl@xercesc_3_1@@@xercesc_3_1@@UStringHasher@2@@xercesc_3_1@@AAEXXZ 10043134 f i xerces-c_3_1:TraverseSchema.cpp.obj
 0001:00042134       ?rehash@?$RefHashTableOf@VXercesGroupInfo@xercesc_3_1@@UStringHasher@2@@xercesc_3_1@@AAEXXZ 10043134 f i xerces-c_3_1:XTemplateSerializer.cpp.obj
 0001:00042134       ?rehash@?$RefHashTableOf@VXercesAttGroupInfo@xercesc_3_1@@UStringHasher@2@@xercesc_3_1@@AAEXXZ 10043134 f i xerces-c_3_1:XTemplateSerializer.cpp.obj
 0001:00042134       ?rehash@?$RefHashTableOf@VCPMapEntry@xercesc_3_1@@UStringHasher@2@@xercesc_3_1@@AAEXXZ 10043134 f i xerces-c_3_1:Win32TransService.cpp.obj
 0001:00042134       ?rehash@?$RefHashTableOf@VDOMElement@xercesc_3_1@@UStringHasher@2@@xercesc_3_1@@AAEXXZ 10043134 f i xerces-c_3_1:SchemaInfo.cpp.obj
 0001:00042134       ?rehash@?$RefHashTableOf@VKVStringPair@xercesc_3_1@@UStringHasher@2@@xercesc_3_1@@AAEXXZ 10043134 f i xerces-c_3_1:DOMXPathNSResolverImpl.cpp.obj
 0001:00042134       ?rehash@?$RefHashTableOf@VGrammar@xercesc_3_1@@UStringHasher@2@@xercesc_3_1@@AAEXXZ 10043134 f i xerces-c_3_1:GrammarResolver.cpp.obj
 0001:00042134       ?rehash@?$RefHashTableOf@_WUStringHasher@xercesc_3_1@@@xercesc_3_1@@AAEXXZ 10043134 f i xerces-c_3_1:DOMNormalizer.cpp.obj
 0001:00042134       ?rehash@?$RefHashTableOf@VXSObject@xercesc_3_1@@UStringHasher@2@@xercesc_3_1@@AAEXXZ 10043134 f i xerces-c_3_1:XSModel.cpp.obj
 0001:00042134       ?rehash@?$RefHashTableOf@VXMLAttDef@xercesc_3_1@@UStringHasher@2@@xercesc_3_1@@AAEXXZ 10043134 f i xerces-c_3_1:XTemplateSerializer.cpp.obj
 0001:00042134       ?rehash@?$RefHashTableOf@VXMLNotationDecl@xercesc_3_1@@UStringHasher@2@@xercesc_3_1@@AAEXXZ 10043134 f i xerces-c_3_1:DTDGrammar.cpp.obj
 0001:00042134       ?rehash@?$RefHashTableOf@VDTDEntityDecl@xercesc_3_1@@UStringHasher@2@@xercesc_3_1@@AAEXXZ 10043134 f i xerces-c_3_1:DTDGrammar.cpp.obj
 0001:00042134       ?rehash@?$RefHashTableOf@VDatatypeValidator@xercesc_3_1@@UStringHasher@2@@xercesc_3_1@@AAEXXZ 10043134 f i xerces-c_3_1:DatatypeValidatorFactory.cpp.obj
 0001:00042134       ?rehash@?$RefHashTableOf@VDTDAttDef@xercesc_3_1@@UStringHasher@2@@xercesc_3_1@@AAEXXZ 10043134 f i xerces-c_3_1:XTemplateSerializer.cpp.obj
 0001:00042134       ?rehash@?$RefHashTableOf@VENameMap@xercesc_3_1@@UStringHasher@2@@xercesc_3_1@@AAEXXZ 10043134 f i xerces-c_3_1:TransService.cpp.obj
 0001:00042134       ?rehash@?$RefHashTableOf@VRangeTokenElemMap@xercesc_3_1@@UStringHasher@2@@xercesc_3_1@@AAEXXZ 10043134 f i xerces-c_3_1:RangeTokenMap.cpp.obj
 0001:00042134       ?rehash@?$RefHashTableOf@UPoolElem@XMLStringPool@xercesc_3_1@@UStringHasher@3@@xercesc_3_1@@AAEXXZ 10043134 f i xerces-c_3_1:StringPool.cpp.obj
 0001:00042134       ?rehash@?$RefHashTableOf@VRangeFactory@xercesc_3_1@@UStringHasher@2@@xercesc_3_1@@AAEXXZ 10043134 f i xerces-c_3_1:RangeTokenMap.cpp.obj
 0001:00042134       ?rehash@?$RefHashTableOf@VDTDElementDecl@xercesc_3_1@@UStringHasher@2@@xercesc_3_1@@AAEXXZ 10043134 f i xerces-c_3_1:DTDGrammar.cpp.obj
 0001:00042134       ?rehash@?$RefHashTableOf@VComplexTypeInfo@xercesc_3_1@@UStringHasher@2@@xercesc_3_1@@AAEXXZ 10043134 f i xerces-c_3_1:XTemplateSerializer.cpp.obj
 0001:00042134       ?rehash@?$RefHashTableOf@VXMLRefInfo@xercesc_3_1@@UStringHasher@2@@xercesc_3_1@@AAEXXZ 10043134 f i xerces-c_3_1:ValidationContextImpl.cpp.obj
 0001:00042134       ?rehash@?$RefHashTableOf@VXMLElementDecl@xercesc_3_1@@UStringHasher@2@@xercesc_3_1@@AAEXXZ 10043134 f i xerces-c_3_1:WFXMLScanner.cpp.obj
 0001:00042134       ?rehash@?$RefHashTableOf@VXSNamespaceItem@xercesc_3_1@@UStringHasher@2@@xercesc_3_1@@AAEXXZ 10043134 f i xerces-c_3_1:XSModel.cpp.obj
 0001:000421ed       ?removeAll@?$RefHashTableOf@VCPMapEntry@xercesc_3_1@@UStringHasher@2@@xercesc_3_1@@QAEXXZ 100431ed f i xerces-c_3_1:Win32TransService.cpp.obj
 0001:00042275       ?isAllSpaces@XMLChar1_0@xercesc_3_1@@SA_NQB_WK@Z 10043275 f   xerces-c_3_1:XMLChar.cpp.obj
 0001:00042297       ?isValidNCName@XMLChar1_0@xercesc_3_1@@SA_NQB_WK@Z 10043297 f   xerces-c_3_1:XMLChar.cpp.obj
 0001:000422cc       ?isValidName@XMLChar1_0@xercesc_3_1@@SA_NQB_W@Z 100432cc f   xerces-c_3_1:XMLChar.cpp.obj
 0001:000422fe       ?isValidQName@XMLChar1_0@xercesc_3_1@@SA_NQB_WK@Z 100432fe f   xerces-c_3_1:XMLChar.cpp.obj
 0001:00042367       ?isAllSpaces@XMLChar1_1@xercesc_3_1@@SA_NQB_WK@Z 10043367 f   xerces-c_3_1:XMLChar.cpp.obj
 0001:00042389       ?isValidName@XMLChar1_1@xercesc_3_1@@SA_NQB_W@Z 10043389 f   xerces-c_3_1:XMLChar.cpp.obj
 0001:0004242d       ??0OutOfMemoryException@xercesc_3_1@@QAE@ABV01@@Z 1004342d f i xerces-c_3_1:MemoryManagerImpl.cpp.obj
 0001:00042432       ?getExceptionMemoryManager@MemoryManagerImpl@xercesc_3_1@@UAEPAVMemoryManager@2@XZ 10043432 f   xerces-c_3_1:MemoryManagerImpl.cpp.obj
 0001:00042435       ?allocate@MemoryManagerImpl@xercesc_3_1@@UAEPAXK@Z 10043435 f   xerces-c_3_1:MemoryManagerImpl.cpp.obj
 0001:00042499       ?deallocate@MemoryManagerImpl@xercesc_3_1@@UAEXPAX@Z 10043499 f   xerces-c_3_1:MemoryManagerImpl.cpp.obj
 0001:000424c7       ??_G?$ENameMapFor@VXMLIBM1047Transcoder@xercesc_3_1@@@xercesc_3_1@@UAEPAXI@Z 100434c7 f i xerces-c_3_1:TransService.cpp.obj
 0001:000424c7       ??_G?$ENameMapFor@VXMLWin1252Transcoder@xercesc_3_1@@@xercesc_3_1@@UAEPAXI@Z 100434c7 f i xerces-c_3_1:TransService.cpp.obj
 0001:000424c7       ??_G?$ENameMapFor@VXML88591Transcoder@xercesc_3_1@@@xercesc_3_1@@UAEPAXI@Z 100434c7 f i xerces-c_3_1:TransService.cpp.obj
 0001:000424c7       ??_G?$ENameMapFor@VXMLUTF8Transcoder@xercesc_3_1@@@xercesc_3_1@@UAEPAXI@Z 100434c7 f i xerces-c_3_1:TransService.cpp.obj
 0001:000424c7       ??_E?$ENameMapFor@VXMLIBM1047Transcoder@xercesc_3_1@@@xercesc_3_1@@UAEPAXI@Z 100434c7 f i * CIL library *:* CIL module *
 0001:000424c7       ??_G?$ENameMapFor@VXMLEBCDICTranscoder@xercesc_3_1@@@xercesc_3_1@@UAEPAXI@Z 100434c7 f i xerces-c_3_1:TransService.cpp.obj
 0001:000424c7       ??_E?$ENameMapFor@VXMLChTranscoder@xercesc_3_1@@@xercesc_3_1@@UAEPAXI@Z 100434c7 f i * CIL library *:* CIL module *
 0001:000424c7       ??_G?$ENameMapFor@VXMLChTranscoder@xercesc_3_1@@@xercesc_3_1@@UAEPAXI@Z 100434c7 f i xerces-c_3_1:TransService.cpp.obj
 0001:000424c7       ??_E?$ENameMapFor@VXMLUTF8Transcoder@xercesc_3_1@@@xercesc_3_1@@UAEPAXI@Z 100434c7 f i * CIL library *:* CIL module *
 0001:000424c7       ??_GENameMap@xercesc_3_1@@UAEPAXI@Z 100434c7 f i xerces-c_3_1:TransService.cpp.obj
 0001:000424c7       ??_E?$ENameMapFor@VXML88591Transcoder@xercesc_3_1@@@xercesc_3_1@@UAEPAXI@Z 100434c7 f i * CIL library *:* CIL module *
 0001:000424c7       ??_G?$ENameMapFor@VXMLASCIITranscoder@xercesc_3_1@@@xercesc_3_1@@UAEPAXI@Z 100434c7 f i xerces-c_3_1:TransService.cpp.obj
 0001:000424c7       ??_E?$ENameMapFor@VXMLEBCDICTranscoder@xercesc_3_1@@@xercesc_3_1@@UAEPAXI@Z 100434c7 f i * CIL library *:* CIL module *
 0001:000424c7       ??_G?$ENameMapFor@VXMLIBM1140Transcoder@xercesc_3_1@@@xercesc_3_1@@UAEPAXI@Z 100434c7 f i xerces-c_3_1:TransService.cpp.obj
 0001:000424c7       ??_E?$ENameMapFor@VXMLWin1252Transcoder@xercesc_3_1@@@xercesc_3_1@@UAEPAXI@Z 100434c7 f i * CIL library *:* CIL module *
 0001:000424c7       ??_E?$ENameMapFor@VXMLIBM1140Transcoder@xercesc_3_1@@@xercesc_3_1@@UAEPAXI@Z 100434c7 f i * CIL library *:* CIL module *
 0001:000424c7       ??_EENameMap@xercesc_3_1@@UAEPAXI@Z 100434c7 f i * CIL library *:* CIL module *
 0001:000424c7       ??_E?$ENameMapFor@VXMLASCIITranscoder@xercesc_3_1@@@xercesc_3_1@@UAEPAXI@Z 100434c7 f i * CIL library *:* CIL module *
 0001:0004252a       ?initializeTransService@XMLInitializer@xercesc_3_1@@KAXXZ 1004352a f   xerces-c_3_1:TransService.cpp.obj
 0001:00042596       ??_G?$RefHashTableOf@VXSObject@xercesc_3_1@@UPtrHasher@2@@xercesc_3_1@@QAEPAXI@Z 10043596 f i xerces-c_3_1:XSObjectFactory.cpp.obj
 0001:00042596       ??_G?$RefHashTableOf@VRangeFactory@xercesc_3_1@@UStringHasher@2@@xercesc_3_1@@QAEPAXI@Z 10043596 f i xerces-c_3_1:RangeTokenMap.cpp.obj
 0001:00042596       ??_G?$RefHashTableOf@VENameMap@xercesc_3_1@@UStringHasher@2@@xercesc_3_1@@QAEPAXI@Z 10043596 f i xerces-c_3_1:TransService.cpp.obj
 0001:00042596       ??_G?$RefHashTableOf@VKVStringPair@xercesc_3_1@@UStringHasher@2@@xercesc_3_1@@QAEPAXI@Z 10043596 f i xerces-c_3_1:DOMXPathNSResolverImpl.cpp.obj
 0001:00042596       ??_G?$RefHashTableOf@VXercesGroupInfo@xercesc_3_1@@UStringHasher@2@@xercesc_3_1@@QAEPAXI@Z 10043596 f i xerces-c_3_1:XSModel.cpp.obj
 0001:00042596       ??_G?$RefHashTableOf@VDOMElement@xercesc_3_1@@UStringHasher@2@@xercesc_3_1@@QAEPAXI@Z 10043596 f i xerces-c_3_1:SchemaInfo.cpp.obj
 0001:00042596       ??_G?$RefHashTableOf@VXercesAttGroupInfo@xercesc_3_1@@UStringHasher@2@@xercesc_3_1@@QAEPAXI@Z 10043596 f i xerces-c_3_1:XSModel.cpp.obj
 0001:00042596       ??_G?$RefHashTableOf@VComplexTypeInfo@xercesc_3_1@@UStringHasher@2@@xercesc_3_1@@QAEPAXI@Z 10043596 f i xerces-c_3_1:XSModel.cpp.obj
 0001:00042596       ??_G?$RefHashTableOf@VXMLAttDef@xercesc_3_1@@UStringHasher@2@@xercesc_3_1@@QAEPAXI@Z 10043596 f i xerces-c_3_1:XSModel.cpp.obj
 0001:00042596       ??_G?$RefHashTableOf@VDTDAttDef@xercesc_3_1@@UStringHasher@2@@xercesc_3_1@@QAEPAXI@Z 10043596 f i xerces-c_3_1:XTemplateSerializer.cpp.obj
 0001:00042596       ??_G?$RefHashTableOf@VXSObject@xercesc_3_1@@UStringHasher@2@@xercesc_3_1@@QAEPAXI@Z 10043596 f i xerces-c_3_1:XSNamespaceItem.cpp.obj
 0001:00042631       ??_EXMLTransService@xercesc_3_1@@UAEPAXI@Z 10043631 f i * CIL library *:* CIL module *
 0001:00042631       ??_GXMLTransService@xercesc_3_1@@UAEPAXI@Z 10043631 f i xerces-c_3_1:TransService.cpp.obj
 0001:00042661       ??1XMLTransService@xercesc_3_1@@UAE@XZ 10043661 f   xerces-c_3_1:TransService.cpp.obj
 0001:00042668       ?makeNewTranscoderFor@XMLTransService@xercesc_3_1@@QAEPAVXMLTranscoder@2@QB_WAAW4Codes@12@KQAVMemoryManager@2@@Z 10043668 f   xerces-c_3_1:TransService.cpp.obj
 0001:00042757       ?makeNewTranscoderFor@XMLTransService@xercesc_3_1@@QAEPAVXMLTranscoder@2@W4Encodings@XMLRecognizer@2@AAW4Codes@12@KQAVMemoryManager@2@@Z 10043757 f   xerces-c_3_1:TransService.cpp.obj
 0001:0004281b       ?initTransService@XMLTransService@xercesc_3_1@@MAEXXZ 1004381b f   xerces-c_3_1:TransService.cpp.obj
 0001:00043432       ??1XMLTranscoder@xercesc_3_1@@UAE@XZ 10044432 f   xerces-c_3_1:TransService.cpp.obj
 0001:00043469       ??_GXMLTranscoder@xercesc_3_1@@UAEPAXI@Z 10044469 f i xerces-c_3_1:TransService.cpp.obj
 0001:00043469       ??_EXMLTranscoder@xercesc_3_1@@UAEPAXI@Z 10044469 f i * CIL library *:* CIL module *
 0001:0004349a       ??0XMLTranscoder@xercesc_3_1@@IAE@QB_WKQAVMemoryManager@1@@Z 1004449a f   xerces-c_3_1:TransService.cpp.obj
 0001:000434c8       ??_GXMLLCPTranscoder@xercesc_3_1@@UAEPAXI@Z 100444c8 f i xerces-c_3_1:TransService.cpp.obj
 0001:000434c8       ??_EXMLLCPTranscoder@xercesc_3_1@@UAEPAXI@Z 100444c8 f i * CIL library *:* CIL module *
 0001:000434f8       ??0?$RefHashTableOf@VENameMap@xercesc_3_1@@UStringHasher@2@@xercesc_3_1@@QAE@KQAVMemoryManager@1@@Z 100444f8 f i xerces-c_3_1:TransService.cpp.obj
 0001:00043543       ?put@?$RefHashTableOf@VENameMap@xercesc_3_1@@UStringHasher@2@@xercesc_3_1@@QAEXPAXQAVENameMap@2@@Z 10044543 f i xerces-c_3_1:TransService.cpp.obj
 0001:000435c6       ??0?$RefVectorOf@VENameMap@xercesc_3_1@@@xercesc_3_1@@QAE@K_NQAVMemoryManager@1@@Z 100445c6 f i xerces-c_3_1:TransService.cpp.obj
 0001:0004361b       ?addElement@?$BaseRefVectorOf@VENameMap@xercesc_3_1@@@xercesc_3_1@@QAEXQAVENameMap@2@@Z 1004461b f i xerces-c_3_1:TransService.cpp.obj
 0001:000436a1       ?reset@?$ArrayJanitor@_W@xercesc_3_1@@QAEXPA_WQAVMemoryManager@2@@Z 100446a1 f i xerces-c_3_1:TransService.cpp.obj
 0001:000436ee       ?makeNew@?$ENameMapFor@VXMLChTranscoder@xercesc_3_1@@@xercesc_3_1@@UBEPAVXMLTranscoder@2@KQAVMemoryManager@2@@Z 100446ee f i xerces-c_3_1:TransService.cpp.obj
 0001:00043741       ??0?$ENameMapFor@VXMLASCIITranscoder@xercesc_3_1@@@xercesc_3_1@@QAE@QB_W@Z 10044741 f i xerces-c_3_1:TransService.cpp.obj
 0001:0004376f       ?makeNew@?$ENameMapFor@VXMLASCIITranscoder@xercesc_3_1@@@xercesc_3_1@@UBEPAVXMLTranscoder@2@KQAVMemoryManager@2@@Z 1004476f f i xerces-c_3_1:TransService.cpp.obj
 0001:000437c2       ??0?$ENameMapFor@VXMLUTF8Transcoder@xercesc_3_1@@@xercesc_3_1@@QAE@QB_W@Z 100447c2 f i xerces-c_3_1:TransService.cpp.obj
 0001:000437f0       ?makeNew@?$ENameMapFor@VXMLUTF8Transcoder@xercesc_3_1@@@xercesc_3_1@@UBEPAVXMLTranscoder@2@KQAVMemoryManager@2@@Z 100447f0 f i xerces-c_3_1:TransService.cpp.obj
 0001:00043843       ??0?$ENameMapFor@VXML88591Transcoder@xercesc_3_1@@@xercesc_3_1@@QAE@QB_W@Z 10044843 f i xerces-c_3_1:TransService.cpp.obj
 0001:00043871       ?makeNew@?$ENameMapFor@VXML88591Transcoder@xercesc_3_1@@@xercesc_3_1@@UBEPAVXMLTranscoder@2@KQAVMemoryManager@2@@Z 10044871 f i xerces-c_3_1:TransService.cpp.obj
 0001:000438c4       ??0?$EEndianNameMapFor@VXMLUTF16Transcoder@xercesc_3_1@@@xercesc_3_1@@QAE@QB_W_N@Z 100448c4 f i xerces-c_3_1:TransService.cpp.obj
 0001:000438f8       ?makeNew@?$EEndianNameMapFor@VXMLUTF16Transcoder@xercesc_3_1@@@xercesc_3_1@@UBEPAVXMLTranscoder@2@KQAVMemoryManager@2@@Z 100448f8 f i xerces-c_3_1:TransService.cpp.obj
 0001:00043953       ??0?$EEndianNameMapFor@VXMLUCS4Transcoder@xercesc_3_1@@@xercesc_3_1@@QAE@QB_W_N@Z 10044953 f i xerces-c_3_1:TransService.cpp.obj
 0001:00043987       ?makeNew@?$EEndianNameMapFor@VXMLUCS4Transcoder@xercesc_3_1@@@xercesc_3_1@@UBEPAVXMLTranscoder@2@KQAVMemoryManager@2@@Z 10044987 f i xerces-c_3_1:TransService.cpp.obj
 0001:000439e2       ??0?$ENameMapFor@VXMLEBCDICTranscoder@xercesc_3_1@@@xercesc_3_1@@QAE@QB_W@Z 100449e2 f i xerces-c_3_1:TransService.cpp.obj
 0001:00043a10       ?makeNew@?$ENameMapFor@VXMLEBCDICTranscoder@xercesc_3_1@@@xercesc_3_1@@UBEPAVXMLTranscoder@2@KQAVMemoryManager@2@@Z 10044a10 f i xerces-c_3_1:TransService.cpp.obj
 0001:00043a78       ?makeNew@?$ENameMapFor@VXMLIBM1047Transcoder@xercesc_3_1@@@xercesc_3_1@@UBEPAVXMLTranscoder@2@KQAVMemoryManager@2@@Z 10044a78 f i xerces-c_3_1:TransService.cpp.obj
 0001:00043ae0       ??0?$ENameMapFor@VXMLIBM1140Transcoder@xercesc_3_1@@@xercesc_3_1@@QAE@QB_W@Z 10044ae0 f i xerces-c_3_1:TransService.cpp.obj
 0001:00043b0e       ?makeNew@?$ENameMapFor@VXMLIBM1140Transcoder@xercesc_3_1@@@xercesc_3_1@@UBEPAVXMLTranscoder@2@KQAVMemoryManager@2@@Z 10044b0e f i xerces-c_3_1:TransService.cpp.obj
 0001:00043b76       ?makeNew@?$ENameMapFor@VXMLWin1252Transcoder@xercesc_3_1@@@xercesc_3_1@@UBEPAVXMLTranscoder@2@KQAVMemoryManager@2@@Z 10044b76 f i xerces-c_3_1:TransService.cpp.obj
 0001:00043bde       ??1?$Janitor@VSchemaAttDef@xercesc_3_1@@@xercesc_3_1@@QAE@XZ 10044bde f i xerces-c_3_1:TraverseSchema.cpp.obj
 0001:00043bde       ??1?$Janitor@VMemBufInputSource@xercesc_3_1@@@xercesc_3_1@@QAE@XZ 10044bde f i xerces-c_3_1:TraverseSchema.cpp.obj
 0001:00043bde       ??1?$Janitor@VXercesGroupInfo@xercesc_3_1@@@xercesc_3_1@@QAE@XZ 10044bde f i xerces-c_3_1:TraverseSchema.cpp.obj
 0001:00043bde       ??1?$Janitor@VXMLDateTime@xercesc_3_1@@@xercesc_3_1@@QAE@XZ 10044bde f i xerces-c_3_1:MonthDayDatatypeValidator.cpp.obj
 0001:00043bde       ??1?$Janitor@VBinInputStream@xercesc_3_1@@@xercesc_3_1@@QAE@XZ 10044bde f i xerces-c_3_1:XIncludeUtils.cpp.obj
 0001:00043bde       ??1?$Janitor@VIC_Unique@xercesc_3_1@@@xercesc_3_1@@QAE@XZ 10044bde f i xerces-c_3_1:TraverseSchema.cpp.obj
 0001:00043bde       ??1?$Janitor@VDTDEntityDecl@xercesc_3_1@@@xercesc_3_1@@QAE@XZ 10044bde f i xerces-c_3_1:IGXMLScanner.cpp.obj
 0001:00043bde       ??1?$Janitor@VXMLGrammarDescription@xercesc_3_1@@@xercesc_3_1@@QAE@XZ 10044bde f i xerces-c_3_1:GrammarResolver.cpp.obj
 0001:00043bde       ??1?$Janitor@VXMLSchemaDescription@xercesc_3_1@@@xercesc_3_1@@QAE@XZ 10044bde f i xerces-c_3_1:TraverseSchema.cpp.obj
 0001:00043bde       ??1?$Janitor@VXercesAttGroupInfo@xercesc_3_1@@@xercesc_3_1@@QAE@XZ 10044bde f i xerces-c_3_1:TraverseSchema.cpp.obj
 0001:00043bde       ??1?$Janitor@V?$RefArrayVectorOf@_W@xercesc_3_1@@@xercesc_3_1@@QAE@XZ 10044bde f i xerces-c_3_1:DatatypeValidatorFactory.cpp.obj
 0001:00043bde       ??1?$Janitor@VIC_Key@xercesc_3_1@@@xercesc_3_1@@QAE@XZ 10044bde f i xerces-c_3_1:TraverseSchema.cpp.obj
 0001:00043bde       ??1?$Janitor@VXMLFormatTarget@xercesc_3_1@@@xercesc_3_1@@QAE@XZ 10044bde f i xerces-c_3_1:DOMLSSerializerImpl.cpp.obj
 0001:00043bde       ??1?$Janitor@V?$RefVectorOf@VXercesStep@xercesc_3_1@@@xercesc_3_1@@@xercesc_3_1@@QAE@XZ 10044bde f i xerces-c_3_1:XercesXPath.cpp.obj
 0001:00043bde       ??1OpFactory@xercesc_3_1@@QAE@XZ 10044bde f i xerces-c_3_1:OpFactory.cpp.obj
 0001:00043bde       ??1?$Janitor@VXSAXMLScanner@xercesc_3_1@@@xercesc_3_1@@QAE@XZ 10044bde f i xerces-c_3_1:TraverseSchema.cpp.obj
 0001:00043bde       ??1?$Janitor@VSchemaElementDecl@xercesc_3_1@@@xercesc_3_1@@QAE@XZ 10044bde f i xerces-c_3_1:TraverseSchema.cpp.obj
 0001:00043bde       ??1?$Janitor@V?$RefVectorOf@VDatatypeValidator@xercesc_3_1@@@xercesc_3_1@@@xercesc_3_1@@QAE@XZ 10044bde f i xerces-c_3_1:TraverseSchema.cpp.obj
 0001:00043bde       ??1?$Janitor@VRegxParser@xercesc_3_1@@@xercesc_3_1@@QAE@XZ 10044bde f i xerces-c_3_1:RegularExpression.cpp.obj
 0001:00043bde       ??1?$Janitor@VDTDElementDecl@xercesc_3_1@@@xercesc_3_1@@QAE@XZ 10044bde f i xerces-c_3_1:IGXMLScanner.cpp.obj
 0001:00043bde       ??1?$Janitor@VIC_KeyRef@xercesc_3_1@@@xercesc_3_1@@QAE@XZ 10044bde f i xerces-c_3_1:TraverseSchema.cpp.obj
 0001:00043bde       ??1?$Janitor@V?$BaseRefVectorOf@_W@xercesc_3_1@@@xercesc_3_1@@QAE@XZ 10044bde f i xerces-c_3_1:SGXMLScanner.cpp.obj
 0001:00043bde       ??1?$Janitor@VXMLTranscoder@xercesc_3_1@@@xercesc_3_1@@QAE@XZ 10044bde f i xerces-c_3_1:TransService.cpp.obj
 0001:00043bf2       ??_E?$RefVectorOf@VENameMap@xercesc_3_1@@@xercesc_3_1@@UAEPAXI@Z 10044bf2 f i * CIL library *:* CIL module *
 0001:00043bf2       ??_G?$RefVectorOf@VENameMap@xercesc_3_1@@@xercesc_3_1@@UAEPAXI@Z 10044bf2 f i xerces-c_3_1:TransService.cpp.obj
 0001:00043c7c       ??_E?$BaseRefVectorOf@VENameMap@xercesc_3_1@@@xercesc_3_1@@UAEPAXI@Z 10044c7c f i * CIL library *:* CIL module *
 0001:00043c7c       ??_G?$BaseRefVectorOf@VENameMap@xercesc_3_1@@@xercesc_3_1@@UAEPAXI@Z 10044c7c f i xerces-c_3_1:TransService.cpp.obj
 0001:00043cac       ??_E?$EEndianNameMapFor@VXMLUTF16Transcoder@xercesc_3_1@@@xercesc_3_1@@UAEPAXI@Z 10044cac f i * CIL library *:* CIL module *
 0001:00043cac       ??_G?$EEndianNameMapFor@VXMLUCS4Transcoder@xercesc_3_1@@@xercesc_3_1@@UAEPAXI@Z 10044cac f i xerces-c_3_1:TransService.cpp.obj
 0001:00043cac       ??_E?$EEndianNameMapFor@VXMLUCS4Transcoder@xercesc_3_1@@@xercesc_3_1@@UAEPAXI@Z 10044cac f i * CIL library *:* CIL module *
 0001:00043cac       ??_G?$EEndianNameMapFor@VXMLUTF16Transcoder@xercesc_3_1@@@xercesc_3_1@@UAEPAXI@Z 10044cac f i xerces-c_3_1:TransService.cpp.obj
 0001:00043d0f       ??0EmptyStackException@xercesc_3_1@@QAE@QBD_KW4Codes@XMLExcepts@1@PAVMemoryManager@1@@Z 10044d0f f i xerces-c_3_1:DOMDocumentImpl.cpp.obj
 0001:00043d56       ??0EmptyStackException@xercesc_3_1@@QAE@ABV01@@Z 10044d56 f i xerces-c_3_1:DOMDocumentImpl.cpp.obj
 0001:00043d75       ??1EmptyStackException@xercesc_3_1@@UAE@XZ 10044d75 f i xerces-c_3_1:DOMDocumentImpl.cpp.obj
 0001:00043d80       ?duplicate@EmptyStackException@xercesc_3_1@@UBEPAVXMLException@2@XZ 10044d80 f i xerces-c_3_1:DOMDocumentImpl.cpp.obj
 0001:00043dcc       ?getType@EmptyStackException@xercesc_3_1@@UBEPB_WXZ 10044dcc f i xerces-c_3_1:DOMDocumentImpl.cpp.obj
 0001:00043dd2       ??_GEmptyStackException@xercesc_3_1@@UAEPAXI@Z 10044dd2 f i xerces-c_3_1:DOMDocumentImpl.cpp.obj
 0001:00043dd2       ??_EEmptyStackException@xercesc_3_1@@UAEPAXI@Z 10044dd2 f i * CIL library *:* CIL module *
 0001:00043e09       ??0NoSuchElementException@xercesc_3_1@@QAE@QBD_KW4Codes@XMLExcepts@1@PAVMemoryManager@1@@Z 10044e09 f i xerces-c_3_1:DOMDocumentImpl.cpp.obj
 0001:00043e50       ??0NoSuchElementException@xercesc_3_1@@QAE@ABV01@@Z 10044e50 f i xerces-c_3_1:DOMDocumentImpl.cpp.obj
 0001:00043e6f       ??1NoSuchElementException@xercesc_3_1@@UAE@XZ 10044e6f f i xerces-c_3_1:DOMDocumentImpl.cpp.obj
 0001:00043e7a       ?duplicate@NoSuchElementException@xercesc_3_1@@UBEPAVXMLException@2@XZ 10044e7a f i xerces-c_3_1:DOMDocumentImpl.cpp.obj
 0001:00043ec6       ?getType@NoSuchElementException@xercesc_3_1@@UBEPB_WXZ 10044ec6 f i xerces-c_3_1:DOMDocumentImpl.cpp.obj
 0001:00043ecc       ??_GNoSuchElementException@xercesc_3_1@@UAEPAXI@Z 10044ecc f i xerces-c_3_1:DOMDocumentImpl.cpp.obj
 0001:00043ecc       ??_ENoSuchElementException@xercesc_3_1@@UAEPAXI@Z 10044ecc f i * CIL library *:* CIL module *
 0001:00043f03       ??0NullPointerException@xercesc_3_1@@QAE@QBD_KW4Codes@XMLExcepts@1@PAVMemoryManager@1@@Z 10044f03 f i xerces-c_3_1:DOMDocumentImpl.cpp.obj
 0001:00043f49       ??0NullPointerException@xercesc_3_1@@QAE@ABV01@@Z 10044f49 f i xerces-c_3_1:DOMDocumentImpl.cpp.obj
 0001:00043f68       ??1NullPointerException@xercesc_3_1@@UAE@XZ 10044f68 f i xerces-c_3_1:DOMDocumentImpl.cpp.obj
 0001:00043f73       ?duplicate@NullPointerException@xercesc_3_1@@UBEPAVXMLException@2@XZ 10044f73 f i xerces-c_3_1:DOMDocumentImpl.cpp.obj
 0001:00043fbf       ?getType@NullPointerException@xercesc_3_1@@UBEPB_WXZ 10044fbf f i xerces-c_3_1:DOMDocumentImpl.cpp.obj
 0001:00043fc5       ??_ENullPointerException@xercesc_3_1@@UAEPAXI@Z 10044fc5 f i * CIL library *:* CIL module *
 0001:00043fc5       ??_GNullPointerException@xercesc_3_1@@UAEPAXI@Z 10044fc5 f i xerces-c_3_1:DOMDocumentImpl.cpp.obj
 0001:00043ffc       ??_EDOMNode@xercesc_3_1@@UAEPAXI@Z 10044ffc f i * CIL library *:* CIL module *
 0001:00043ffc       ??_GDOMNode@xercesc_3_1@@UAEPAXI@Z 10044ffc f i xerces-c_3_1:DOMDocumentImpl.cpp.obj
 0001:0004401f       ??_EDOMDocumentRange@xercesc_3_1@@UAEPAXI@Z 1004501f f i * CIL library *:* CIL module *
 0001:0004401f       ??_GDOMDocumentRange@xercesc_3_1@@UAEPAXI@Z 1004501f f i xerces-c_3_1:DOMDocumentImpl.cpp.obj
 0001:00044042       ??_GDOMDocumentTraversal@xercesc_3_1@@UAEPAXI@Z 10045042 f i xerces-c_3_1:DOMDocumentImpl.cpp.obj
 0001:00044042       ??_EDOMDocumentTraversal@xercesc_3_1@@UAEPAXI@Z 10045042 f i * CIL library *:* CIL module *
 0001:00044065       ??_GDOMXPathEvaluator@xercesc_3_1@@UAEPAXI@Z 10045065 f i xerces-c_3_1:DOMDocumentImpl.cpp.obj
 0001:00044065       ??_EDOMXPathEvaluator@xercesc_3_1@@UAEPAXI@Z 10045065 f i * CIL library *:* CIL module *
 0001:00044088       ??0DOMDocument@xercesc_3_1@@IAE@XZ 10045088 f i xerces-c_3_1:DOMDocumentImpl.cpp.obj
 0001:000440bb       ??1DOMDocument@xercesc_3_1@@UAE@XZ 100450bb f i xerces-c_3_1:DOMDocumentImpl.cpp.obj
 0001:000440d7       ?createDocumentType@DOMDocument@xercesc_3_1@@UAEPAVDOMDocumentType@2@PB_W00@Z 100450d7 f i xerces-c_3_1:DOMDocumentImpl.cpp.obj
 0001:000440e9       ??_GDOMDocument@xercesc_3_1@@UAEPAXI@Z 100450e9 f i xerces-c_3_1:DOMDocumentImpl.cpp.obj
 0001:000440e9       ??_EDOMDocument@xercesc_3_1@@UAEPAXI@Z 100450e9 f i * CIL library *:* CIL module *
 0001:00044121       ??1DOMMemoryManager@xercesc_3_1@@UAE@XZ 10045121 f i xerces-c_3_1:DOMDocumentImpl.cpp.obj
 0001:00044128       ??_EDOMMemoryManager@xercesc_3_1@@UAEPAXI@Z 10045128 f i * CIL library *:* CIL module *
 0001:00044128       ??_GDOMMemoryManager@xercesc_3_1@@UAEPAXI@Z 10045128 f i xerces-c_3_1:DOMDocumentImpl.cpp.obj
 0001:0004414b       ?getImplementation@DOMDocumentImpl@xercesc_3_1@@UBEPAVDOMImplementation@2@XZ 1004514b f i xerces-c_3_1:DOMDocumentImpl.cpp.obj
 0001:0004414b       ?getMemoryManager@DOMDocumentImpl@xercesc_3_1@@QBEPAVMemoryManager@2@XZ 1004514b f i xerces-c_3_1:DOMDocumentImpl.cpp.obj
 0001:00044152       ??0DOMDocumentImpl@xercesc_3_1@@QAE@PAVDOMImplementation@1@QAVMemoryManager@1@@Z 10045152 f   xerces-c_3_1:DOMDocumentImpl.cpp.obj
 0001:0004427c       ??_GDOMDocumentImpl@xercesc_3_1@@UAEPAXI@Z 1004527c f i xerces-c_3_1:DOMDocumentImpl.cpp.obj
 0001:0004427c       ??_EDOMDocumentImpl@xercesc_3_1@@UAEPAXI@Z 1004527c f i * CIL library *:* CIL module *
 0001:000442b0       ??1DOMParentNode@xercesc_3_1@@QAE@XZ 100452b0 f i xerces-c_3_1:DOMDocumentImpl.cpp.obj
 0001:000442b8       ??0DOMDocumentImpl@xercesc_3_1@@QAE@PB_W0PAVDOMDocumentType@1@PAVDOMImplementation@1@QAVMemoryManager@1@@Z 100452b8 f   xerces-c_3_1:DOMDocumentImpl.cpp.obj
 0001:0004444b       ?setDocumentType@DOMDocumentImpl@xercesc_3_1@@QAEXPAVDOMDocumentType@2@@Z 1004544b f   xerces-c_3_1:DOMDocumentImpl.cpp.obj
 0001:000444bd       ??1DOMDocumentImpl@xercesc_3_1@@UAE@XZ 100454bd f   xerces-c_3_1:DOMDocumentImpl.cpp.obj
 0001:0004463a       ??_G?$RefHash2KeysTableOf@V?$KeyRefPair@XVDOMUserDataHandler@xercesc_3_1@@@xercesc_3_1@@UPtrHasher@2@@xercesc_3_1@@QAEPAXI@Z 1004563a f i xerces-c_3_1:DOMDocumentImpl.cpp.obj
 0001:000446d4       ?cloneNode@DOMDocumentImpl@xercesc_3_1@@UBEPAVDOMNode@2@_N@Z 100456d4 f   xerces-c_3_1:DOMDocumentImpl.cpp.obj
 0001:000447c7       ?getNodeName@DOMDocumentImpl@xercesc_3_1@@UBEPB_WXZ 100457c7 f   xerces-c_3_1:DOMDocumentImpl.cpp.obj
 0001:000447cd       ?getNodeType@DOMDocumentImpl@xercesc_3_1@@UBE?AW4NodeType@DOMNode@2@XZ 100457cd f   xerces-c_3_1:DOMDocumentImpl.cpp.obj
 0001:000447d1       ?createAttribute@DOMDocumentImpl@xercesc_3_1@@UAEPAVDOMAttr@2@PB_W@Z 100457d1 f   xerces-c_3_1:DOMDocumentImpl.cpp.obj
 0001:00044867       ?createCDATASection@DOMDocumentImpl@xercesc_3_1@@UAEPAVDOMCDATASection@2@PB_W@Z 10045867 f   xerces-c_3_1:DOMDocumentImpl.cpp.obj
 0001:000448ea       ?createComment@DOMDocumentImpl@xercesc_3_1@@UAEPAVDOMComment@2@PB_W@Z 100458ea f   xerces-c_3_1:DOMDocumentImpl.cpp.obj
 0001:0004496d       ?createDocumentFragment@DOMDocumentImpl@xercesc_3_1@@UAEPAVDOMDocumentFragment@2@XZ 1004596d f   xerces-c_3_1:DOMDocumentImpl.cpp.obj
 0001:000449c3       ?createDocumentType@DOMDocumentImpl@xercesc_3_1@@UAEPAVDOMDocumentType@2@PB_W@Z 100459c3 f   xerces-c_3_1:DOMDocumentImpl.cpp.obj
 0001:00044a57       ?createDocumentType@DOMDocumentImpl@xercesc_3_1@@UAEPAVDOMDocumentType@2@PB_W00@Z 10045a57 f   xerces-c_3_1:DOMDocumentImpl.cpp.obj
 0001:00044af1       ?createElement@DOMDocumentImpl@xercesc_3_1@@UAEPAVDOMElement@2@PB_W@Z 10045af1 f   xerces-c_3_1:DOMDocumentImpl.cpp.obj
 0001:00044b84       ?createElementNoCheck@DOMDocumentImpl@xercesc_3_1@@UAEPAVDOMElement@2@PB_W@Z 10045b84 f   xerces-c_3_1:DOMDocumentImpl.cpp.obj
 0001:00044bc6       ?createEntity@DOMDocumentImpl@xercesc_3_1@@UAEPAVDOMEntity@2@PB_W@Z 10045bc6 f   xerces-c_3_1:DOMDocumentImpl.cpp.obj
 0001:00044c59       ?createEntityReference@DOMDocumentImpl@xercesc_3_1@@UAEPAVDOMEntityReference@2@PB_W@Z 10045c59 f   xerces-c_3_1:DOMDocumentImpl.cpp.obj
 0001:00044cec       ?createEntityReferenceByParser@DOMDocumentImpl@xercesc_3_1@@QAEPAVDOMEntityReference@2@PB_W@Z 10045cec f   xerces-c_3_1:DOMDocumentImpl.cpp.obj
 0001:00044d78       ?createNotation@DOMDocumentImpl@xercesc_3_1@@UAEPAVDOMNotation@2@PB_W@Z 10045d78 f   xerces-c_3_1:DOMDocumentImpl.cpp.obj
 0001:00044e0b       ?createProcessingInstruction@DOMDocumentImpl@xercesc_3_1@@UAEPAVDOMProcessingInstruction@2@PB_W0@Z 10045e0b f   xerces-c_3_1:DOMDocumentImpl.cpp.obj
 0001:00044ea1       ?createTextNode@DOMDocumentImpl@xercesc_3_1@@UAEPAVDOMText@2@PB_W@Z 10045ea1 f   xerces-c_3_1:DOMDocumentImpl.cpp.obj
 0001:00044f24       ?createNodeIterator@DOMDocumentImpl@xercesc_3_1@@UAEPAVDOMNodeIterator@2@PAVDOMNode@2@KPAVDOMNodeFilter@2@_N@Z 10045f24 f   xerces-c_3_1:DOMDocumentImpl.cpp.obj
 0001:00045030       ?getNodeIterators@DOMDocumentImpl@xercesc_3_1@@UBEPAV?$RefVectorOf@VDOMNodeIteratorImpl@xercesc_3_1@@@2@XZ 10046030 f   xerces-c_3_1:DOMDocumentImpl.cpp.obj
 0001:00045037       ?removeNodeIterator@DOMDocumentImpl@xercesc_3_1@@UAEXPAVDOMNodeIteratorImpl@2@@Z 10046037 f   xerces-c_3_1:DOMDocumentImpl.cpp.obj
 0001:00045095       ?createExpression@DOMDocumentImpl@xercesc_3_1@@UAEPAVDOMXPathExpression@2@PB_WPBVDOMXPathNSResolver@2@@Z 10046095 f   xerces-c_3_1:DOMDocumentImpl.cpp.obj
 0001:000450e2       ?createNSResolver@DOMDocumentImpl@xercesc_3_1@@UAEPAVDOMXPathNSResolver@2@PBVDOMNode@2@@Z 100460e2 f   xerces-c_3_1:DOMDocumentImpl.cpp.obj
 0001:00045169       ?evaluate@DOMDocumentImpl@xercesc_3_1@@UAEPAVDOMXPathResult@2@PB_WPBVDOMNode@2@PBVDOMXPathNSResolver@2@W4ResultType@32@PAV32@@Z 10046169 f   xerces-c_3_1:DOMDocumentImpl.cpp.obj
 0001:000451c4       ?createTreeWalker@DOMDocumentImpl@xercesc_3_1@@UAEPAVDOMTreeWalker@2@PAVDOMNode@2@KPAVDOMNodeFilter@2@_N@Z 100461c4 f   xerces-c_3_1:DOMDocumentImpl.cpp.obj
 0001:00045232       ?getDoctype@DOMDocumentImpl@xercesc_3_1@@UBEPAVDOMDocumentType@2@XZ 10046232 f   xerces-c_3_1:DOMDocumentImpl.cpp.obj
 0001:00045239       ?getDocumentElement@DOMDocumentImpl@xercesc_3_1@@UBEPAVDOMElement@2@XZ 10046239 f   xerces-c_3_1:DOMDocumentImpl.cpp.obj
 0001:00045240       ?getElementsByTagName@DOMDocumentImpl@xercesc_3_1@@UBEPAVDOMNodeList@2@PB_W@Z 10046240 f   xerces-c_3_1:DOMDocumentImpl.cpp.obj
 0001:0004525f       ?insertBefore@DOMDocumentImpl@xercesc_3_1@@UAEPAVDOMNode@2@PAV32@0@Z 1004625f f   xerces-c_3_1:DOMDocumentImpl.cpp.obj
 0001:00045316       ?replaceChild@DOMDocumentImpl@xercesc_3_1@@UAEPAVDOMNode@2@PAV32@0@Z 10046316 f   xerces-c_3_1:DOMDocumentImpl.cpp.obj
 0001:000453c3       ?removeChild@DOMDocumentImpl@xercesc_3_1@@UAEPAVDOMNode@2@PAV32@@Z 100463c3 f   xerces-c_3_1:DOMDocumentImpl.cpp.obj
 0001:00045400       ?importNode@DOMDocumentImpl@xercesc_3_1@@UAEPAVDOMNode@2@PBV32@_N@Z 10046400 f   xerces-c_3_1:DOMDocumentImpl.cpp.obj
 0001:00045417       ?createElementNS@DOMDocumentImpl@xercesc_3_1@@UAEPAVDOMElement@2@PB_W0@Z 10046417 f   xerces-c_3_1:DOMDocumentImpl.cpp.obj
 0001:000454ad       ?createElementNS@DOMDocumentImpl@xercesc_3_1@@UAEPAVDOMElement@2@PB_W0_K1@Z 100464ad f   xerces-c_3_1:DOMDocumentImpl.cpp.obj
 0001:00045566       ?createAttributeNS@DOMDocumentImpl@xercesc_3_1@@UAEPAVDOMAttr@2@PB_W0@Z 10046566 f   xerces-c_3_1:DOMDocumentImpl.cpp.obj
 0001:00045618       ?getElementsByTagNameNS@DOMDocumentImpl@xercesc_3_1@@UBEPAVDOMNodeList@2@PB_W0@Z 10046618 f   xerces-c_3_1:DOMDocumentImpl.cpp.obj
 0001:0004563a       ?getElementById@DOMDocumentImpl@xercesc_3_1@@UBEPAVDOMElement@2@PB_W@Z 1004663a f   xerces-c_3_1:DOMDocumentImpl.cpp.obj
 0001:00045662       ?getXmlEncoding@DOMDocumentImpl@xercesc_3_1@@UBEPB_WXZ 10046662 f   xerces-c_3_1:DOMDocumentImpl.cpp.obj
 0001:00045662       ?getNamespaceURI@DOMElementNSImpl@xercesc_3_1@@UBEPB_WXZ 10046662 f   xerces-c_3_1:DOMElementNSImpl.cpp.obj
 0001:00045662       ?getInputEncoding@DOMEntityImpl@xercesc_3_1@@UBEPB_WXZ 10046662 f   xerces-c_3_1:DOMEntityImpl.cpp.obj
 0001:00045662       ?getGrammarDescription@SchemaGrammar@xercesc_3_1@@UBEPAVXMLGrammarDescription@2@XZ 10046662 f   xerces-c_3_1:SchemaGrammar.cpp.obj
 0001:00045662       ?getBaseURI@DOMDocumentImpl@xercesc_3_1@@UBEPB_WXZ 10046662 f   xerces-c_3_1:DOMDocumentImpl.cpp.obj
 0001:00045662       ?getElements@DOMDocumentTypeImpl@xercesc_3_1@@UBEPAVDOMNamedNodeMap@2@XZ 10046662 f   xerces-c_3_1:DOMDocumentTypeImpl.cpp.obj
 0001:00045666       ?createRange@DOMDocumentImpl@xercesc_3_1@@UAEPAVDOMRange@2@XZ 10046666 f   xerces-c_3_1:DOMDocumentImpl.cpp.obj
 0001:00045753       ?getRanges@DOMDocumentImpl@xercesc_3_1@@UBEPAV?$RefVectorOf@VDOMRangeImpl@xercesc_3_1@@@2@XZ 10046753 f   xerces-c_3_1:DOMDocumentImpl.cpp.obj
 0001:0004575a       ?removeRange@DOMDocumentImpl@xercesc_3_1@@UAEXPAVDOMRangeImpl@2@@Z 1004675a f   xerces-c_3_1:DOMDocumentImpl.cpp.obj
 0001:000457b8       ?isKidOK@DOMDocumentImpl@xercesc_3_1@@SA_NPAVDOMNode@2@0@Z 100467b8 f   xerces-c_3_1:DOMDocumentImpl.cpp.obj
 0001:000458dc       ?changed@DOMDocumentImpl@xercesc_3_1@@UAEXXZ 100468dc f   xerces-c_3_1:DOMDocumentImpl.cpp.obj
 0001:000458e3       ?changes@DOMDocumentImpl@xercesc_3_1@@UBEHXZ 100468e3 f   xerces-c_3_1:DOMDocumentImpl.cpp.obj
 0001:000458ea       ?appendChild@DOMDocumentImpl@xercesc_3_1@@UAEPAVDOMNode@2@PAV32@@Z 100468ea f   xerces-c_3_1:DOMDocumentImpl.cpp.obj
 0001:000458fb       ?getChildNodes@DOMAttrImpl@xercesc_3_1@@UBEPAVDOMNodeList@2@XZ 100468fb f   xerces-c_3_1:DOMAttrImpl.cpp.obj
 0001:000458fb       ?getChildNodes@DOMDocumentFragmentImpl@xercesc_3_1@@UBEPAVDOMNodeList@2@XZ 100468fb f   xerces-c_3_1:DOMDocumentFragmentImpl.cpp.obj
 0001:000458fb       ?getChildNodes@DOMEntityReferenceImpl@xercesc_3_1@@UBEPAVDOMNodeList@2@XZ 100468fb f   xerces-c_3_1:DOMEntityReferenceImpl.cpp.obj
 0001:000458fb       ?getChildNodes@DOMDocumentTypeImpl@xercesc_3_1@@UBEPAVDOMNodeList@2@XZ 100468fb f   xerces-c_3_1:DOMDocumentTypeImpl.cpp.obj
 0001:000458fb       ?getChildNodes@DOMDocumentImpl@xercesc_3_1@@UBEPAVDOMNodeList@2@XZ 100468fb f   xerces-c_3_1:DOMDocumentImpl.cpp.obj
 0001:000458fb       ?getChildNodes@DOMElementImpl@xercesc_3_1@@UBEPAVDOMNodeList@2@XZ 100468fb f   xerces-c_3_1:DOMElementImpl.cpp.obj
 0001:000458ff       ?getLastChild@DOMDocumentFragmentImpl@xercesc_3_1@@UBEPAVDOMNode@2@XZ 100468ff f   xerces-c_3_1:DOMDocumentFragmentImpl.cpp.obj
 0001:000458ff       ?getLastChild@DOMAttrImpl@xercesc_3_1@@UBEPAVDOMNode@2@XZ 100468ff f   xerces-c_3_1:DOMAttrImpl.cpp.obj
 0001:000458ff       ?getLastChild@DOMDocumentImpl@xercesc_3_1@@UBEPAVDOMNode@2@XZ 100468ff f   xerces-c_3_1:DOMDocumentImpl.cpp.obj
 0001:000458ff       ?getLastChild@DOMElementImpl@xercesc_3_1@@UBEPAVDOMNode@2@XZ 100468ff f   xerces-c_3_1:DOMElementImpl.cpp.obj
 0001:000458ff       ?getLastChild@DOMDocumentTypeImpl@xercesc_3_1@@UBEPAVDOMNode@2@XZ 100468ff f   xerces-c_3_1:DOMDocumentTypeImpl.cpp.obj
 0001:000458ff       ?getLastChild@DOMEntityReferenceImpl@xercesc_3_1@@UBEPAVDOMNode@2@XZ 100468ff f   xerces-c_3_1:DOMEntityReferenceImpl.cpp.obj
 0001:00045922       ?hasChildNodes@DOMElementImpl@xercesc_3_1@@UBE_NXZ 10046922 f   xerces-c_3_1:DOMElementImpl.cpp.obj
 0001:00045922       ?hasChildNodes@DOMDocumentTypeImpl@xercesc_3_1@@UBE_NXZ 10046922 f   xerces-c_3_1:DOMDocumentTypeImpl.cpp.obj
 0001:00045922       ?hasChildNodes@DOMEntityReferenceImpl@xercesc_3_1@@UBE_NXZ 10046922 f   xerces-c_3_1:DOMEntityReferenceImpl.cpp.obj
 0001:00045922       ?hasChildNodes@DOMDocumentImpl@xercesc_3_1@@UBE_NXZ 10046922 f   xerces-c_3_1:DOMDocumentImpl.cpp.obj
 0001:00045922       ?hasChildNodes@DOMDocumentFragmentImpl@xercesc_3_1@@UBE_NXZ 10046922 f   xerces-c_3_1:DOMDocumentFragmentImpl.cpp.obj
 0001:00045922       ?hasChildNodes@DOMAttrImpl@xercesc_3_1@@UBE_NXZ 10046922 f   xerces-c_3_1:DOMAttrImpl.cpp.obj
 0001:0004592a       ?normalize@DOMDocumentTypeImpl@xercesc_3_1@@UAEXXZ 1004692a f   xerces-c_3_1:DOMDocumentTypeImpl.cpp.obj
 0001:0004592a       ?normalize@DOMDocumentFragmentImpl@xercesc_3_1@@UAEXXZ 1004692a f   xerces-c_3_1:DOMDocumentFragmentImpl.cpp.obj
 0001:0004592a       ?normalize@DOMEntityReferenceImpl@xercesc_3_1@@UAEXXZ 1004692a f   xerces-c_3_1:DOMEntityReferenceImpl.cpp.obj
 0001:0004592a       ?normalize@DOMDocumentImpl@xercesc_3_1@@UAEXXZ 1004692a f   xerces-c_3_1:DOMDocumentImpl.cpp.obj
 0001:0004592a       ?normalize@DOMAttrImpl@xercesc_3_1@@UAEXXZ 1004692a f   xerces-c_3_1:DOMAttrImpl.cpp.obj
 0001:0004592a       ?normalize@DOMElementImpl@xercesc_3_1@@UAEXXZ 1004692a f   xerces-c_3_1:DOMElementImpl.cpp.obj
 0001:00045932       ?setPrefix@DOMCommentImpl@xercesc_3_1@@UAEXPB_W@Z 10046932 f   xerces-c_3_1:DOMCommentImpl.cpp.obj
 0001:00045932       ?setPrefix@DOMProcessingInstructionImpl@xercesc_3_1@@UAEXPB_W@Z 10046932 f   xerces-c_3_1:DOMProcessingInstructionImpl.cpp.obj
 0001:00045932       ?setPrefix@DOMEntityReferenceImpl@xercesc_3_1@@UAEXPB_W@Z 10046932 f   xerces-c_3_1:DOMEntityReferenceImpl.cpp.obj
 0001:00045932       ?setPrefix@DOMDocumentTypeImpl@xercesc_3_1@@UAEXPB_W@Z 10046932 f   xerces-c_3_1:DOMDocumentTypeImpl.cpp.obj
 0001:00045932       ?setPrefix@DOMCDATASectionImpl@xercesc_3_1@@UAEXPB_W@Z 10046932 f   xerces-c_3_1:DOMCDATASectionImpl.cpp.obj
 0001:00045932       ?setPrefix@DOMDocumentFragmentImpl@xercesc_3_1@@UAEXPB_W@Z 10046932 f   xerces-c_3_1:DOMDocumentFragmentImpl.cpp.obj
 0001:00045932       ?setPrefix@DOMEntityImpl@xercesc_3_1@@UAEXPB_W@Z 10046932 f   xerces-c_3_1:DOMEntityImpl.cpp.obj
 0001:00045932       ?setPrefix@DOMDocumentImpl@xercesc_3_1@@UAEXPB_W@Z 10046932 f   xerces-c_3_1:DOMDocumentImpl.cpp.obj
 0001:00045932       ?setPrefix@DOMNotationImpl@xercesc_3_1@@UAEXPB_W@Z 10046932 f   xerces-c_3_1:DOMNotationImpl.cpp.obj
 0001:00045932       ?setPrefix@DOMTextImpl@xercesc_3_1@@UAEXPB_W@Z 10046932 f   xerces-c_3_1:DOMTextImpl.cpp.obj
 0001:00045932       ?setPrefix@DOMElementImpl@xercesc_3_1@@UAEXPB_W@Z 10046932 f   xerces-c_3_1:DOMElementImpl.cpp.obj
 0001:00045932       ?setPrefix@DOMAttrImpl@xercesc_3_1@@UAEXPB_W@Z 10046932 f   xerces-c_3_1:DOMAttrImpl.cpp.obj
 0001:0004593c       ?hasAttributes@DOMNotationImpl@xercesc_3_1@@UBE_NXZ 1004693c f   xerces-c_3_1:DOMNotationImpl.cpp.obj
 0001:0004593c       ?handlesSchema@DTDValidator@xercesc_3_1@@UBE_NXZ 1004693c f   xerces-c_3_1:DTDValidator.cpp.obj
 0001:0004593c       ?isAtomic@AnySimpleTypeDatatypeValidator@xercesc_3_1@@UBE_NXZ 1004693c f   xerces-c_3_1:AnySimpleTypeDatatypeValidator.cpp.obj
 0001:0004593c       ?hasChildNodes@DOMNotationImpl@xercesc_3_1@@UBE_NXZ 1004693c f   xerces-c_3_1:DOMNotationImpl.cpp.obj
 0001:0004593c       ?hasAttributes@DOMDocumentFragmentImpl@xercesc_3_1@@UBE_NXZ 1004693c f   xerces-c_3_1:DOMDocumentFragmentImpl.cpp.obj
 0001:0004593c       ?hasChildNodes@DOMCommentImpl@xercesc_3_1@@UBE_NXZ 1004693c f   xerces-c_3_1:DOMCommentImpl.cpp.obj
 0001:0004593c       ?hasAttributes@DOMProcessingInstructionImpl@xercesc_3_1@@UBE_NXZ 1004693c f   xerces-c_3_1:DOMProcessingInstructionImpl.cpp.obj
 0001:0004593c       ?hasAttributes@DOMTextImpl@xercesc_3_1@@UBE_NXZ 1004693c f   xerces-c_3_1:DOMTextImpl.cpp.obj
 0001:0004593c       ?handlesDTD@SchemaValidator@xercesc_3_1@@UBE_NXZ 1004693c f   xerces-c_3_1:SchemaValidator.cpp.obj
 0001:0004593c       ?isAtomic@ListDatatypeValidator@xercesc_3_1@@UBE_NXZ 1004693c f   xerces-c_3_1:ListDatatypeValidator.cpp.obj
 0001:0004593c       ?hasAttributes@DOMCDATASectionImpl@xercesc_3_1@@UBE_NXZ 1004693c f   xerces-c_3_1:DOMCDATASectionImpl.cpp.obj
 0001:0004593c       ?hasAttributes@DOMEntityReferenceImpl@xercesc_3_1@@UBE_NXZ 1004693c f   xerces-c_3_1:DOMEntityReferenceImpl.cpp.obj
 0001:0004593c       ?hasAttributes@DOMCommentImpl@xercesc_3_1@@UBE_NXZ 1004693c f   xerces-c_3_1:DOMCommentImpl.cpp.obj
 0001:0004593c       ?hasAttributes@DOMDocumentTypeImpl@xercesc_3_1@@UBE_NXZ 1004693c f   xerces-c_3_1:DOMDocumentTypeImpl.cpp.obj
 0001:0004593c       ?hasChildNodes@DOMProcessingInstructionImpl@xercesc_3_1@@UBE_NXZ 1004693c f   xerces-c_3_1:DOMProcessingInstructionImpl.cpp.obj
 0001:0004593c       ?isRepeatableLeaf@CMLeaf@xercesc_3_1@@UBE_NXZ 1004693c f   xerces-c_3_1:DFAContentModel.cpp.obj
 0001:0004593c       ?requiresNamespaces@DTDValidator@xercesc_3_1@@UBE_NXZ 1004693c f   xerces-c_3_1:DTDValidator.cpp.obj
 0001:0004593c       ?hasChildNodes@DOMCDATASectionImpl@xercesc_3_1@@UBE_NXZ 1004693c f   xerces-c_3_1:DOMCDATASectionImpl.cpp.obj
 0001:0004593c       ?hasAttributes@DOMAttrImpl@xercesc_3_1@@UBE_NXZ 1004693c f   xerces-c_3_1:DOMAttrImpl.cpp.obj
 0001:0004593c       ?hasAttributes@DOMEntityImpl@xercesc_3_1@@UBE_NXZ 1004693c f   xerces-c_3_1:DOMEntityImpl.cpp.obj
 0001:0004593c       ?getAsync@DOMLSParserImpl@xercesc_3_1@@UBE_NXZ 1004693c f   xerces-c_3_1:DOMLSParserImpl.cpp.obj
 0001:0004593c       ?hasChildNodes@DOMTextImpl@xercesc_3_1@@UBE_NXZ 1004693c f   xerces-c_3_1:DOMTextImpl.cpp.obj
 0001:0004593c       ?hasAttributes@DOMDocumentImpl@xercesc_3_1@@UBE_NXZ 1004693c f   xerces-c_3_1:DOMDocumentImpl.cpp.obj
 0001:0004593f       ?isSameNode@DOMDocumentTypeImpl@xercesc_3_1@@UBE_NPBVDOMNode@2@@Z 1004693f f   xerces-c_3_1:DOMDocumentTypeImpl.cpp.obj
 0001:0004593f       ?isSameNode@DOMCommentImpl@xercesc_3_1@@UBE_NPBVDOMNode@2@@Z 1004693f f   xerces-c_3_1:DOMCommentImpl.cpp.obj
 0001:0004593f       ?isSameNode@DOMAttrImpl@xercesc_3_1@@UBE_NPBVDOMNode@2@@Z 1004693f f   xerces-c_3_1:DOMAttrImpl.cpp.obj
 0001:0004593f       ?isSameNode@DOMDocumentImpl@xercesc_3_1@@UBE_NPBVDOMNode@2@@Z 1004693f f   xerces-c_3_1:DOMDocumentImpl.cpp.obj
 0001:0004593f       ?isSameNode@DOMEntityImpl@xercesc_3_1@@UBE_NPBVDOMNode@2@@Z 1004693f f   xerces-c_3_1:DOMEntityImpl.cpp.obj
 0001:0004593f       ?isSameNode@DOMTextImpl@xercesc_3_1@@UBE_NPBVDOMNode@2@@Z 1004693f f   xerces-c_3_1:DOMTextImpl.cpp.obj
 0001:0004593f       ?isSameNode@DOMNotationImpl@xercesc_3_1@@UBE_NPBVDOMNode@2@@Z 1004693f f   xerces-c_3_1:DOMNotationImpl.cpp.obj
 0001:0004593f       ?isSameNode@DOMDocumentFragmentImpl@xercesc_3_1@@UBE_NPBVDOMNode@2@@Z 1004693f f   xerces-c_3_1:DOMDocumentFragmentImpl.cpp.obj
 0001:0004593f       ?isSameNode@DOMCDATASectionImpl@xercesc_3_1@@UBE_NPBVDOMNode@2@@Z 1004693f f   xerces-c_3_1:DOMCDATASectionImpl.cpp.obj
 0001:0004593f       ?isSameNode@DOMElementImpl@xercesc_3_1@@UBE_NPBVDOMNode@2@@Z 1004693f f   xerces-c_3_1:DOMElementImpl.cpp.obj
 0001:0004593f       ?isSameNode@DOMProcessingInstructionImpl@xercesc_3_1@@UBE_NPBVDOMNode@2@@Z 1004693f f   xerces-c_3_1:DOMProcessingInstructionImpl.cpp.obj
 0001:0004593f       ?isSameNode@DOMEntityReferenceImpl@xercesc_3_1@@UBE_NPBVDOMNode@2@@Z 1004693f f   xerces-c_3_1:DOMEntityReferenceImpl.cpp.obj
 0001:0004594c       ?isEqualNode@DOMEntityReferenceImpl@xercesc_3_1@@UBE_NPBVDOMNode@2@@Z 1004694c f   xerces-c_3_1:DOMEntityReferenceImpl.cpp.obj
 0001:0004594c       ?isEqualNode@DOMAttrImpl@xercesc_3_1@@UBE_NPBVDOMNode@2@@Z 1004694c f   xerces-c_3_1:DOMAttrImpl.cpp.obj
 0001:0004594c       ?isEqualNode@DOMDocumentImpl@xercesc_3_1@@UBE_NPBVDOMNode@2@@Z 1004694c f   xerces-c_3_1:DOMDocumentImpl.cpp.obj
 0001:0004594c       ?isEqualNode@DOMDocumentFragmentImpl@xercesc_3_1@@UBE_NPBVDOMNode@2@@Z 1004694c f   xerces-c_3_1:DOMDocumentFragmentImpl.cpp.obj
 0001:00045958       ?setUserData@DOMCDATASectionImpl@xercesc_3_1@@UAEPAXPB_WPAXPAVDOMUserDataHandler@2@@Z 10046958 f   xerces-c_3_1:DOMCDATASectionImpl.cpp.obj
 0001:00045958       ?setUserData@DOMEntityImpl@xercesc_3_1@@UAEPAXPB_WPAXPAVDOMUserDataHandler@2@@Z 10046958 f   xerces-c_3_1:DOMEntityImpl.cpp.obj
 0001:00045958       ?setUserData@DOMEntityReferenceImpl@xercesc_3_1@@UAEPAXPB_WPAXPAVDOMUserDataHandler@2@@Z 10046958 f   xerces-c_3_1:DOMEntityReferenceImpl.cpp.obj
 0001:00045958       ?setUserData@DOMCommentImpl@xercesc_3_1@@UAEPAXPB_WPAXPAVDOMUserDataHandler@2@@Z 10046958 f   xerces-c_3_1:DOMCommentImpl.cpp.obj
 0001:00045958       ?setUserData@DOMAttrImpl@xercesc_3_1@@UAEPAXPB_WPAXPAVDOMUserDataHandler@2@@Z 10046958 f   xerces-c_3_1:DOMAttrImpl.cpp.obj
 0001:00045958       ?setUserData@DOMDocumentTypeImpl@xercesc_3_1@@UAEPAXPB_WPAXPAVDOMUserDataHandler@2@@Z 10046958 f   xerces-c_3_1:DOMDocumentTypeImpl.cpp.obj
 0001:00045958       ?setUserData@DOMDocumentImpl@xercesc_3_1@@UAEPAXPB_WPAXPAVDOMUserDataHandler@2@@Z 10046958 f   xerces-c_3_1:DOMDocumentImpl.cpp.obj
 0001:00045958       ?setUserData@DOMNotationImpl@xercesc_3_1@@UAEPAXPB_WPAXPAVDOMUserDataHandler@2@@Z 10046958 f   xerces-c_3_1:DOMNotationImpl.cpp.obj
 0001:00045958       ?setUserData@DOMProcessingInstructionImpl@xercesc_3_1@@UAEPAXPB_WPAXPAVDOMUserDataHandler@2@@Z 10046958 f   xerces-c_3_1:DOMProcessingInstructionImpl.cpp.obj
 0001:00045958       ?setUserData@DOMTextImpl@xercesc_3_1@@UAEPAXPB_WPAXPAVDOMUserDataHandler@2@@Z 10046958 f   xerces-c_3_1:DOMTextImpl.cpp.obj
 0001:00045958       ?setUserData@DOMDocumentFragmentImpl@xercesc_3_1@@UAEPAXPB_WPAXPAVDOMUserDataHandler@2@@Z 10046958 f   xerces-c_3_1:DOMDocumentFragmentImpl.cpp.obj
 0001:00045958       ?setUserData@DOMElementImpl@xercesc_3_1@@UAEPAXPB_WPAXPAVDOMUserDataHandler@2@@Z 10046958 f   xerces-c_3_1:DOMElementImpl.cpp.obj
 0001:00045964       ?getUserData@DOMDocumentFragmentImpl@xercesc_3_1@@UBEPAXPB_W@Z 10046964 f   xerces-c_3_1:DOMDocumentFragmentImpl.cpp.obj
 0001:00045964       ?getUserData@DOMElementImpl@xercesc_3_1@@UBEPAXPB_W@Z 10046964 f   xerces-c_3_1:DOMElementImpl.cpp.obj
 0001:00045964       ?getUserData@DOMNotationImpl@xercesc_3_1@@UBEPAXPB_W@Z 10046964 f   xerces-c_3_1:DOMNotationImpl.cpp.obj
 0001:00045964       ?getUserData@DOMEntityReferenceImpl@xercesc_3_1@@UBEPAXPB_W@Z 10046964 f   xerces-c_3_1:DOMEntityReferenceImpl.cpp.obj
 0001:00045964       ?getUserData@DOMProcessingInstructionImpl@xercesc_3_1@@UBEPAXPB_W@Z 10046964 f   xerces-c_3_1:DOMProcessingInstructionImpl.cpp.obj
 0001:00045964       ?getUserData@DOMEntityImpl@xercesc_3_1@@UBEPAXPB_W@Z 10046964 f   xerces-c_3_1:DOMEntityImpl.cpp.obj
 0001:00045964       ?getUserData@DOMCDATASectionImpl@xercesc_3_1@@UBEPAXPB_W@Z 10046964 f   xerces-c_3_1:DOMCDATASectionImpl.cpp.obj
 0001:00045964       ?getUserData@DOMDocumentTypeImpl@xercesc_3_1@@UBEPAXPB_W@Z 10046964 f   xerces-c_3_1:DOMDocumentTypeImpl.cpp.obj
 0001:00045964       ?getUserData@DOMTextImpl@xercesc_3_1@@UBEPAXPB_W@Z 10046964 f   xerces-c_3_1:DOMTextImpl.cpp.obj
 0001:00045964       ?getUserData@DOMDocumentImpl@xercesc_3_1@@UBEPAXPB_W@Z 10046964 f   xerces-c_3_1:DOMDocumentImpl.cpp.obj
 0001:00045964       ?getUserData@DOMAttrImpl@xercesc_3_1@@UBEPAXPB_W@Z 10046964 f   xerces-c_3_1:DOMAttrImpl.cpp.obj
 0001:00045964       ?getUserData@DOMCommentImpl@xercesc_3_1@@UBEPAXPB_W@Z 10046964 f   xerces-c_3_1:DOMCommentImpl.cpp.obj
 0001:00045970       ?compareDocumentPosition@DOMDocumentTypeImpl@xercesc_3_1@@UBEFPBVDOMNode@2@@Z 10046970 f   xerces-c_3_1:DOMDocumentTypeImpl.cpp.obj
 0001:00045970       ?compareDocumentPosition@DOMTextImpl@xercesc_3_1@@UBEFPBVDOMNode@2@@Z 10046970 f   xerces-c_3_1:DOMTextImpl.cpp.obj
 0001:00045970       ?compareDocumentPosition@DOMAttrImpl@xercesc_3_1@@UBEFPBVDOMNode@2@@Z 10046970 f   xerces-c_3_1:DOMAttrImpl.cpp.obj
 0001:00045970       ?compareDocumentPosition@DOMElementImpl@xercesc_3_1@@UBEFPBVDOMNode@2@@Z 10046970 f   xerces-c_3_1:DOMElementImpl.cpp.obj
 0001:00045970       ?compareDocumentPosition@DOMEntityReferenceImpl@xercesc_3_1@@UBEFPBVDOMNode@2@@Z 10046970 f   xerces-c_3_1:DOMEntityReferenceImpl.cpp.obj
 0001:00045970       ?compareDocumentPosition@DOMCDATASectionImpl@xercesc_3_1@@UBEFPBVDOMNode@2@@Z 10046970 f   xerces-c_3_1:DOMCDATASectionImpl.cpp.obj
 0001:00045970       ?compareDocumentPosition@DOMNotationImpl@xercesc_3_1@@UBEFPBVDOMNode@2@@Z 10046970 f   xerces-c_3_1:DOMNotationImpl.cpp.obj
 0001:00045970       ?compareDocumentPosition@DOMCommentImpl@xercesc_3_1@@UBEFPBVDOMNode@2@@Z 10046970 f   xerces-c_3_1:DOMCommentImpl.cpp.obj
 0001:00045970       ?compareDocumentPosition@DOMDocumentFragmentImpl@xercesc_3_1@@UBEFPBVDOMNode@2@@Z 10046970 f   xerces-c_3_1:DOMDocumentFragmentImpl.cpp.obj
 0001:00045970       ?compareDocumentPosition@DOMProcessingInstructionImpl@xercesc_3_1@@UBEFPBVDOMNode@2@@Z 10046970 f   xerces-c_3_1:DOMProcessingInstructionImpl.cpp.obj
 0001:00045970       ?compareDocumentPosition@DOMDocumentImpl@xercesc_3_1@@UBEFPBVDOMNode@2@@Z 10046970 f   xerces-c_3_1:DOMDocumentImpl.cpp.obj
 0001:00045970       ?compareDocumentPosition@DOMEntityImpl@xercesc_3_1@@UBEFPBVDOMNode@2@@Z 10046970 f   xerces-c_3_1:DOMEntityImpl.cpp.obj
 0001:0004597c       ?getTextContent@DOMProcessingInstructionImpl@xercesc_3_1@@UBEPB_WXZ 1004697c f   xerces-c_3_1:DOMProcessingInstructionImpl.cpp.obj
 0001:0004597c       ?getTextContent@DOMDocumentImpl@xercesc_3_1@@UBEPB_WXZ 1004697c f   xerces-c_3_1:DOMDocumentImpl.cpp.obj
 0001:0004597c       ?getTextContent@DOMNotationImpl@xercesc_3_1@@UBEPB_WXZ 1004697c f   xerces-c_3_1:DOMNotationImpl.cpp.obj
 0001:0004597c       ?getTextContent@DOMCDATASectionImpl@xercesc_3_1@@UBEPB_WXZ 1004697c f   xerces-c_3_1:DOMCDATASectionImpl.cpp.obj
 0001:0004597c       ?getTextContent@DOMElementImpl@xercesc_3_1@@UBEPB_WXZ 1004697c f   xerces-c_3_1:DOMElementImpl.cpp.obj
 0001:0004597c       ?getTextContent@DOMAttrImpl@xercesc_3_1@@UBEPB_WXZ 1004697c f   xerces-c_3_1:DOMAttrImpl.cpp.obj
 0001:0004597c       ?getTextContent@DOMCommentImpl@xercesc_3_1@@UBEPB_WXZ 1004697c f   xerces-c_3_1:DOMCommentImpl.cpp.obj
 0001:0004597c       ?getTextContent@DOMDocumentTypeImpl@xercesc_3_1@@UBEPB_WXZ 1004697c f   xerces-c_3_1:DOMDocumentTypeImpl.cpp.obj
 0001:0004597c       ?getTextContent@DOMEntityReferenceImpl@xercesc_3_1@@UBEPB_WXZ 1004697c f   xerces-c_3_1:DOMEntityReferenceImpl.cpp.obj
 0001:0004597c       ?getTextContent@DOMDocumentFragmentImpl@xercesc_3_1@@UBEPB_WXZ 1004697c f   xerces-c_3_1:DOMDocumentFragmentImpl.cpp.obj
 0001:0004597c       ?getTextContent@DOMEntityImpl@xercesc_3_1@@UBEPB_WXZ 1004697c f   xerces-c_3_1:DOMEntityImpl.cpp.obj
 0001:0004597c       ?getTextContent@DOMTextImpl@xercesc_3_1@@UBEPB_WXZ 1004697c f   xerces-c_3_1:DOMTextImpl.cpp.obj
 0001:00045984       ?setTextContent@DOMElementImpl@xercesc_3_1@@UAEXPB_W@Z 10046984 f   xerces-c_3_1:DOMElementImpl.cpp.obj
 0001:00045984       ?setTextContent@DOMEntityImpl@xercesc_3_1@@UAEXPB_W@Z 10046984 f   xerces-c_3_1:DOMEntityImpl.cpp.obj
 0001:00045984       ?setTextContent@DOMProcessingInstructionImpl@xercesc_3_1@@UAEXPB_W@Z 10046984 f   xerces-c_3_1:DOMProcessingInstructionImpl.cpp.obj
 0001:00045984       ?setTextContent@DOMDocumentTypeImpl@xercesc_3_1@@UAEXPB_W@Z 10046984 f   xerces-c_3_1:DOMDocumentTypeImpl.cpp.obj
 0001:00045984       ?setTextContent@DOMCDATASectionImpl@xercesc_3_1@@UAEXPB_W@Z 10046984 f   xerces-c_3_1:DOMCDATASectionImpl.cpp.obj
 0001:00045984       ?setTextContent@DOMDocumentImpl@xercesc_3_1@@UAEXPB_W@Z 10046984 f   xerces-c_3_1:DOMDocumentImpl.cpp.obj
 0001:00045984       ?setTextContent@DOMDocumentFragmentImpl@xercesc_3_1@@UAEXPB_W@Z 10046984 f   xerces-c_3_1:DOMDocumentFragmentImpl.cpp.obj
 0001:00045984       ?setTextContent@DOMEntityReferenceImpl@xercesc_3_1@@UAEXPB_W@Z 10046984 f   xerces-c_3_1:DOMEntityReferenceImpl.cpp.obj
 0001:00045984       ?setTextContent@DOMCommentImpl@xercesc_3_1@@UAEXPB_W@Z 10046984 f   xerces-c_3_1:DOMCommentImpl.cpp.obj
 0001:00045984       ?setTextContent@DOMNotationImpl@xercesc_3_1@@UAEXPB_W@Z 10046984 f   xerces-c_3_1:DOMNotationImpl.cpp.obj
 0001:00045984       ?setTextContent@DOMAttrImpl@xercesc_3_1@@UAEXPB_W@Z 10046984 f   xerces-c_3_1:DOMAttrImpl.cpp.obj
 0001:00045984       ?setTextContent@DOMTextImpl@xercesc_3_1@@UAEXPB_W@Z 10046984 f   xerces-c_3_1:DOMTextImpl.cpp.obj
 0001:00045990       ?lookupPrefix@DOMDocumentFragmentImpl@xercesc_3_1@@UBEPB_WPB_W@Z 10046990 f   xerces-c_3_1:DOMDocumentFragmentImpl.cpp.obj
 0001:00045990       ?lookupPrefix@DOMAttrImpl@xercesc_3_1@@UBEPB_WPB_W@Z 10046990 f   xerces-c_3_1:DOMAttrImpl.cpp.obj
 0001:00045990       ?lookupPrefix@DOMTextImpl@xercesc_3_1@@UBEPB_WPB_W@Z 10046990 f   xerces-c_3_1:DOMTextImpl.cpp.obj
 0001:00045990       ?lookupPrefix@DOMEntityImpl@xercesc_3_1@@UBEPB_WPB_W@Z 10046990 f   xerces-c_3_1:DOMEntityImpl.cpp.obj
 0001:00045990       ?lookupPrefix@DOMEntityReferenceImpl@xercesc_3_1@@UBEPB_WPB_W@Z 10046990 f   xerces-c_3_1:DOMEntityReferenceImpl.cpp.obj
 0001:00045990       ?lookupPrefix@DOMCDATASectionImpl@xercesc_3_1@@UBEPB_WPB_W@Z 10046990 f   xerces-c_3_1:DOMCDATASectionImpl.cpp.obj
 0001:00045990       ?lookupPrefix@DOMNotationImpl@xercesc_3_1@@UBEPB_WPB_W@Z 10046990 f   xerces-c_3_1:DOMNotationImpl.cpp.obj
 0001:00045990       ?lookupPrefix@DOMElementImpl@xercesc_3_1@@UBEPB_WPB_W@Z 10046990 f   xerces-c_3_1:DOMElementImpl.cpp.obj
 0001:00045990       ?lookupPrefix@DOMDocumentImpl@xercesc_3_1@@UBEPB_WPB_W@Z 10046990 f   xerces-c_3_1:DOMDocumentImpl.cpp.obj
 0001:00045990       ?lookupPrefix@DOMProcessingInstructionImpl@xercesc_3_1@@UBEPB_WPB_W@Z 10046990 f   xerces-c_3_1:DOMProcessingInstructionImpl.cpp.obj
 0001:00045990       ?lookupPrefix@DOMCommentImpl@xercesc_3_1@@UBEPB_WPB_W@Z 10046990 f   xerces-c_3_1:DOMCommentImpl.cpp.obj
 0001:00045990       ?lookupPrefix@DOMDocumentTypeImpl@xercesc_3_1@@UBEPB_WPB_W@Z 10046990 f   xerces-c_3_1:DOMDocumentTypeImpl.cpp.obj
 0001:0004599c       ?isDefaultNamespace@DOMEntityReferenceImpl@xercesc_3_1@@UBE_NPB_W@Z 1004699c f   xerces-c_3_1:DOMEntityReferenceImpl.cpp.obj
 0001:0004599c       ?isDefaultNamespace@DOMNotationImpl@xercesc_3_1@@UBE_NPB_W@Z 1004699c f   xerces-c_3_1:DOMNotationImpl.cpp.obj
 0001:0004599c       ?isDefaultNamespace@DOMProcessingInstructionImpl@xercesc_3_1@@UBE_NPB_W@Z 1004699c f   xerces-c_3_1:DOMProcessingInstructionImpl.cpp.obj
 0001:0004599c       ?isDefaultNamespace@DOMAttrImpl@xercesc_3_1@@UBE_NPB_W@Z 1004699c f   xerces-c_3_1:DOMAttrImpl.cpp.obj
 0001:0004599c       ?isDefaultNamespace@DOMCommentImpl@xercesc_3_1@@UBE_NPB_W@Z 1004699c f   xerces-c_3_1:DOMCommentImpl.cpp.obj
 0001:0004599c       ?isDefaultNamespace@DOMDocumentImpl@xercesc_3_1@@UBE_NPB_W@Z 1004699c f   xerces-c_3_1:DOMDocumentImpl.cpp.obj
 0001:0004599c       ?isDefaultNamespace@DOMTextImpl@xercesc_3_1@@UBE_NPB_W@Z 1004699c f   xerces-c_3_1:DOMTextImpl.cpp.obj
 0001:0004599c       ?isDefaultNamespace@DOMDocumentFragmentImpl@xercesc_3_1@@UBE_NPB_W@Z 1004699c f   xerces-c_3_1:DOMDocumentFragmentImpl.cpp.obj
 0001:0004599c       ?isDefaultNamespace@DOMEntityImpl@xercesc_3_1@@UBE_NPB_W@Z 1004699c f   xerces-c_3_1:DOMEntityImpl.cpp.obj
 0001:0004599c       ?isDefaultNamespace@DOMCDATASectionImpl@xercesc_3_1@@UBE_NPB_W@Z 1004699c f   xerces-c_3_1:DOMCDATASectionImpl.cpp.obj
 0001:0004599c       ?isDefaultNamespace@DOMDocumentTypeImpl@xercesc_3_1@@UBE_NPB_W@Z 1004699c f   xerces-c_3_1:DOMDocumentTypeImpl.cpp.obj
 0001:0004599c       ?isDefaultNamespace@DOMElementImpl@xercesc_3_1@@UBE_NPB_W@Z 1004699c f   xerces-c_3_1:DOMElementImpl.cpp.obj
 0001:000459a8       ?lookupNamespaceURI@DOMCommentImpl@xercesc_3_1@@UBEPB_WPB_W@Z 100469a8 f   xerces-c_3_1:DOMCommentImpl.cpp.obj
 0001:000459a8       ?lookupNamespaceURI@DOMTextImpl@xercesc_3_1@@UBEPB_WPB_W@Z 100469a8 f   xerces-c_3_1:DOMTextImpl.cpp.obj
 0001:000459a8       ?lookupNamespaceURI@DOMNotationImpl@xercesc_3_1@@UBEPB_WPB_W@Z 100469a8 f   xerces-c_3_1:DOMNotationImpl.cpp.obj
 0001:000459a8       ?lookupNamespaceURI@DOMEntityImpl@xercesc_3_1@@UBEPB_WPB_W@Z 100469a8 f   xerces-c_3_1:DOMEntityImpl.cpp.obj
 0001:000459a8       ?lookupNamespaceURI@DOMDocumentImpl@xercesc_3_1@@UBEPB_WPB_W@Z 100469a8 f   xerces-c_3_1:DOMDocumentImpl.cpp.obj
 0001:000459a8       ?lookupNamespaceURI@DOMDocumentFragmentImpl@xercesc_3_1@@UBEPB_WPB_W@Z 100469a8 f   xerces-c_3_1:DOMDocumentFragmentImpl.cpp.obj
 0001:000459a8       ?lookupNamespaceURI@DOMAttrImpl@xercesc_3_1@@UBEPB_WPB_W@Z 100469a8 f   xerces-c_3_1:DOMAttrImpl.cpp.obj
 0001:000459a8       ?lookupNamespaceURI@DOMEntityReferenceImpl@xercesc_3_1@@UBEPB_WPB_W@Z 100469a8 f   xerces-c_3_1:DOMEntityReferenceImpl.cpp.obj
 0001:000459a8       ?lookupNamespaceURI@DOMProcessingInstructionImpl@xercesc_3_1@@UBEPB_WPB_W@Z 100469a8 f   xerces-c_3_1:DOMProcessingInstructionImpl.cpp.obj
 0001:000459a8       ?lookupNamespaceURI@DOMElementImpl@xercesc_3_1@@UBEPB_WPB_W@Z 100469a8 f   xerces-c_3_1:DOMElementImpl.cpp.obj
 0001:000459a8       ?lookupNamespaceURI@DOMCDATASectionImpl@xercesc_3_1@@UBEPB_WPB_W@Z 100469a8 f   xerces-c_3_1:DOMCDATASectionImpl.cpp.obj
 0001:000459a8       ?lookupNamespaceURI@DOMDocumentTypeImpl@xercesc_3_1@@UBEPB_WPB_W@Z 100469a8 f   xerces-c_3_1:DOMDocumentTypeImpl.cpp.obj
 0001:000459b4       ?cloneString@DOMDocumentImpl@xercesc_3_1@@UAEPA_WPB_W@Z 100469b4 f   xerces-c_3_1:DOMDocumentImpl.cpp.obj
 0001:00045a00       ?getMemoryAllocationBlockSize@DOMDocumentImpl@xercesc_3_1@@UBEKXZ 10046a00 f   xerces-c_3_1:DOMDocumentImpl.cpp.obj
 0001:00045a04       ?setMemoryAllocationBlockSize@DOMDocumentImpl@xercesc_3_1@@UAEXK@Z 10046a04 f   xerces-c_3_1:DOMDocumentImpl.cpp.obj
 0001:00045a18       ?allocate@DOMDocumentImpl@xercesc_3_1@@UAEPAXK@Z 10046a18 f   xerces-c_3_1:DOMDocumentImpl.cpp.obj
 0001:00045ab7       ?deleteHeap@DOMDocumentImpl@xercesc_3_1@@QAEXXZ 10046ab7 f   xerces-c_3_1:DOMDocumentImpl.cpp.obj
 0001:00045adc       ?getDeepNodeList@DOMDocumentImpl@xercesc_3_1@@QAEPAVDOMNodeList@2@PBVDOMNode@2@PB_W@Z 10046adc f   xerces-c_3_1:DOMDocumentImpl.cpp.obj
 0001:00045b93       ?getDeepNodeList@DOMDocumentImpl@xercesc_3_1@@QAEPAVDOMNodeList@2@PBVDOMNode@2@PB_W1@Z 10046b93 f   xerces-c_3_1:DOMDocumentImpl.cpp.obj
 0001:00045c50       ?getNotations@DOMDocumentTypeImpl@xercesc_3_1@@UBEPAVDOMNamedNodeMap@2@XZ 10046c50 f   xerces-c_3_1:DOMDocumentTypeImpl.cpp.obj
 0001:00045c50       ?getPrefix@DOMAttrNSImpl@xercesc_3_1@@UBEPB_WXZ 10046c50 f   xerces-c_3_1:DOMAttrNSImpl.cpp.obj
 0001:00045c50       ?getNodeName@DOMElementImpl@xercesc_3_1@@UBEPB_WXZ 10046c50 f   xerces-c_3_1:DOMElementImpl.cpp.obj
 0001:00045c50       ?getEntityRef@DOMEntityImpl@xercesc_3_1@@UBEPAVDOMEntityReference@2@XZ 10046c50 f   xerces-c_3_1:DOMEntityImpl.cpp.obj
 0001:00045c50       ?getTagName@DOMElementImpl@xercesc_3_1@@UBEPB_WXZ 10046c50 f   xerces-c_3_1:DOMElementImpl.cpp.obj
 0001:00045c50       ?getInputEncoding@DOMDocumentImpl@xercesc_3_1@@UBEPB_WXZ 10046c50 f   xerces-c_3_1:DOMDocumentImpl.cpp.obj
 0001:00045c54       ?getXmlStandalone@DOMDocumentImpl@xercesc_3_1@@UBE_NXZ 10046c54 f   xerces-c_3_1:DOMDocumentImpl.cpp.obj
 0001:00045c58       ?setXmlStandalone@DOMDocumentImpl@xercesc_3_1@@UAEX_N@Z 10046c58 f   xerces-c_3_1:DOMDocumentImpl.cpp.obj
 0001:00045c65       ?getSystemId@DOMDocumentTypeImpl@xercesc_3_1@@UBEPB_WXZ 10046c65 f   xerces-c_3_1:DOMDocumentTypeImpl.cpp.obj
 0001:00045c65       ?getPrefix@DOMElementNSImpl@xercesc_3_1@@UBEPB_WXZ 10046c65 f   xerces-c_3_1:DOMElementNSImpl.cpp.obj
 0001:00045c65       ?getXmlVersion@DOMEntityImpl@xercesc_3_1@@UBEPB_WXZ 10046c65 f   xerces-c_3_1:DOMEntityImpl.cpp.obj
 0001:00045c65       ?getXmlVersion@DOMDocumentImpl@xercesc_3_1@@UBEPB_WXZ 10046c65 f   xerces-c_3_1:DOMDocumentImpl.cpp.obj
 0001:00045c69       ?setXmlVersion@DOMDocumentImpl@xercesc_3_1@@UAEXPB_W@Z 10046c69 f   xerces-c_3_1:DOMDocumentImpl.cpp.obj
 0001:00045cea       ?getBaseURI@DOMEntityImpl@xercesc_3_1@@UBEPB_WXZ 10046cea f   xerces-c_3_1:DOMEntityImpl.cpp.obj
 0001:00045cea       ?getInternalSubset@DOMDocumentTypeImpl@xercesc_3_1@@UBEPB_WXZ 10046cea f   xerces-c_3_1:DOMDocumentTypeImpl.cpp.obj
 0001:00045cea       ?getLength@AbstractStringValidator@xercesc_3_1@@QBEKXZ 10046cea f   xerces-c_3_1:ListDatatypeValidator.cpp.obj
 0001:00045cea       ?getDocumentURI@DOMDocumentImpl@xercesc_3_1@@UBEPB_WXZ 10046cea f   xerces-c_3_1:DOMDocumentImpl.cpp.obj
 0001:00045cea       ?getContentLeafNameTypeVector@DFAContentModel@xercesc_3_1@@UBEPAVContentLeafNameTypeVector@2@XZ 10046cea f   xerces-c_3_1:DFAContentModel.cpp.obj
 0001:00045cee       ?setDocumentURI@DOMDocumentImpl@xercesc_3_1@@UAEXPB_W@Z 10046cee f   xerces-c_3_1:DOMDocumentImpl.cpp.obj
 0001:00045d3a       ?getStrictErrorChecking@DOMDocumentImpl@xercesc_3_1@@UBE_NXZ 10046d3a f   xerces-c_3_1:DOMDocumentImpl.cpp.obj
 0001:00045d41       ?setStrictErrorChecking@DOMDocumentImpl@xercesc_3_1@@UAEX_N@Z 10046d41 f   xerces-c_3_1:DOMDocumentImpl.cpp.obj
 0001:00045d51       ?adoptNode@DOMDocumentImpl@xercesc_3_1@@UAEPAVDOMNode@2@PAV32@@Z 10046d51 f   xerces-c_3_1:DOMDocumentImpl.cpp.obj
 0001:00045dec       ?normalizeDocument@DOMDocumentImpl@xercesc_3_1@@UAEXXZ 10046dec f   xerces-c_3_1:DOMDocumentImpl.cpp.obj
 0001:00045eab       ?getDOMConfig@DOMDocumentImpl@xercesc_3_1@@UBEPAVDOMConfiguration@2@XZ 10046eab f   xerces-c_3_1:DOMDocumentImpl.cpp.obj
 0001:00045ef3       ?importNode@DOMDocumentImpl@xercesc_3_1@@MAEPAVDOMNode@2@PBV32@_N1@Z 10046ef3 f   xerces-c_3_1:DOMDocumentImpl.cpp.obj
 0001:00046663       ?setUserData@DOMDocumentImpl@xercesc_3_1@@QAEPAXPAVDOMNodeImpl@2@PB_WPAXPAVDOMUserDataHandler@2@@Z 10047663 f   xerces-c_3_1:DOMDocumentImpl.cpp.obj
 0001:000467ac       ?callUserDataHandlers@DOMDocumentImpl@xercesc_3_1@@QBEXPBVDOMNodeImpl@2@W4DOMOperationType@DOMUserDataHandler@2@PBVDOMNode@2@PAV62@@Z 100477ac f   xerces-c_3_1:DOMDocumentImpl.cpp.obj
 0001:00046926       ?transferUserData@DOMDocumentImpl@xercesc_3_1@@QAEXPAVDOMNodeImpl@2@0@Z 10047926 f   xerces-c_3_1:DOMDocumentImpl.cpp.obj
 0001:00046957       ?renameNode@DOMDocumentImpl@xercesc_3_1@@UAEPAVDOMNode@2@PAV32@PB_W1@Z 10047957 f   xerces-c_3_1:DOMDocumentImpl.cpp.obj
 0001:000469e4       ?release@DOMDocumentImpl@xercesc_3_1@@UAEXXZ 100479e4 f   xerces-c_3_1:DOMDocumentImpl.cpp.obj
 0001:00046a44       ?releaseDocNotifyUserData@DOMDocumentImpl@xercesc_3_1@@QAEXPAVDOMNode@2@@Z 10047a44 f   xerces-c_3_1:DOMDocumentImpl.cpp.obj
 0001:00046adb       ?release@DOMDocumentImpl@xercesc_3_1@@UAEXPAVDOMNode@2@W4NodeObjectType@DOMMemoryManager@2@@Z 10047adb f   xerces-c_3_1:DOMDocumentImpl.cpp.obj
 0001:00046beb       ?popBuffer@DOMDocumentImpl@xercesc_3_1@@QAEPAVDOMBuffer@2@K@Z 10047beb f   xerces-c_3_1:DOMDocumentImpl.cpp.obj
 0001:00046c65       ?allocate@DOMDocumentImpl@xercesc_3_1@@UAEPAXKW4NodeObjectType@DOMMemoryManager@2@@Z 10047c65 f   xerces-c_3_1:DOMDocumentImpl.cpp.obj
 0001:00046cb3       ?isSupported@DOMDocumentImpl@xercesc_3_1@@UBE_NPB_W0@Z 10047cb3 f   xerces-c_3_1:DOMDocumentImpl.cpp.obj
 0001:00046d24       ?getFeature@DOMDocumentImpl@xercesc_3_1@@UBEPAXPB_W0@Z 10047d24 f   xerces-c_3_1:DOMDocumentImpl.cpp.obj
 0001:00046d58       ??1?$XMLEnumerator@V?$KeyRefPair@XVDOMUserDataHandler@xercesc_3_1@@@xercesc_3_1@@@xercesc_3_1@@UAE@XZ 10047d58 f i xerces-c_3_1:DOMDocumentImpl.cpp.obj
 0001:00046d5f       ??_E?$XMLEnumerator@H@xercesc_3_1@@UAEPAXI@Z 10047d5f f i * CIL library *:* CIL module *
 0001:00046d5f       ??_G?$XMLEnumerator@H@xercesc_3_1@@UAEPAXI@Z 10047d5f f i xerces-c_3_1:DOMDocumentImpl.cpp.obj
 0001:00046d82       ??_E?$XMLEnumerator@V?$KeyRefPair@XVDOMUserDataHandler@xercesc_3_1@@@xercesc_3_1@@@xercesc_3_1@@UAEPAXI@Z 10047d82 f i * CIL library *:* CIL module *
 0001:00046d82       ??_G?$XMLEnumerator@V?$KeyRefPair@XVDOMUserDataHandler@xercesc_3_1@@@xercesc_3_1@@@xercesc_3_1@@UAEPAXI@Z 10047d82 f i xerces-c_3_1:DOMDocumentImpl.cpp.obj
 0001:00046da5       ?removeKey@?$RefHash2KeysTableOf@V?$KeyRefPair@XVDOMUserDataHandler@xercesc_3_1@@@xercesc_3_1@@UPtrHasher@2@@xercesc_3_1@@QAEXQBX@Z 10047da5 f i xerces-c_3_1:DOMDocumentImpl.cpp.obj
 0001:00046e20       ?removeKey@?$RefHash2KeysTableOf@V?$KeyRefPair@XVDOMUserDataHandler@xercesc_3_1@@@xercesc_3_1@@UPtrHasher@2@@xercesc_3_1@@QAEXQBXH@Z 10047e20 f i xerces-c_3_1:DOMDocumentImpl.cpp.obj
 0001:00046eb6       ?transferElement@?$RefHash2KeysTableOf@V?$KeyRefPair@XVDOMUserDataHandler@xercesc_3_1@@@xercesc_3_1@@UPtrHasher@2@@xercesc_3_1@@QAEXQBXPAX@Z 10047eb6 f i xerces-c_3_1:DOMDocumentImpl.cpp.obj
 0001:00046fa5       ?put@?$RefHash2KeysTableOf@V?$KeyRefPair@XVDOMUserDataHandler@xercesc_3_1@@@xercesc_3_1@@UPtrHasher@2@@xercesc_3_1@@QAEXPAXHQAV?$KeyRefPair@XVDOMUserDataHandler@xercesc_3_1@@@2@@Z 10047fa5 f i xerces-c_3_1:DOMDocumentImpl.cpp.obj
 0001:0004702f       ??A?$RefArrayOf@V?$RefStackOf@VDOMNode@xercesc_3_1@@@xercesc_3_1@@@xercesc_3_1@@QAEAAPAV?$RefStackOf@VDOMNode@xercesc_3_1@@@1@K@Z 1004802f f i xerces-c_3_1:DOMDocumentImpl.cpp.obj
 0001:0004705a       ??0?$RefStackOf@VDOMBuffer@xercesc_3_1@@@xercesc_3_1@@QAE@K_NQAVMemoryManager@1@@Z 1004805a f i xerces-c_3_1:DOMDocumentImpl.cpp.obj
 0001:000470ab       ??0?$DOMDeepNodeListPool@VDOMDeepNodeListImpl@xercesc_3_1@@UPtrHasher@2@@xercesc_3_1@@QAE@K_NK@Z 100480ab f i xerces-c_3_1:DOMDocumentImpl.cpp.obj
 0001:0004711b       ?getById@?$DOMDeepNodeListPool@VDOMDeepNodeListImpl@xercesc_3_1@@UPtrHasher@2@@xercesc_3_1@@QAEPAVDOMDeepNodeListImpl@2@K@Z 1004811b f i xerces-c_3_1:DOMDocumentImpl.cpp.obj
 0001:0004715f       ?put@?$DOMDeepNodeListPool@VDOMDeepNodeListImpl@xercesc_3_1@@UPtrHasher@2@@xercesc_3_1@@QAEKPAXPA_W1QAVDOMDeepNodeListImpl@2@@Z 1004815f f i xerces-c_3_1:DOMDocumentImpl.cpp.obj
 0001:000472d5       ?elementAt@?$BaseRefVectorOf@VScope@InScopeNamespaces@DOMNormalizer@xercesc_3_1@@@xercesc_3_1@@QAEPAVScope@InScopeNamespaces@DOMNormalizer@2@K@Z 100482d5 f i xerces-c_3_1:DOMNormalizer.cpp.obj
 0001:000472d5       ?elementAt@?$BaseRefVectorOf@VXercesLocationPath@xercesc_3_1@@@xercesc_3_1@@QAEPAVXercesLocationPath@2@K@Z 100482d5 f i xerces-c_3_1:XPathMatcher.cpp.obj
 0001:000472d5       ?elementAt@?$BaseRefVectorOf@VKVStringPair@xercesc_3_1@@@xercesc_3_1@@QAEPAVKVStringPair@2@K@Z 100482d5 f i xerces-c_3_1:SGXMLScanner.cpp.obj
 0001:000472d5       ?elementAt@?$BaseRefVectorOf@V?$RefHashTableOf@_WUStringHasher@xercesc_3_1@@@xercesc_3_1@@@xercesc_3_1@@QAEPAV?$RefHashTableOf@_WUStringHasher@xercesc_3_1@@@2@K@Z 100482d5 f i xerces-c_3_1:DOMLSSerializerImpl.cpp.obj
 0001:000472d5       ?elementAt@?$BaseRefVectorOf@VXMLNumber@xercesc_3_1@@@xercesc_3_1@@QAEPAVXMLNumber@2@K@Z 100482d5 f i xerces-c_3_1:XTemplateSerializer.cpp.obj
 0001:000472d5       ?elementAt@?$BaseRefVectorOf@VSchemaInfo@xercesc_3_1@@@xercesc_3_1@@QAEPAVSchemaInfo@2@K@Z 100482d5 f i xerces-c_3_1:TraverseSchema.cpp.obj
 0001:000472d5       ?elementAt@?$BaseRefVectorOf@VIC_Field@xercesc_3_1@@@xercesc_3_1@@QAEPAVIC_Field@2@K@Z 100482d5 f i xerces-c_3_1:XTemplateSerializer.cpp.obj
 0001:000472d5       ?elementAt@?$BaseRefVectorOf@VXSNamespaceItem@xercesc_3_1@@@xercesc_3_1@@QAEPAVXSNamespaceItem@2@K@Z 100482d5 f i xerces-c_3_1:XSModel.cpp.obj
 0001:000472d5       ?elementAt@?$BaseRefVectorOf@VXMLAttr@xercesc_3_1@@@xercesc_3_1@@QAEPAVXMLAttr@2@K@Z 100482d5 f i xerces-c_3_1:SGXMLScanner.cpp.obj
 0001:000472d5       ?elementAt@?$BaseRefVectorOf@VXercesStep@xercesc_3_1@@@xercesc_3_1@@QAEPAVXercesStep@2@K@Z 100482d5 f i xerces-c_3_1:XPathMatcher.cpp.obj
 0001:000472d5       ?elementAt@?$BaseRefVectorOf@VDOMNode@xercesc_3_1@@@xercesc_3_1@@QAEPAVDOMNode@2@K@Z 100482d5 f i xerces-c_3_1:XIncludeUtils.cpp.obj
 0001:000472d5       ?elementAt@?$BaseRefVectorOf@VDOMRangeImpl@xercesc_3_1@@@xercesc_3_1@@QAEPAVDOMRangeImpl@2@K@Z 100482d5 f i xerces-c_3_1:DOMDocumentImpl.cpp.obj
 0001:000472d5       ?elementAt@?$BaseRefVectorOf@VSchemaAttDef@xercesc_3_1@@@xercesc_3_1@@QAEPAVSchemaAttDef@2@K@Z 100482d5 f i xerces-c_3_1:XTemplateSerializer.cpp.obj
 0001:000472d5       ?elementAt@?$BaseRefVectorOf@VIdentityConstraint@xercesc_3_1@@@xercesc_3_1@@QAEPAVIdentityConstraint@2@K@Z 100482d5 f i xerces-c_3_1:XTemplateSerializer.cpp.obj
 0001:000472d5       ?elementAt@?$BaseRefVectorOf@VDOMImplementationSource@xercesc_3_1@@@xercesc_3_1@@QAEPAVDOMImplementationSource@2@K@Z 100482d5 f i xerces-c_3_1:DOMImplementationRegistry.cpp.obj
 0001:000472d5       ?elementAt@?$BaseRefVectorOf@V?$ValueStackOf@K@xercesc_3_1@@@xercesc_3_1@@QAEPAV?$ValueStackOf@K@2@K@Z 100482d5 f i xerces-c_3_1:XPathMatcher.cpp.obj
 0001:000472d5       ?elementAt@?$BaseRefVectorOf@VXSObject@xercesc_3_1@@@xercesc_3_1@@QAEPAVXSObject@2@K@Z 100482d5 f i xerces-c_3_1:XSModel.cpp.obj
 0001:000472d5       ?elementAt@?$BaseRefVectorOf@VToken@xercesc_3_1@@@xercesc_3_1@@QAEPAVToken@2@K@Z 100482d5 f i xerces-c_3_1:UnionToken.cpp.obj
 0001:000472d5       ?elementAt@?$BaseRefVectorOf@VPSVIAttributeStorage@xercesc_3_1@@@xercesc_3_1@@QAEPAVPSVIAttributeStorage@2@K@Z 100482d5 f i xerces-c_3_1:PSVIAttributeList.cpp.obj
 0001:000472d5       ?elementAt@?$BaseRefVectorOf@VXSFacet@xercesc_3_1@@@xercesc_3_1@@QAEPAVXSFacet@2@K@Z 100482d5 f i xerces-c_3_1:XSObjectFactory.cpp.obj
 0001:000472d5       ?elementAt@?$BaseRefVectorOf@VSchemaElementDecl@xercesc_3_1@@@xercesc_3_1@@QAEPAVSchemaElementDecl@2@K@Z 100482d5 f i xerces-c_3_1:XTemplateSerializer.cpp.obj
 0001:000472d5       ?elementAt@?$BaseRefVectorOf@VDOMNodeIteratorImpl@xercesc_3_1@@@xercesc_3_1@@QAEPAVDOMNodeIteratorImpl@2@K@Z 100482d5 f i xerces-c_3_1:DOMDocumentImpl.cpp.obj
 0001:00047303       ??0?$RefHash2KeysTableOfEnumerator@V?$KeyRefPair@XVDOMUserDataHandler@xercesc_3_1@@@xercesc_3_1@@UPtrHasher@2@@xercesc_3_1@@QAE@QAV?$RefHash2KeysTableOf@V?$KeyRefPair@XVDOMUserDataHandler@xercesc_3_1@@@xercesc_3_1@@UPtrHasher@2@@1@_NQAVMemoryManager@1@@Z 10048303 f i xerces-c_3_1:DOMDocumentImpl.cpp.obj
 0001:0004737a       ??1?$RefHash2KeysTableOfEnumerator@V?$KeyRefPair@XVDOMUserDataHandler@xercesc_3_1@@@xercesc_3_1@@UPtrHasher@2@@xercesc_3_1@@UAE@XZ 1004837a f i xerces-c_3_1:DOMDocumentImpl.cpp.obj
 0001:0004739e       ?hasMoreElements@?$RefHashTableOfEnumerator@VKVStringPair@xercesc_3_1@@UStringHasher@2@@xercesc_3_1@@UBE_NXZ 1004839e f i xerces-c_3_1:DOMXPathNSResolverImpl.cpp.obj
 0001:0004739e       ?hasMoreElements@?$RefHashTableOfEnumerator@VDatatypeValidator@xercesc_3_1@@UStringHasher@2@@xercesc_3_1@@UBE_NXZ 1004839e f i xerces-c_3_1:XSModel.cpp.obj
 0001:0004739e       ?hasMoreElements@?$RefHash2KeysTableOfEnumerator@V?$ValueVectorOf@PAVSchemaElementDecl@xercesc_3_1@@@xercesc_3_1@@UStringHasher@2@@xercesc_3_1@@UBE_NXZ 1004839e f i xerces-c_3_1:XTemplateSerializer.cpp.obj
 0001:0004739e       ?hasMoreElements@?$RefHash2KeysTableOfEnumerator@VSchemaAttDef@xercesc_3_1@@UStringHasher@2@@xercesc_3_1@@UBE_NXZ 1004839e f i xerces-c_3_1:SchemaAttDefList.cpp.obj
 0001:0004739e       ?hasMoreElements@?$RefHashTableOfEnumerator@VXercesAttGroupInfo@xercesc_3_1@@UStringHasher@2@@xercesc_3_1@@UBE_NXZ 1004839e f i xerces-c_3_1:XSModel.cpp.obj
 0001:0004739e       ?hasMoreElements@?$RefHashTableOfEnumerator@VXercesGroupInfo@xercesc_3_1@@UStringHasher@2@@xercesc_3_1@@UBE_NXZ 1004839e f i xerces-c_3_1:XSModel.cpp.obj
 0001:0004739e       ?hasMoreElements@?$RefHashTableOfEnumerator@VXSAnnotation@xercesc_3_1@@UPtrHasher@2@@xercesc_3_1@@UBE_NXZ 1004839e f i xerces-c_3_1:XTemplateSerializer.cpp.obj
 0001:0004739e       ?hasMoreElements@?$RefHashTableOfEnumerator@VDTDAttDef@xercesc_3_1@@UStringHasher@2@@xercesc_3_1@@UBE_NXZ 1004839e f i xerces-c_3_1:XTemplateSerializer.cpp.obj
 0001:0004739e       ?hasMoreElements@?$RefHash2KeysTableOfEnumerator@V?$KeyRefPair@XVDOMUserDataHandler@xercesc_3_1@@@xercesc_3_1@@UPtrHasher@2@@xercesc_3_1@@UBE_NXZ 1004839e f i xerces-c_3_1:DOMDocumentImpl.cpp.obj
 0001:0004739e       ?hasMoreElements@?$RefHashTableOfEnumerator@_WUStringHasher@xercesc_3_1@@@xercesc_3_1@@UBE_NXZ 1004839e f i xerces-c_3_1:DOMNormalizer.cpp.obj
 0001:0004739e       ?hasMoreElements@?$RefHashTableOfEnumerator@VXMLRefInfo@xercesc_3_1@@UStringHasher@2@@xercesc_3_1@@UBE_NXZ 1004839e f i xerces-c_3_1:XMLScanner.cpp.obj
 0001:0004739e       ?hasMoreElements@?$RefHashTableOfEnumerator@VComplexTypeInfo@xercesc_3_1@@UStringHasher@2@@xercesc_3_1@@UBE_NXZ 1004839e f i xerces-c_3_1:XSModel.cpp.obj
 0001:0004739e       ?hasMoreElements@?$RefHashTableOfEnumerator@VValueStore@xercesc_3_1@@UPtrHasher@2@@xercesc_3_1@@UBE_NXZ 1004839e f i xerces-c_3_1:ValueStoreCache.cpp.obj
 0001:0004739e       ?hasMoreElements@?$RefHashTableOfEnumerator@VXMLAttDef@xercesc_3_1@@UStringHasher@2@@xercesc_3_1@@UBE_NXZ 1004839e f i xerces-c_3_1:XSModel.cpp.obj
 0001:0004739e       ?hasMoreElements@?$RefHashTableOfEnumerator@VFieldValueMap@xercesc_3_1@@UICValueHasher@2@@xercesc_3_1@@UBE_NXZ 1004839e f i xerces-c_3_1:ValueStore.cpp.obj
 0001:0004739e       ?hasMoreElements@?$RefHashTableOfEnumerator@VGrammar@xercesc_3_1@@UStringHasher@2@@xercesc_3_1@@UBE_NXZ 1004839e f i xerces-c_3_1:GrammarResolver.cpp.obj
 0001:0004739e       ?hasMoreElements@?$RefHash2KeysTableOfEnumerator@VSchemaInfo@xercesc_3_1@@UStringHasher@2@@xercesc_3_1@@UBE_NXZ 1004839e f i xerces-c_3_1:SGXMLScanner.cpp.obj
 0001:000473b5       ?nextElement@?$RefHash2KeysTableOfEnumerator@V?$KeyRefPair@XVDOMUserDataHandler@xercesc_3_1@@@xercesc_3_1@@UPtrHasher@2@@xercesc_3_1@@UAEAAV?$KeyRefPair@XVDOMUserDataHandler@xercesc_3_1@@@2@XZ 100483b5 f i xerces-c_3_1:DOMDocumentImpl.cpp.obj
 0001:00047400       ?Reset@?$RefHash2KeysTableOfEnumerator@V?$KeyRefPair@XVDOMUserDataHandler@xercesc_3_1@@@xercesc_3_1@@UPtrHasher@2@@xercesc_3_1@@UAEXXZ 10048400 f i xerces-c_3_1:DOMDocumentImpl.cpp.obj
 0001:00047422       ??1?$RefVectorOf@VDOMBuffer@xercesc_3_1@@@xercesc_3_1@@UAE@XZ 10048422 f i xerces-c_3_1:DOMDocumentImpl.cpp.obj
 0001:0004748b       ?setElementAt@?$BaseRefVectorOf@VDOMBuffer@xercesc_3_1@@@xercesc_3_1@@UAEXQAVDOMBuffer@2@K@Z 1004848b f i xerces-c_3_1:DOMDocumentImpl.cpp.obj
 0001:000474ec       ?removeAllElements@?$BaseRefVectorOf@VDOMBuffer@xercesc_3_1@@@xercesc_3_1@@UAEXXZ 100484ec f i xerces-c_3_1:DOMDocumentImpl.cpp.obj
 0001:00047526       ?removeElementAt@?$BaseRefVectorOf@VDOMBuffer@xercesc_3_1@@@xercesc_3_1@@UAEXK@Z 10048526 f i xerces-c_3_1:DOMDocumentImpl.cpp.obj
 0001:000475b8       ?removeLastElement@?$BaseRefVectorOf@VDOMBuffer@xercesc_3_1@@@xercesc_3_1@@UAEXXZ 100485b8 f i xerces-c_3_1:DOMDocumentImpl.cpp.obj
 0001:000475e1       ?cleanup@?$BaseRefVectorOf@VDOMBuffer@xercesc_3_1@@@xercesc_3_1@@UAEXXZ 100485e1 f i xerces-c_3_1:DOMDocumentImpl.cpp.obj
 0001:0004761b       ??1?$JanitorMemFunCall@VXPathMatcherStack@xercesc_3_1@@@xercesc_3_1@@QAE@XZ 1004861b f i xerces-c_3_1:XPathMatcherStack.cpp.obj
 0001:0004761b       ??1?$JanitorMemFunCall@VValueStoreCache@xercesc_3_1@@@xercesc_3_1@@QAE@XZ 1004861b f i xerces-c_3_1:ValueStoreCache.cpp.obj
 0001:0004761b       ??1?$JanitorMemFunCall@VRangeTokenMap@xercesc_3_1@@@xercesc_3_1@@QAE@XZ 1004861b f i xerces-c_3_1:RangeTokenMap.cpp.obj
 0001:0004761b       ??1?$JanitorMemFunCall@VXMLAttr@xercesc_3_1@@@xercesc_3_1@@QAE@XZ 1004861b f i xerces-c_3_1:XMLAttr.cpp.obj
 0001:0004761b       ??1?$JanitorMemFunCall@VTraverseSchema@xercesc_3_1@@@xercesc_3_1@@QAE@XZ 1004861b f i xerces-c_3_1:TraverseSchema.cpp.obj
 0001:0004761b       ??1?$JanitorMemFunCall@VDOMXPathExpression@xercesc_3_1@@@xercesc_3_1@@QAE@XZ 1004861b f i xerces-c_3_1:DOMDocumentImpl.cpp.obj
 0001:0004761b       ??1?$JanitorMemFunCall@VXMLStringTokenizer@xercesc_3_1@@@xercesc_3_1@@QAE@XZ 1004861b f i xerces-c_3_1:XMLStringTokenizer.cpp.obj
 0001:0004761b       ??1?$JanitorMemFunCall@VFieldValueMap@xercesc_3_1@@@xercesc_3_1@@QAE@XZ 1004861b f i xerces-c_3_1:FieldValueMap.cpp.obj
 0001:0004761b       ??1?$JanitorMemFunCall@VBMPattern@xercesc_3_1@@@xercesc_3_1@@QAE@XZ 1004861b f i xerces-c_3_1:BMPattern.cpp.obj
 0001:00047655       ??0?$ValueVectorOf@K@xercesc_3_1@@QAE@KQAVMemoryManager@1@_N@Z 10048655 f i xerces-c_3_1:WFXMLScanner.cpp.obj
 0001:00047655       ??0?$ValueVectorOf@I@xercesc_3_1@@QAE@KQAVMemoryManager@1@_N@Z 10048655 f i xerces-c_3_1:XTemplateSerializer.cpp.obj
 0001:00047655       ??0?$ValueVectorOf@PAVSchemaElementDecl@xercesc_3_1@@@xercesc_3_1@@QAE@KQAVMemoryManager@1@_N@Z 10048655 f i xerces-c_3_1:XTemplateSerializer.cpp.obj
 0001:00047655       ??0?$ValueVectorOf@PBVDOMElement@xercesc_3_1@@@xercesc_3_1@@QAE@KQAVMemoryManager@1@_N@Z 10048655 f i xerces-c_3_1:TraverseSchema.cpp.obj
 0001:00047655       ??0?$ValueVectorOf@PAX@xercesc_3_1@@QAE@KQAVMemoryManager@1@_N@Z 10048655 f i xerces-c_3_1:XSerializeEngine.cpp.obj
 0001:00047655       ??0?$ValueVectorOf@H@xercesc_3_1@@QAE@KQAVMemoryManager@1@_N@Z 10048655 f i xerces-c_3_1:DOMDocumentImpl.cpp.obj
 0001:00047655       ??0?$ValueVectorOf@PAVDOMNode@xercesc_3_1@@@xercesc_3_1@@QAE@KQAVMemoryManager@1@_N@Z 10048655 f i xerces-c_3_1:TraverseSchema.cpp.obj
 0001:00047697       ??1?$ValueVectorOf@PAVXercesAttGroupInfo@xercesc_3_1@@@xercesc_3_1@@QAE@XZ 10048697 f i xerces-c_3_1:TraverseSchema.cpp.obj
 0001:00047697       ??1?$ValueVectorOf@_N@xercesc_3_1@@QAE@XZ 10048697 f i xerces-c_3_1:SGXMLScanner.cpp.obj
 0001:00047697       ??1?$ValueVectorOf@PAX@xercesc_3_1@@QAE@XZ 10048697 f i xerces-c_3_1:XSerializeEngine.cpp.obj
 0001:00047697       ??1?$ValueVectorOf@PAVContentSpecNode@xercesc_3_1@@@xercesc_3_1@@QAE@XZ 10048697 f i xerces-c_3_1:SchemaValidator.cpp.obj
 0001:00047697       ??1?$ValueVectorOf@H@xercesc_3_1@@QAE@XZ 10048697 f i xerces-c_3_1:DOMDocumentImpl.cpp.obj
 0001:00047697       ??1?$ValueVectorOf@PA_W@xercesc_3_1@@QAE@XZ 10048697 f i xerces-c_3_1:GrammarResolver.cpp.obj
 0001:00047697       ??1?$ValueVectorOf@PAVQName@xercesc_3_1@@@xercesc_3_1@@QAE@XZ 10048697 f i xerces-c_3_1:MixedContentModel.cpp.obj
 0001:00047697       ??1?$ValueVectorOf@W4NodeTypes@ContentSpecNode@xercesc_3_1@@@xercesc_3_1@@QAE@XZ 10048697 f i xerces-c_3_1:MixedContentModel.cpp.obj
 0001:00047697       ??1?$ValueVectorOf@I@xercesc_3_1@@QAE@XZ 10048697 f i xerces-c_3_1:SchemaAttDef.cpp.obj
 0001:000476c8       ?addElement@?$ValueVectorOf@PAVXercesAttGroupInfo@xercesc_3_1@@@xercesc_3_1@@QAEXABQAVXercesAttGroupInfo@2@@Z 100486c8 f i xerces-c_3_1:TraverseSchema.cpp.obj
 0001:000476c8       ?addElement@?$ValueVectorOf@W4NodeTypes@ContentSpecNode@xercesc_3_1@@@xercesc_3_1@@QAEXABW4NodeTypes@ContentSpecNode@2@@Z 100486c8 f i xerces-c_3_1:MixedContentModel.cpp.obj
 0001:000476c8       ?addElement@?$ValueVectorOf@PAVQName@xercesc_3_1@@@xercesc_3_1@@QAEXABQAVQName@2@@Z 100486c8 f i xerces-c_3_1:MixedContentModel.cpp.obj
 0001:000476c8       ?addElement@?$ValueVectorOf@PAVComplexTypeInfo@xercesc_3_1@@@xercesc_3_1@@QAEXABQAVComplexTypeInfo@2@@Z 100486c8 f i xerces-c_3_1:SchemaValidator.cpp.obj
 0001:000476c8       ?addElement@?$ValueVectorOf@PAVContentSpecNode@xercesc_3_1@@@xercesc_3_1@@QAEXABQAVContentSpecNode@2@@Z 100486c8 f i xerces-c_3_1:SchemaValidator.cpp.obj
 0001:000476c8       ?addElement@?$ValueVectorOf@PB_W@xercesc_3_1@@QAEXABQB_W@Z 100486c8 f i xerces-c_3_1:TraverseSchema.cpp.obj
 0001:000476c8       ?addElement@?$ValueVectorOf@PAVSchemaGrammar@xercesc_3_1@@@xercesc_3_1@@QAEXABQAVSchemaGrammar@2@@Z 100486c8 f i xerces-c_3_1:GrammarResolver.cpp.obj
 0001:000476c8       ?addElement@?$ValueVectorOf@PBVDOMElement@xercesc_3_1@@@xercesc_3_1@@QAEXABQBVDOMElement@2@@Z 100486c8 f i xerces-c_3_1:TraverseSchema.cpp.obj
 0001:000476c8       ?addElement@?$ValueVectorOf@PAVXMLAttr@xercesc_3_1@@@xercesc_3_1@@QAEXABQAVXMLAttr@2@@Z 100486c8 f i xerces-c_3_1:WFXMLScanner.cpp.obj
 0001:000476c8       ?addElement@?$ValueVectorOf@I@xercesc_3_1@@QAEXABI@Z 100486c8 f i xerces-c_3_1:XTemplateSerializer.cpp.obj
 0001:000476c8       ?addElement@?$ValueVectorOf@PA_W@xercesc_3_1@@QAEXABQA_W@Z 100486c8 f i xerces-c_3_1:GrammarResolver.cpp.obj
 0001:000476c8       ?addElement@?$ValueVectorOf@PAUPrefMapElem@xercesc_3_1@@@xercesc_3_1@@QAEXABQAUPrefMapElem@2@@Z 100486c8 f i xerces-c_3_1:ElemStack.cpp.obj
 0001:000476c8       ?addElement@?$ValueVectorOf@PAVDOMNode@xercesc_3_1@@@xercesc_3_1@@QAEXABQAVDOMNode@2@@Z 100486c8 f i xerces-c_3_1:GeneralAttributeCheck.cpp.obj
 0001:000476c8       ?addElement@?$ValueVectorOf@PAVDOMElement@xercesc_3_1@@@xercesc_3_1@@QAEXABQAVDOMElement@2@@Z 100486c8 f i xerces-c_3_1:TraverseSchema.cpp.obj
 0001:000476c8       ?addElement@?$ValueVectorOf@H@xercesc_3_1@@QAEXABH@Z 100486c8 f i xerces-c_3_1:DOMDocumentImpl.cpp.obj
 0001:000476c8       ?addElement@?$ValueVectorOf@K@xercesc_3_1@@QAEXABK@Z 100486c8 f i xerces-c_3_1:WFXMLScanner.cpp.obj
 0001:000476c8       ?addElement@?$ValueVectorOf@PAX@xercesc_3_1@@QAEXABQAX@Z 100486c8 f i xerces-c_3_1:XSerializeEngine.cpp.obj
 0001:000476c8       ?addElement@?$ValueVectorOf@PAVDatatypeValidator@xercesc_3_1@@@xercesc_3_1@@QAEXABQAVDatatypeValidator@2@@Z 100486c8 f i xerces-c_3_1:ValueStore.cpp.obj
 0001:000476c8       ?addElement@?$ValueVectorOf@PAVSchemaElementDecl@xercesc_3_1@@@xercesc_3_1@@QAEXABQAVSchemaElementDecl@2@@Z 100486c8 f i xerces-c_3_1:XTemplateSerializer.cpp.obj
 0001:000476c8       ?addElement@?$ValueVectorOf@PAVIC_Field@xercesc_3_1@@@xercesc_3_1@@QAEXABQAVIC_Field@2@@Z 100486c8 f i xerces-c_3_1:ValueStore.cpp.obj
 0001:00047755       ??1?$ValueVectorEnumerator@H@xercesc_3_1@@UAE@XZ 10048755 f i xerces-c_3_1:DOMDocumentImpl.cpp.obj
 0001:000477ae       ?hasMoreElements@?$ValueVectorEnumerator@H@xercesc_3_1@@UBE_NXZ 100487ae f i xerces-c_3_1:DOMDocumentImpl.cpp.obj
 0001:000477bb       ?nextElement@?$ValueVectorEnumerator@H@xercesc_3_1@@UAEAAHXZ 100487bb f i xerces-c_3_1:DOMDocumentImpl.cpp.obj
 0001:000477de       ?Reset@?$ValueVectorEnumerator@H@xercesc_3_1@@UAEXXZ 100487de f i xerces-c_3_1:DOMDocumentImpl.cpp.obj
 0001:000477de       ?Reset@?$BaseRefVectorEnumerator@VSchemaInfo@xercesc_3_1@@@xercesc_3_1@@UAEXXZ 100487de f i xerces-c_3_1:TraverseSchema.cpp.obj
 0001:000477e3       ??1?$RefVectorOf@VDOMNode@xercesc_3_1@@@xercesc_3_1@@UAE@XZ 100487e3 f i xerces-c_3_1:DOMDocumentImpl.cpp.obj
 0001:00047847       ??_G?$RefVectorOf@VDOMRangeImpl@xercesc_3_1@@@xercesc_3_1@@UAEPAXI@Z 10048847 f i xerces-c_3_1:DOMDocumentImpl.cpp.obj
 0001:00047847       ??_E?$RefVectorOf@VDOMRangeImpl@xercesc_3_1@@@xercesc_3_1@@UAEPAXI@Z 10048847 f i * CIL library *:* CIL module *
 0001:000478d1       ??_G?$RefVectorOf@VDOMNodeIteratorImpl@xercesc_3_1@@@xercesc_3_1@@UAEPAXI@Z 100488d1 f i xerces-c_3_1:DOMDocumentImpl.cpp.obj
 0001:000478d1       ??_E?$RefVectorOf@VDOMNodeIteratorImpl@xercesc_3_1@@@xercesc_3_1@@UAEPAXI@Z 100488d1 f i * CIL library *:* CIL module *
 0001:0004795b       ??_G?$BaseRefVectorOf@VDOMRangeImpl@xercesc_3_1@@@xercesc_3_1@@UAEPAXI@Z 1004895b f i xerces-c_3_1:DOMDocumentImpl.cpp.obj
 0001:0004795b       ??_E?$BaseRefVectorOf@VDOMRangeImpl@xercesc_3_1@@@xercesc_3_1@@UAEPAXI@Z 1004895b f i * CIL library *:* CIL module *
 0001:0004798b       ??_G?$BaseRefVectorOf@VDOMNodeIteratorImpl@xercesc_3_1@@@xercesc_3_1@@UAEPAXI@Z 1004898b f i xerces-c_3_1:DOMDocumentImpl.cpp.obj
 0001:0004798b       ??_E?$BaseRefVectorOf@VDOMNodeIteratorImpl@xercesc_3_1@@@xercesc_3_1@@UAEPAXI@Z 1004898b f i * CIL library *:* CIL module *
 0001:000479bb       ??_E?$RefHash2KeysTableOfEnumerator@V?$KeyRefPair@XVDOMUserDataHandler@xercesc_3_1@@@xercesc_3_1@@UPtrHasher@2@@xercesc_3_1@@UAEPAXI@Z 100489bb f i * CIL library *:* CIL module *
 0001:000479bb       ??_G?$RefHash2KeysTableOfEnumerator@V?$KeyRefPair@XVDOMUserDataHandler@xercesc_3_1@@@xercesc_3_1@@UPtrHasher@2@@xercesc_3_1@@UAEPAXI@Z 100489bb f i xerces-c_3_1:DOMDocumentImpl.cpp.obj
 0001:000479ec       ??_G?$RefVectorOf@VDOMBuffer@xercesc_3_1@@@xercesc_3_1@@UAEPAXI@Z 100489ec f i xerces-c_3_1:DOMDocumentImpl.cpp.obj
 0001:000479ec       ??_E?$RefVectorOf@VDOMBuffer@xercesc_3_1@@@xercesc_3_1@@UAEPAXI@Z 100489ec f i * CIL library *:* CIL module *
 0001:00047a1d       ??_G?$BaseRefVectorOf@VDOMBuffer@xercesc_3_1@@@xercesc_3_1@@UAEPAXI@Z 10048a1d f i xerces-c_3_1:DOMDocumentImpl.cpp.obj
 0001:00047a1d       ??_E?$BaseRefVectorOf@VDOMBuffer@xercesc_3_1@@@xercesc_3_1@@UAEPAXI@Z 10048a1d f i * CIL library *:* CIL module *
 0001:00047a4d       ??_G?$ValueVectorEnumerator@H@xercesc_3_1@@UAEPAXI@Z 10048a4d f i xerces-c_3_1:DOMDocumentImpl.cpp.obj
 0001:00047a4d       ??_E?$ValueVectorEnumerator@H@xercesc_3_1@@UAEPAXI@Z 10048a4d f i * CIL library *:* CIL module *
 0001:00047a7e       ??_G?$RefVectorOf@VDOMNode@xercesc_3_1@@@xercesc_3_1@@UAEPAXI@Z 10048a7e f i xerces-c_3_1:DOMDocumentImpl.cpp.obj
 0001:00047a7e       ??_E?$RefVectorOf@VDOMNode@xercesc_3_1@@@xercesc_3_1@@UAEPAXI@Z 10048a7e f i * CIL library *:* CIL module *
 0001:00047aaf       ??_G?$BaseRefVectorOf@VDOMNode@xercesc_3_1@@@xercesc_3_1@@UAEPAXI@Z 10048aaf f i xerces-c_3_1:DOMDocumentImpl.cpp.obj
 0001:00047aaf       ??_E?$BaseRefVectorOf@VDOMNode@xercesc_3_1@@@xercesc_3_1@@UAEPAXI@Z 10048aaf f i * CIL library *:* CIL module *
 0001:00047adf       ?findBucketElem@?$RefHash2KeysTableOf@V?$KeyRefPair@XVDOMUserDataHandler@xercesc_3_1@@@xercesc_3_1@@UPtrHasher@2@@xercesc_3_1@@AAEPAU?$RefHash2KeysTableBucketElem@V?$KeyRefPair@XVDOMUserDataHandler@xercesc_3_1@@@xercesc_3_1@@@2@QBXHAAK@Z 10048adf f i xerces-c_3_1:DOMDocumentImpl.cpp.obj
 0001:00047adf       ?findBucketElem@?$RefHash2KeysTableOf@VValueStore@xercesc_3_1@@UPtrHasher@2@@xercesc_3_1@@AAEPAU?$RefHash2KeysTableBucketElem@VValueStore@xercesc_3_1@@@2@QBXHAAK@Z 10048adf f i xerces-c_3_1:IdentityConstraintHandler.cpp.obj
 0001:00047b17       ?rehash@?$RefHash2KeysTableOf@VValueStore@xercesc_3_1@@UPtrHasher@2@@xercesc_3_1@@AAEXXZ 10048b17 f i xerces-c_3_1:ValueStoreCache.cpp.obj
 0001:00047b17       ?rehash@?$RefHash2KeysTableOf@V?$KeyRefPair@XVDOMUserDataHandler@xercesc_3_1@@@xercesc_3_1@@UPtrHasher@2@@xercesc_3_1@@AAEXXZ 10048b17 f i xerces-c_3_1:DOMDocumentImpl.cpp.obj
 0001:00047bbf       ?removeAll@?$DOMDeepNodeListPool@VDOMDeepNodeListImpl@xercesc_3_1@@UPtrHasher@2@@xercesc_3_1@@QAEXXZ 10048bbf f i xerces-c_3_1:DOMDocumentImpl.cpp.obj
 0001:00047c32       ?findBucketElem@?$DOMDeepNodeListPool@VDOMDeepNodeListImpl@xercesc_3_1@@UPtrHasher@2@@xercesc_3_1@@AAEPAU?$DOMDeepNodeListPoolTableBucketElem@VDOMDeepNodeListImpl@xercesc_3_1@@@2@QBXQB_W1AAK@Z 10048c32 f i xerces-c_3_1:DOMDocumentImpl.cpp.obj
 0001:00047caf       ?findNext@?$RefHash2KeysTableOfEnumerator@V?$KeyRefPair@XVDOMUserDataHandler@xercesc_3_1@@@xercesc_3_1@@UPtrHasher@2@@xercesc_3_1@@AAEXXZ 10048caf f i xerces-c_3_1:DOMDocumentImpl.cpp.obj
 0001:00047d44       ?orphanElementAt@?$BaseRefVectorOf@VDOMNode@xercesc_3_1@@@xercesc_3_1@@QAEPAVDOMNode@2@K@Z 10048d44 f i xerces-c_3_1:DOMDocumentImpl.cpp.obj
 0001:00047d44       ?orphanElementAt@?$BaseRefVectorOf@VXMLReader@xercesc_3_1@@@xercesc_3_1@@QAEPAVXMLReader@2@K@Z 10048d44 f i xerces-c_3_1:ReaderMgr.cpp.obj
 0001:00047d44       ?orphanElementAt@?$BaseRefVectorOf@VScope@InScopeNamespaces@DOMNormalizer@xercesc_3_1@@@xercesc_3_1@@QAEPAVScope@InScopeNamespaces@DOMNormalizer@2@K@Z 10048d44 f i xerces-c_3_1:DOMNormalizer.cpp.obj
 0001:00047d44       ?orphanElementAt@?$BaseRefVectorOf@V?$RefHashTableOf@VValueStore@xercesc_3_1@@UPtrHasher@2@@xercesc_3_1@@@xercesc_3_1@@QAEPAV?$RefHashTableOf@VValueStore@xercesc_3_1@@UPtrHasher@2@@2@K@Z 10048d44 f i xerces-c_3_1:ValueStoreCache.cpp.obj
 0001:00047d44       ?orphanElementAt@?$BaseRefVectorOf@VDOMBuffer@xercesc_3_1@@@xercesc_3_1@@QAEPAVDOMBuffer@2@K@Z 10048d44 f i xerces-c_3_1:DOMDocumentImpl.cpp.obj
 0001:00047d44       ?orphanElementAt@?$BaseRefVectorOf@VXMLEntityDecl@xercesc_3_1@@@xercesc_3_1@@QAEPAVXMLEntityDecl@2@K@Z 10048d44 f i xerces-c_3_1:ReaderMgr.cpp.obj
 0001:00047dbc       ?elementAt@?$ValueVectorOf@H@xercesc_3_1@@QAEAAHK@Z 10048dbc f i xerces-c_3_1:DOMDocumentImpl.cpp.obj
 0001:00047dbc       ?elementAt@?$ValueVectorOf@PAVSchemaElementDecl@xercesc_3_1@@@xercesc_3_1@@QAEAAPAVSchemaElementDecl@2@K@Z 10048dbc f i xerces-c_3_1:XTemplateSerializer.cpp.obj
 0001:00047dbc       ?elementAt@?$ValueVectorOf@PAVXMLAttr@xercesc_3_1@@@xercesc_3_1@@QAEAAPAVXMLAttr@2@K@Z 10048dbc f i xerces-c_3_1:WFXMLScanner.cpp.obj
 0001:00047dbc       ?elementAt@?$ValueVectorOf@PAUPrefMapElem@xercesc_3_1@@@xercesc_3_1@@QAEAAPAUPrefMapElem@2@K@Z 10048dbc f i xerces-c_3_1:XSDDOMParser.cpp.obj
 0001:00047dbc       ?elementAt@?$ValueVectorOf@K@xercesc_3_1@@QAEAAKK@Z 10048dbc f i xerces-c_3_1:WFXMLScanner.cpp.obj
 0001:00047dbc       ?elementAt@?$ValueVectorOf@I@xercesc_3_1@@QAEAAIK@Z 10048dbc f i xerces-c_3_1:SGXMLScanner.cpp.obj
 0001:00047dbc       ?elementAt@?$ValueVectorOf@_N@xercesc_3_1@@QAEAA_NK@Z 10048dbc f i xerces-c_3_1:SGXMLScanner.cpp.obj
 0001:00047dbc       ?elementAt@?$ValueVectorOf@PAX@xercesc_3_1@@QAEAAPAXK@Z 10048dbc f i xerces-c_3_1:XSerializeEngine.cpp.obj
 0001:00047dbc       ?elementAt@?$ValueVectorOf@PA_W@xercesc_3_1@@QAEAAPA_WK@Z 10048dbc f i xerces-c_3_1:GrammarResolver.cpp.obj
 0001:00047dbc       ?elementAt@?$ValueVectorOf@PAVQName@xercesc_3_1@@@xercesc_3_1@@QAEAAPAVQName@2@K@Z 10048dbc f i xerces-c_3_1:MixedContentModel.cpp.obj
 0001:00047dbc       ?elementAt@?$ValueVectorOf@PAVDOMNode@xercesc_3_1@@@xercesc_3_1@@QAEAAPAVDOMNode@2@K@Z 10048dbc f i xerces-c_3_1:TraverseSchema.cpp.obj
 0001:00047dea       ??0?$RefVectorOf@VDOMNode@xercesc_3_1@@@xercesc_3_1@@QAE@K_NQAVMemoryManager@1@@Z 10048dea f i xerces-c_3_1:DOMDocumentImpl.cpp.obj
 0001:00047e41       ??_EDOMDocumentImpl@xercesc_3_1@@WBA@AEPAXI@Z 10048e41 f i xerces-c_3_1:DOMDocumentImpl.cpp.obj
 0001:00047e49       ??_EDOMDocument@xercesc_3_1@@WM@AEPAXI@Z 10048e49 f i xerces-c_3_1:DOMDocumentImpl.cpp.obj
 0001:00047e51       ??_EDOMDocumentImpl@xercesc_3_1@@W3AEPAXI@Z 10048e51 f i xerces-c_3_1:DOMDocumentImpl.cpp.obj
 0001:00047e59       ??_9DOMXPathExpression@xercesc_3_1@@$B7AE 10048e59 f i xerces-c_3_1:DOMDocumentImpl.cpp.obj
 0001:00047e5e       ??_EDOMDocumentImpl@xercesc_3_1@@W7AEPAXI@Z 10048e5e f i xerces-c_3_1:DOMDocumentImpl.cpp.obj
 0001:00047e66       ??_EDOMDocument@xercesc_3_1@@W3AEPAXI@Z 10048e66 f i xerces-c_3_1:DOMDocumentImpl.cpp.obj
 0001:00047e6e       ??_EDOMDocumentImpl@xercesc_3_1@@WM@AEPAXI@Z 10048e6e f i xerces-c_3_1:DOMDocumentImpl.cpp.obj
 0001:00047e76       ??_EDOMDocument@xercesc_3_1@@W7AEPAXI@Z 10048e76 f i xerces-c_3_1:DOMDocumentImpl.cpp.obj
 0001:00047e7e       ?initializeStaticData@XMLInitializer@xercesc_3_1@@KAXXZ 10048e7e f   xerces-c_3_1:XMLInitializer.cpp.obj
 0001:000481c0       ?terminateStaticData@XMLInitializer@xercesc_3_1@@KAXXZ 100491c0 f   xerces-c_3_1:XMLInitializer.cpp.obj
 0001:00048423       ??0XMLMutex@xercesc_3_1@@QAE@QAVMemoryManager@1@@Z 10049423 f   xerces-c_3_1:Mutexes.cpp.obj
 0001:0004845b       ??1XMLMutex@xercesc_3_1@@QAE@XZ 1004945b f   xerces-c_3_1:Mutexes.cpp.obj
 0001:000484b3       ??0XMLMutexLock@xercesc_3_1@@QAE@QAVXMLMutex@1@@Z 100494b3 f   xerces-c_3_1:Mutexes.cpp.obj
 0001:000484e1       ??1XMLMutexLock@xercesc_3_1@@QAE@XZ 100494e1 f   xerces-c_3_1:Mutexes.cpp.obj
 0001:00048500       ?setLocale@XMLMsgLoader@xercesc_3_1@@SAXQBD@Z 10049500 f   xerces-c_3_1:XMLMsgLoader.cpp.obj
 0001:00048556       ?setNLSHome@XMLMsgLoader@xercesc_3_1@@SAXQBD@Z 10049556 f   xerces-c_3_1:XMLMsgLoader.cpp.obj
 0001:00048574       ??1XMLException@xercesc_3_1@@UAE@XZ 10049574 f   xerces-c_3_1:XMLException.cpp.obj
 0001:000485b8       ??_GXMLException@xercesc_3_1@@UAEPAXI@Z 100495b8 f i xerces-c_3_1:XMLException.cpp.obj
 0001:000485b8       ??_EXMLException@xercesc_3_1@@UAEPAXI@Z 100495b8 f i * CIL library *:* CIL module *
 0001:000485e9       ??0XMLException@xercesc_3_1@@QAE@QBD_KQAVMemoryManager@1@@Z 100495e9 f   xerces-c_3_1:XMLException.cpp.obj
 0001:00048638       ??0XMLException@xercesc_3_1@@QAE@ABV01@@Z 10049638 f   xerces-c_3_1:XMLException.cpp.obj
 0001:00048689       ?loadExceptText@XMLException@xercesc_3_1@@IAEXW4Codes@XMLExcepts@2@@Z 10049689 f   xerces-c_3_1:XMLException.cpp.obj
 0001:000486d6       ?loadExceptText@XMLException@xercesc_3_1@@IAEXW4Codes@XMLExcepts@2@QB_W111@Z 100496d6 f   xerces-c_3_1:XMLException.cpp.obj
 0001:00048731       ?loadExceptText@XMLException@xercesc_3_1@@IAEXW4Codes@XMLExcepts@2@QBD111@Z 10049731 f   xerces-c_3_1:XMLException.cpp.obj
 0001:0004878c       ??1XMLMsgLoader@xercesc_3_1@@UAE@XZ 1004978c f i xerces-c_3_1:InMemMsgLoader.cpp.obj
 0001:00048793       ??_GXMLMsgLoader@xercesc_3_1@@UAEPAXI@Z 10049793 f i xerces-c_3_1:InMemMsgLoader.cpp.obj
 0001:00048793       ??_EXMLMsgLoader@xercesc_3_1@@UAEPAXI@Z 10049793 f i * CIL library *:* CIL module *
 0001:000487c3       ??0InMemMsgLoader@xercesc_3_1@@QAE@QB_W@Z 100497c3 f   xerces-c_3_1:InMemMsgLoader.cpp.obj
 0001:00048850       ??_EInMemMsgLoader@xercesc_3_1@@UAEPAXI@Z 10049850 f i * CIL library *:* CIL module *
 0001:00048850       ??_GInMemMsgLoader@xercesc_3_1@@UAEPAXI@Z 10049850 f i xerces-c_3_1:InMemMsgLoader.cpp.obj
 0001:000488b9       ?loadMsg@InMemMsgLoader@xercesc_3_1@@UAE_NIQA_WK@Z 100498b9 f   xerces-c_3_1:InMemMsgLoader.cpp.obj
 0001:00048990       ?loadMsg@InMemMsgLoader@xercesc_3_1@@UAE_NIQA_WKQB_W111QAVMemoryManager@2@@Z 10049990 f   xerces-c_3_1:InMemMsgLoader.cpp.obj
 0001:000489c8       ?loadMsg@InMemMsgLoader@xercesc_3_1@@UAE_NIQA_WKQBD111QAVMemoryManager@2@@Z 100499c8 f   xerces-c_3_1:InMemMsgLoader.cpp.obj
 0001:00048a98       ?panic@DefaultPanicHandler@xercesc_3_1@@UAEXW4PanicReasons@PanicHandler@2@@Z 10049a98 f   xerces-c_3_1:DefaultPanicHandler.cpp.obj
 0001:00048ac2       ??_EXMLMutexMgr@xercesc_3_1@@UAEPAXI@Z 10049ac2 f i * CIL library *:* CIL module *
 0001:00048ac2       ??_GWindowsMutexMgr@xercesc_3_1@@UAEPAXI@Z 10049ac2 f i xerces-c_3_1:WindowsMutexMgr.cpp.obj
 0001:00048ac2       ??_EWindowsMutexMgr@xercesc_3_1@@UAEPAXI@Z 10049ac2 f i * CIL library *:* CIL module *
 0001:00048ac2       ??_GXMLMutexMgr@xercesc_3_1@@UAEPAXI@Z 10049ac2 f i xerces-c_3_1:WindowsMutexMgr.cpp.obj
 0001:00048af2       ?create@WindowsMutexMgr@xercesc_3_1@@UAEPAXQAVMemoryManager@2@@Z 10049af2 f   xerces-c_3_1:WindowsMutexMgr.cpp.obj
 0001:00048b10       ?destroy@WindowsMutexMgr@xercesc_3_1@@UAEXPAXQAVMemoryManager@2@@Z 10049b10 f   xerces-c_3_1:WindowsMutexMgr.cpp.obj
 0001:00048b2b       ?lock@WindowsMutexMgr@xercesc_3_1@@UAEXPAX@Z 10049b2b f   xerces-c_3_1:WindowsMutexMgr.cpp.obj
 0001:00048b31       ?unlock@WindowsMutexMgr@xercesc_3_1@@UAEXPAX@Z 10049b31 f   xerces-c_3_1:WindowsMutexMgr.cpp.obj
 0001:00048b37       ??_EXMLFileMgr@xercesc_3_1@@UAEPAXI@Z 10049b37 f i * CIL library *:* CIL module *
 0001:00048b37       ??_GXMLFileMgr@xercesc_3_1@@UAEPAXI@Z 10049b37 f i xerces-c_3_1:WindowsFileMgr.cpp.obj
 0001:00048b67       ??0XMLPlatformUtilsException@xercesc_3_1@@QAE@QBD_KW4Codes@XMLExcepts@1@QB_W333PAVMemoryManager@1@@Z 10049b67 f i xerces-c_3_1:WindowsFileMgr.cpp.obj
 0001:00048bb8       ??_GWindowsFileMgr@xercesc_3_1@@UAEPAXI@Z 10049bb8 f i xerces-c_3_1:WindowsFileMgr.cpp.obj
 0001:00048bb8       ??_EWindowsFileMgr@xercesc_3_1@@UAEPAXI@Z 10049bb8 f i * CIL library *:* CIL module *
 0001:00048be8       ?fileOpen@WindowsFileMgr@xercesc_3_1@@UAEPAXPB_W_NQAVMemoryManager@2@@Z 10049be8 f   xerces-c_3_1:WindowsFileMgr.cpp.obj
 0001:00048d96       ?fileOpen@WindowsFileMgr@xercesc_3_1@@UAEPAXPBD_NQAVMemoryManager@2@@Z 10049d96 f   xerces-c_3_1:WindowsFileMgr.cpp.obj
 0001:00048e10       ?openStdIn@WindowsFileMgr@xercesc_3_1@@UAEPAXQAVMemoryManager@2@@Z 10049e10 f   xerces-c_3_1:WindowsFileMgr.cpp.obj
 0001:00048ed2       ?fileClose@WindowsFileMgr@xercesc_3_1@@UAEXPAXQAVMemoryManager@2@@Z 10049ed2 f   xerces-c_3_1:WindowsFileMgr.cpp.obj
 0001:00048f42       ?fileReset@WindowsFileMgr@xercesc_3_1@@UAEXPAXQAVMemoryManager@2@@Z 10049f42 f   xerces-c_3_1:WindowsFileMgr.cpp.obj
 0001:00048fba       ?curPos@WindowsFileMgr@xercesc_3_1@@UAE_KPAXQAVMemoryManager@2@@Z 10049fba f   xerces-c_3_1:WindowsFileMgr.cpp.obj
 0001:00049058       ?fileSize@WindowsFileMgr@xercesc_3_1@@UAE_KPAXQAVMemoryManager@2@@Z 1004a058 f   xerces-c_3_1:WindowsFileMgr.cpp.obj
 0001:000490ea       ?fileRead@WindowsFileMgr@xercesc_3_1@@UAEKPAXKPAEQAVMemoryManager@2@@Z 1004a0ea f   xerces-c_3_1:WindowsFileMgr.cpp.obj
 0001:00049182       ?fileWrite@WindowsFileMgr@xercesc_3_1@@UAEXPAXKPBEQAVMemoryManager@2@@Z 1004a182 f   xerces-c_3_1:WindowsFileMgr.cpp.obj
 0001:0004921d       ?getFullPath@WindowsFileMgr@xercesc_3_1@@UAEPA_WQB_WQAVMemoryManager@2@@Z 1004a21d f   xerces-c_3_1:WindowsFileMgr.cpp.obj
 0001:000492fd       ?getCurrentDirectory@WindowsFileMgr@xercesc_3_1@@UAEPA_WQAVMemoryManager@2@@Z 1004a2fd f   xerces-c_3_1:WindowsFileMgr.cpp.obj
 0001:00049365       ?isRelative@WindowsFileMgr@xercesc_3_1@@UAE_NQB_WQAVMemoryManager@2@@Z 1004a365 f   xerces-c_3_1:WindowsFileMgr.cpp.obj
 0001:000493b6       ?setXMLVersion@XMLReader@xercesc_3_1@@QAEXW4XMLVersion@12@@Z 1004a3b6 f i xerces-c_3_1:XMLReader.cpp.obj
 0001:000493ee       ??0RuntimeException@xercesc_3_1@@QAE@QBD_KW4Codes@XMLExcepts@1@QB_W333PAVMemoryManager@1@@Z 1004a3ee f i xerces-c_3_1:XMLReader.cpp.obj
 0001:0004943e       ?isAllSpaces@XMLReader@xercesc_3_1@@QBE_NQB_WK@Z 1004a43e f   xerces-c_3_1:XMLReader.cpp.obj
 0001:00049470       ?containsWhiteSpace@XMLReader@xercesc_3_1@@QBE_NQB_WK@Z 1004a470 f   xerces-c_3_1:XMLReader.cpp.obj
 0001:000494a2       ??0XMLReader@xercesc_3_1@@QAE@QB_W0QAVBinInputStream@1@W4RefFrom@01@W4Types@01@W4Sources@01@_N5KW4XMLVersion@01@QAVMemoryManager@1@@Z 1004a4a2 f   xerces-c_3_1:XMLReader.cpp.obj
 0001:000495ea       ??0XMLReader@xercesc_3_1@@QAE@QB_W0QAVBinInputStream@1@0W4RefFrom@01@W4Types@01@W4Sources@01@_N5KW4XMLVersion@01@QAVMemoryManager@1@@Z 1004a5ea f   xerces-c_3_1:XMLReader.cpp.obj
 0001:000498f5       ??0XMLReader@xercesc_3_1@@QAE@QB_W0QAVBinInputStream@1@W4Encodings@XMLRecognizer@1@W4RefFrom@01@W4Types@01@W4Sources@01@_N6KW4XMLVersion@01@QAVMemoryManager@1@@Z 1004a8f5 f   xerces-c_3_1:XMLReader.cpp.obj
 0001:00049af2       ?getSrcOffset@XMLReader@xercesc_3_1@@QBE_KXZ 1004aaf2 f   xerces-c_3_1:XMLReader.cpp.obj
 0001:00049b92       ?refreshCharBuffer@XMLReader@xercesc_3_1@@QAE_NXZ 1004ab92 f   xerces-c_3_1:XMLReader.cpp.obj
 0001:00049d77       ?getName@XMLReader@xercesc_3_1@@QAE_NAAVXMLBuffer@2@_N@Z 1004ad77 f   xerces-c_3_1:XMLReader.cpp.obj
 0001:00049ee2       ?getNCName@XMLReader@xercesc_3_1@@QAE_NAAVXMLBuffer@2@@Z 1004aee2 f   xerces-c_3_1:XMLReader.cpp.obj
 0001:0004a075       ?getSpaces@XMLReader@xercesc_3_1@@QAE_NAAVXMLBuffer@2@@Z 1004b075 f   xerces-c_3_1:XMLReader.cpp.obj
 0001:0004a0ee       ?getUpToCharOrWS@XMLReader@xercesc_3_1@@QAE_NAAVXMLBuffer@2@_W@Z 1004b0ee f   xerces-c_3_1:XMLReader.cpp.obj
 0001:0004a171       ?skipSpaces@XMLReader@xercesc_3_1@@QAE_NAA_N_N@Z 1004b171 f   xerces-c_3_1:XMLReader.cpp.obj
 0001:0004a1eb       ?skippedString@XMLReader@xercesc_3_1@@QAE_NQB_W@Z 1004b1eb f   xerces-c_3_1:XMLReader.cpp.obj
 0001:0004a279       ?skippedStringLong@XMLReader@xercesc_3_1@@QAE_NPB_W@Z 1004b279 f   xerces-c_3_1:XMLReader.cpp.obj
 0001:0004a336       ?setEncoding@XMLReader@xercesc_3_1@@QAE_NQB_W@Z 1004b336 f   xerces-c_3_1:XMLReader.cpp.obj
 0001:0004a5a1       ?checkForSwapped@XMLReader@xercesc_3_1@@AAEXXZ 1004b5a1 f   xerces-c_3_1:XMLReader.cpp.obj
 0001:0004a5d3       ?doInitDecode@XMLReader@xercesc_3_1@@AAEXXZ 1004b5d3 f   xerces-c_3_1:XMLReader.cpp.obj
 0001:0004ad8b       ?refreshRawBuffer@XMLReader@xercesc_3_1@@AAEXXZ 1004bd8b f   xerces-c_3_1:XMLReader.cpp.obj
 0001:0004ae2c       ?xcodeMoreChars@XMLReader@xercesc_3_1@@AAEKQA_WQAEK@Z 1004be2c f   xerces-c_3_1:XMLReader.cpp.obj
 0001:0004aec1       ?handleEOL@XMLReader@xercesc_3_1@@AAEXAA_W_N@Z 1004bec1 f   xerces-c_3_1:XMLReader.cpp.obj
 0001:0004b005       ??0XMLBuffer@xercesc_3_1@@QAE@KQAVMemoryManager@1@@Z 1004c005 f i xerces-c_3_1:GrammarResolver.cpp.obj
 0001:0004b043       ??1XMLBuffer@xercesc_3_1@@QAE@XZ 1004c043 f i xerces-c_3_1:GrammarResolver.cpp.obj
 0001:0004b074       ?getDatatypeValidator@DatatypeValidatorFactory@xercesc_3_1@@QBEPAVDatatypeValidator@2@QB_W@Z 1004c074 f i xerces-c_3_1:GrammarResolver.cpp.obj
 0001:0004b100       ??0GrammarResolver@xercesc_3_1@@QAE@QAVXMLGrammarPool@1@QAVMemoryManager@1@@Z 1004c100 f   xerces-c_3_1:GrammarResolver.cpp.obj
 0001:0004b23c       ??1GrammarResolver@xercesc_3_1@@QAE@XZ 1004c23c f   xerces-c_3_1:GrammarResolver.cpp.obj
 0001:0004b2d2       ??_G?$RefHashTableOf@VGrammar@xercesc_3_1@@UStringHasher@2@@xercesc_3_1@@QAEPAXI@Z 1004c2d2 f i xerces-c_3_1:GrammarResolver.cpp.obj
 0001:0004b2d2       ??_G?$RefHashTableOf@VDatatypeValidator@xercesc_3_1@@UStringHasher@2@@xercesc_3_1@@QAEPAXI@Z 1004c2d2 f i xerces-c_3_1:DatatypeValidatorFactory.cpp.obj
 0001:0004b2d2       ??_G?$RefHashTableOf@VXMLRefInfo@xercesc_3_1@@UStringHasher@2@@xercesc_3_1@@QAEPAXI@Z 1004c2d2 f i xerces-c_3_1:XMLScanner.cpp.obj
 0001:0004b31c       ??_GXSModel@xercesc_3_1@@QAEPAXI@Z 1004c31c f i xerces-c_3_1:GrammarResolver.cpp.obj
 0001:0004b331       ?getDatatypeValidator@GrammarResolver@xercesc_3_1@@QAEPAVDatatypeValidator@2@QB_W0@Z 1004c331 f   xerces-c_3_1:GrammarResolver.cpp.obj
 0001:0004b444       ?getGrammar@GrammarResolver@xercesc_3_1@@QAEPAVGrammar@2@QB_W@Z 1004c444 f   xerces-c_3_1:GrammarResolver.cpp.obj
 0001:0004b4f1       ?getGrammar@GrammarResolver@xercesc_3_1@@QAEPAVGrammar@2@QAVXMLGrammarDescription@2@@Z 1004c4f1 f   xerces-c_3_1:GrammarResolver.cpp.obj
 0001:0004b579       ?putGrammar@GrammarResolver@xercesc_3_1@@QAEXQAVGrammar@2@@Z 1004c579 f   xerces-c_3_1:GrammarResolver.cpp.obj
 0001:0004b5d2       ?cacheGrammars@GrammarResolver@xercesc_3_1@@QAEXXZ 1004c5d2 f   xerces-c_3_1:GrammarResolver.cpp.obj
 0001:0004b6de       ?orphanGrammar@GrammarResolver@xercesc_3_1@@QAEPAVGrammar@2@QB_W@Z 1004c6de f   xerces-c_3_1:GrammarResolver.cpp.obj
 0001:0004b796       ?getXSModel@GrammarResolver@xercesc_3_1@@QAEPAVXSModel@2@XZ 1004c796 f   xerces-c_3_1:GrammarResolver.cpp.obj
 0001:0004b9e2       ??1?$XMLEnumerator@VGrammar@xercesc_3_1@@@xercesc_3_1@@UAE@XZ 1004c9e2 f i xerces-c_3_1:GrammarResolver.cpp.obj
 0001:0004b9e9       ??_E?$XMLEnumerator@VGrammar@xercesc_3_1@@@xercesc_3_1@@UAEPAXI@Z 1004c9e9 f i * CIL library *:* CIL module *
 0001:0004b9e9       ??_G?$XMLEnumerator@VGrammar@xercesc_3_1@@@xercesc_3_1@@UAEPAXI@Z 1004c9e9 f i xerces-c_3_1:GrammarResolver.cpp.obj
 0001:0004ba0c       ?get@?$RefHashTableOf@VKVStringPair@xercesc_3_1@@UStringHasher@2@@xercesc_3_1@@QAEPAVKVStringPair@2@QBX@Z 1004ca0c f i xerces-c_3_1:DOMXPathNSResolverImpl.cpp.obj
 0001:0004ba0c       ?get@?$RefHashTableOf@VComplexTypeInfo@xercesc_3_1@@UStringHasher@2@@xercesc_3_1@@QAEPAVComplexTypeInfo@2@QBX@Z 1004ca0c f i xerces-c_3_1:XTemplateSerializer.cpp.obj
 0001:0004ba0c       ?get@?$RefHashTableOf@VDatatypeValidator@xercesc_3_1@@UStringHasher@2@@xercesc_3_1@@QAEPAVDatatypeValidator@2@QBX@Z 1004ca0c f i xerces-c_3_1:GrammarResolver.cpp.obj
 0001:0004ba2a       ??0?$RefHashTableOfEnumerator@VGrammar@xercesc_3_1@@UStringHasher@2@@xercesc_3_1@@QAE@QAV?$RefHashTableOf@VGrammar@xercesc_3_1@@UStringHasher@2@@1@_NQAVMemoryManager@1@@Z 1004ca2a f i xerces-c_3_1:GrammarResolver.cpp.obj
 0001:0004ba9a       ??1?$RefHashTableOfEnumerator@VGrammar@xercesc_3_1@@UStringHasher@2@@xercesc_3_1@@UAE@XZ 1004ca9a f i xerces-c_3_1:GrammarResolver.cpp.obj
 0001:0004babe       ?nextElement@?$RefHashTableOfEnumerator@VGrammar@xercesc_3_1@@UStringHasher@2@@xercesc_3_1@@UAEAAVGrammar@2@XZ 1004cabe f i xerces-c_3_1:GrammarResolver.cpp.obj
 0001:0004babe       ?nextElement@?$RefHashTableOfEnumerator@_WUStringHasher@xercesc_3_1@@@xercesc_3_1@@UAEAA_WXZ 1004cabe f i xerces-c_3_1:DOMNormalizer.cpp.obj
 0001:0004babe       ?nextElement@?$RefHashTableOfEnumerator@VXMLRefInfo@xercesc_3_1@@UStringHasher@2@@xercesc_3_1@@UAEAAVXMLRefInfo@2@XZ 1004cabe f i xerces-c_3_1:XMLScanner.cpp.obj
 0001:0004bb09       ?Reset@?$RefHashTableOfEnumerator@VKVStringPair@xercesc_3_1@@UStringHasher@2@@xercesc_3_1@@UAEXXZ 1004cb09 f i xerces-c_3_1:DOMXPathNSResolverImpl.cpp.obj
 0001:0004bb09       ?Reset@?$RefHashTableOfEnumerator@VDTDAttDef@xercesc_3_1@@UStringHasher@2@@xercesc_3_1@@UAEXXZ 1004cb09 f i xerces-c_3_1:XTemplateSerializer.cpp.obj
 0001:0004bb09       ?Reset@?$RefHashTableOfEnumerator@VGrammar@xercesc_3_1@@UStringHasher@2@@xercesc_3_1@@UAEXXZ 1004cb09 f i xerces-c_3_1:GrammarResolver.cpp.obj
 0001:0004bb09       ?Reset@?$RefHashTableOfEnumerator@VXercesAttGroupInfo@xercesc_3_1@@UStringHasher@2@@xercesc_3_1@@UAEXXZ 1004cb09 f i xerces-c_3_1:XSModel.cpp.obj
 0001:0004bb09       ?Reset@?$RefHashTableOfEnumerator@_WUStringHasher@xercesc_3_1@@@xercesc_3_1@@UAEXXZ 1004cb09 f i xerces-c_3_1:DOMNormalizer.cpp.obj
 0001:0004bb09       ?Reset@?$RefHashTableOfEnumerator@VXercesGroupInfo@xercesc_3_1@@UStringHasher@2@@xercesc_3_1@@UAEXXZ 1004cb09 f i xerces-c_3_1:XSModel.cpp.obj
 0001:0004bb09       ?Reset@?$RefHashTableOfEnumerator@VFieldValueMap@xercesc_3_1@@UICValueHasher@2@@xercesc_3_1@@UAEXXZ 1004cb09 f i xerces-c_3_1:ValueStore.cpp.obj
 0001:0004bb09       ?Reset@?$RefHashTableOfEnumerator@VValueStore@xercesc_3_1@@UPtrHasher@2@@xercesc_3_1@@UAEXXZ 1004cb09 f i xerces-c_3_1:ValueStoreCache.cpp.obj
 0001:0004bb09       ?Reset@?$RefHashTableOfEnumerator@VDatatypeValidator@xercesc_3_1@@UStringHasher@2@@xercesc_3_1@@UAEXXZ 1004cb09 f i xerces-c_3_1:XSModel.cpp.obj
 0001:0004bb09       ?Reset@?$RefHashTableOfEnumerator@VXSAnnotation@xercesc_3_1@@UPtrHasher@2@@xercesc_3_1@@UAEXXZ 1004cb09 f i xerces-c_3_1:XTemplateSerializer.cpp.obj
 0001:0004bb09       ?Reset@?$RefHashTableOfEnumerator@VXMLRefInfo@xercesc_3_1@@UStringHasher@2@@xercesc_3_1@@UAEXXZ 1004cb09 f i xerces-c_3_1:XMLScanner.cpp.obj
 0001:0004bb09       ?Reset@?$RefHashTableOfEnumerator@VXMLAttDef@xercesc_3_1@@UStringHasher@2@@xercesc_3_1@@UAEXXZ 1004cb09 f i xerces-c_3_1:XSModel.cpp.obj
 0001:0004bb09       ?Reset@?$RefHashTableOfEnumerator@VComplexTypeInfo@xercesc_3_1@@UStringHasher@2@@xercesc_3_1@@UAEXXZ 1004cb09 f i xerces-c_3_1:XSModel.cpp.obj
 0001:0004bb16       ?nextElementKey@?$RefHashTableOfEnumerator@VGrammar@xercesc_3_1@@UStringHasher@2@@xercesc_3_1@@QAEPAXXZ 1004cb16 f i xerces-c_3_1:GrammarResolver.cpp.obj
 0001:0004bb62       ??0?$RefHashTableOf@VGrammar@xercesc_3_1@@UStringHasher@2@@xercesc_3_1@@QAE@K_NQAVMemoryManager@1@@Z 1004cb62 f i xerces-c_3_1:GrammarResolver.cpp.obj
 0001:0004bbd5       ?removeKey@?$RefHashTableOf@VGrammar@xercesc_3_1@@UStringHasher@2@@xercesc_3_1@@QAEXQBX@Z 1004cbd5 f i xerces-c_3_1:GrammarResolver.cpp.obj
 0001:0004bc7c       ?removeAll@?$RefHashTableOf@VDatatypeValidator@xercesc_3_1@@UStringHasher@2@@xercesc_3_1@@QAEXXZ 1004cc7c f i xerces-c_3_1:DatatypeValidatorFactory.cpp.obj
 0001:0004bc7c       ?removeAll@?$RefHashTableOf@VGrammar@xercesc_3_1@@UStringHasher@2@@xercesc_3_1@@QAEXXZ 1004cc7c f i xerces-c_3_1:GrammarResolver.cpp.obj
 0001:0004bc7c       ?removeAll@?$RefHashTableOf@VDTDElementDecl@xercesc_3_1@@UStringHasher@2@@xercesc_3_1@@QAEXXZ 1004cc7c f i xerces-c_3_1:DTDGrammar.cpp.obj
 0001:0004bc7c       ?removeAll@?$RefHashTableOf@VDTDEntityDecl@xercesc_3_1@@UStringHasher@2@@xercesc_3_1@@QAEXXZ 1004cc7c f i xerces-c_3_1:DTDGrammar.cpp.obj
 0001:0004bc7c       ?removeAll@?$RefHashTableOf@VXMLNotationDecl@xercesc_3_1@@UStringHasher@2@@xercesc_3_1@@QAEXXZ 1004cc7c f i xerces-c_3_1:DTDGrammar.cpp.obj
 0001:0004bc7c       ?removeAll@?$RefHashTableOf@VXMLRefInfo@xercesc_3_1@@UStringHasher@2@@xercesc_3_1@@QAEXXZ 1004cc7c f i xerces-c_3_1:XMLScanner.cpp.obj
 0001:0004bc7c       ?removeAll@?$RefHashTableOf@VXMLElementDecl@xercesc_3_1@@UStringHasher@2@@xercesc_3_1@@QAEXXZ 1004cc7c f i xerces-c_3_1:WFXMLScanner.cpp.obj
 0001:0004bc7c       ?removeAll@?$RefHashTableOf@VXSAnnotation@xercesc_3_1@@UPtrHasher@2@@xercesc_3_1@@QAEXXZ 1004cc7c f i xerces-c_3_1:XTemplateSerializer.cpp.obj
 0001:0004bcdb       ?orphanKey@?$RefHashTableOf@VGrammar@xercesc_3_1@@UStringHasher@2@@xercesc_3_1@@QAEPAVGrammar@2@QBX@Z 1004ccdb f i xerces-c_3_1:GrammarResolver.cpp.obj
 0001:0004bd76       ?put@?$RefHashTableOf@VRangeFactory@xercesc_3_1@@UStringHasher@2@@xercesc_3_1@@QAEXPAXQAVRangeFactory@2@@Z 1004cd76 f i xerces-c_3_1:RangeTokenMap.cpp.obj
 0001:0004bd76       ?put@?$RefHashTableOf@VGrammar@xercesc_3_1@@UStringHasher@2@@xercesc_3_1@@QAEXPAXQAVGrammar@2@@Z 1004cd76 f i xerces-c_3_1:GrammarResolver.cpp.obj
 0001:0004bd76       ?put@?$RefHashTableOf@VDTDElementDecl@xercesc_3_1@@UStringHasher@2@@xercesc_3_1@@QAEXPAXQAVDTDElementDecl@2@@Z 1004cd76 f i xerces-c_3_1:DTDGrammar.cpp.obj
 0001:0004bd76       ?put@?$RefHashTableOf@VXercesAttGroupInfo@xercesc_3_1@@UStringHasher@2@@xercesc_3_1@@QAEXPAXQAVXercesAttGroupInfo@2@@Z 1004cd76 f i xerces-c_3_1:XTemplateSerializer.cpp.obj
 0001:0004bd76       ?put@?$RefHashTableOf@VDatatypeValidator@xercesc_3_1@@UStringHasher@2@@xercesc_3_1@@QAEXPAXQAVDatatypeValidator@2@@Z 1004cd76 f i xerces-c_3_1:DatatypeValidatorFactory.cpp.obj
 0001:0004bd76       ?put@?$RefHashTableOf@VXSObject@xercesc_3_1@@UStringHasher@2@@xercesc_3_1@@QAEXPAXQAVXSObject@2@@Z 1004cd76 f i xerces-c_3_1:XSModel.cpp.obj
 0001:0004bd76       ?put@?$RefHashTableOf@VXMLNotationDecl@xercesc_3_1@@UStringHasher@2@@xercesc_3_1@@QAEXPAXQAVXMLNotationDecl@2@@Z 1004cd76 f i xerces-c_3_1:DTDGrammar.cpp.obj
 0001:0004bd76       ?put@?$RefHashTableOf@VXMLAttDef@xercesc_3_1@@UStringHasher@2@@xercesc_3_1@@QAEXPAXQAVXMLAttDef@2@@Z 1004cd76 f i xerces-c_3_1:XTemplateSerializer.cpp.obj
 0001:0004bd76       ?put@?$RefHashTableOf@VDOMElement@xercesc_3_1@@UStringHasher@2@@xercesc_3_1@@QAEXPAXQAVDOMElement@2@@Z 1004cd76 f i xerces-c_3_1:SchemaInfo.cpp.obj
 0001:0004bd76       ?put@?$RefHashTableOf@VXMLRefInfo@xercesc_3_1@@UStringHasher@2@@xercesc_3_1@@QAEXPAXQAVXMLRefInfo@2@@Z 1004cd76 f i xerces-c_3_1:ValidationContextImpl.cpp.obj
 0001:0004bd76       ?put@?$RefHashTableOf@VKVStringPair@xercesc_3_1@@UStringHasher@2@@xercesc_3_1@@QAEXPAXQAVKVStringPair@2@@Z 1004cd76 f i xerces-c_3_1:DOMXPathNSResolverImpl.cpp.obj
 0001:0004bd76       ?put@?$RefHashTableOf@VDTDEntityDecl@xercesc_3_1@@UStringHasher@2@@xercesc_3_1@@QAEXPAXQAVDTDEntityDecl@2@@Z 1004cd76 f i xerces-c_3_1:DTDGrammar.cpp.obj
 0001:0004bd76       ?put@?$RefHashTableOf@VDTDAttDef@xercesc_3_1@@UStringHasher@2@@xercesc_3_1@@QAEXPAXQAVDTDAttDef@2@@Z 1004cd76 f i xerces-c_3_1:XTemplateSerializer.cpp.obj
 0001:0004bd76       ?put@?$RefHashTableOf@VComplexTypeInfo@xercesc_3_1@@UStringHasher@2@@xercesc_3_1@@QAEXPAXQAVComplexTypeInfo@2@@Z 1004cd76 f i xerces-c_3_1:XTemplateSerializer.cpp.obj
 0001:0004bd76       ?put@?$RefHashTableOf@VXercesGroupInfo@xercesc_3_1@@UStringHasher@2@@xercesc_3_1@@QAEXPAXQAVXercesGroupInfo@2@@Z 1004cd76 f i xerces-c_3_1:XTemplateSerializer.cpp.obj
 0001:0004bd76       ?put@?$RefHashTableOf@VXMLElementDecl@xercesc_3_1@@UStringHasher@2@@xercesc_3_1@@QAEXPAXQAVXMLElementDecl@2@@Z 1004cd76 f i xerces-c_3_1:WFXMLScanner.cpp.obj
 0001:0004bdf3       ??0?$ValueVectorOf@PA_W@xercesc_3_1@@QAE@KQAVMemoryManager@1@_N@Z 1004cdf3 f i xerces-c_3_1:GrammarResolver.cpp.obj
 0001:0004bdf3       ??0?$ValueVectorOf@PAVXMLAttr@xercesc_3_1@@@xercesc_3_1@@QAE@KQAVMemoryManager@1@_N@Z 1004cdf3 f i xerces-c_3_1:WFXMLScanner.cpp.obj
 0001:0004bdf3       ??0?$ValueVectorOf@PAVContentSpecNode@xercesc_3_1@@@xercesc_3_1@@QAE@KQAVMemoryManager@1@_N@Z 1004cdf3 f i xerces-c_3_1:SchemaValidator.cpp.obj
 0001:0004be34       ??_G?$RefHashTableOfEnumerator@VGrammar@xercesc_3_1@@UStringHasher@2@@xercesc_3_1@@UAEPAXI@Z 1004ce34 f i xerces-c_3_1:GrammarResolver.cpp.obj
 0001:0004be34       ??_E?$RefHashTableOfEnumerator@VGrammar@xercesc_3_1@@UStringHasher@2@@xercesc_3_1@@UAEPAXI@Z 1004ce34 f i * CIL library *:* CIL module *
 0001:0004be65       ?findNext@?$RefHashTableOfEnumerator@VDTDAttDef@xercesc_3_1@@UStringHasher@2@@xercesc_3_1@@AAEXXZ 1004ce65 f i xerces-c_3_1:XTemplateSerializer.cpp.obj
 0001:0004be65       ?findNext@?$RefHashTableOfEnumerator@VValueStore@xercesc_3_1@@UPtrHasher@2@@xercesc_3_1@@AAEXXZ 1004ce65 f i xerces-c_3_1:ValueStoreCache.cpp.obj
 0001:0004be65       ?findNext@?$RefHashTableOfEnumerator@VFieldValueMap@xercesc_3_1@@UICValueHasher@2@@xercesc_3_1@@AAEXXZ 1004ce65 f i xerces-c_3_1:ValueStore.cpp.obj
 0001:0004be65       ?findNext@?$RefHashTableOfEnumerator@_WUStringHasher@xercesc_3_1@@@xercesc_3_1@@AAEXXZ 1004ce65 f i xerces-c_3_1:DOMNormalizer.cpp.obj
 0001:0004be65       ?findNext@?$RefHashTableOfEnumerator@VGrammar@xercesc_3_1@@UStringHasher@2@@xercesc_3_1@@AAEXXZ 1004ce65 f i xerces-c_3_1:GrammarResolver.cpp.obj
 0001:0004be65       ?findNext@?$RefHashTableOfEnumerator@VDatatypeValidator@xercesc_3_1@@UStringHasher@2@@xercesc_3_1@@AAEXXZ 1004ce65 f i xerces-c_3_1:XSModel.cpp.obj
 0001:0004be65       ?findNext@?$RefHashTableOfEnumerator@VXSAnnotation@xercesc_3_1@@UPtrHasher@2@@xercesc_3_1@@AAEXXZ 1004ce65 f i xerces-c_3_1:XTemplateSerializer.cpp.obj
 0001:0004be65       ?findNext@?$RefHashTableOfEnumerator@VXMLAttDef@xercesc_3_1@@UStringHasher@2@@xercesc_3_1@@AAEXXZ 1004ce65 f i xerces-c_3_1:XSModel.cpp.obj
 0001:0004be65       ?findNext@?$RefHashTableOfEnumerator@VXercesAttGroupInfo@xercesc_3_1@@UStringHasher@2@@xercesc_3_1@@AAEXXZ 1004ce65 f i xerces-c_3_1:XSModel.cpp.obj
 0001:0004be65       ?findNext@?$RefHashTableOfEnumerator@VKVStringPair@xercesc_3_1@@UStringHasher@2@@xercesc_3_1@@AAEXXZ 1004ce65 f i xerces-c_3_1:DOMXPathNSResolverImpl.cpp.obj
 0001:0004be65       ?findNext@?$RefHashTableOfEnumerator@VXMLRefInfo@xercesc_3_1@@UStringHasher@2@@xercesc_3_1@@AAEXXZ 1004ce65 f i xerces-c_3_1:XMLScanner.cpp.obj
 0001:0004be65       ?findNext@?$RefHashTableOfEnumerator@VXercesGroupInfo@xercesc_3_1@@UStringHasher@2@@xercesc_3_1@@AAEXXZ 1004ce65 f i xerces-c_3_1:XSModel.cpp.obj
 0001:0004be65       ?findNext@?$RefHashTableOfEnumerator@VComplexTypeInfo@xercesc_3_1@@UStringHasher@2@@xercesc_3_1@@AAEXXZ 1004ce65 f i xerces-c_3_1:XSModel.cpp.obj
 0001:0004beb3       ?getGrammarDescription@DTDGrammar@xercesc_3_1@@UBEPAVXMLGrammarDescription@2@XZ 1004ceb3 f i xerces-c_3_1:DTDGrammar.cpp.obj
 0001:0004beb3       ?getParameterNames@DOMLSParserImpl@xercesc_3_1@@UBEPBVDOMStringList@2@XZ 1004ceb3 f i xerces-c_3_1:DOMLSParserImpl.cpp.obj
 0001:0004beb3       ?getLocalPart@QName@xercesc_3_1@@QBEPB_WXZ 1004ceb3 f i xerces-c_3_1:QName.cpp.obj
 0001:0004beb3       ?getEnclosingElementName@XMLSchemaDescriptionImpl@xercesc_3_1@@UBEPBVQName@2@XZ 1004ceb3 f i xerces-c_3_1:XMLSchemaDescriptionImpl.cpp.obj
 0001:0004beb3       ?getSign@XMLAbstractDoubleFloat@xercesc_3_1@@UBEHXZ 1004ceb3 f i xerces-c_3_1:XMLAbstractDoubleFloat.cpp.obj
 0001:0004beb3       ?getGrammar@SchemaValidator@xercesc_3_1@@UBEPAVGrammar@2@XZ 1004ceb3 f i xerces-c_3_1:SchemaValidator.cpp.obj
 0001:0004beb3       ?getAttDefCount@SchemaAttDefList@xercesc_3_1@@UBEKXZ 1004ceb3 f i xerces-c_3_1:SchemaAttDefList.cpp.obj
 0001:0004beb3       ?getParameterNames@DOMLSSerializerImpl@xercesc_3_1@@UBEPBVDOMStringList@2@XZ 1004ceb3 f i xerces-c_3_1:DOMLSSerializerImpl.cpp.obj
 0001:0004beb3       ?getMessage@XMLException@xercesc_3_1@@QBEPB_WXZ 1004ceb3 f i xerces-c_3_1:XMLScanner.cpp.obj
 0001:0004beb3       ?getData2@ModifierOp@xercesc_3_1@@UBEHXZ 1004ceb3 f i xerces-c_3_1:Op.cpp.obj
 0001:0004beb3       ?getRelatedData@DOMErrorImpl@xercesc_3_1@@UBEPAXXZ 1004ceb3 f i xerces-c_3_1:DOMErrorImpl.cpp.obj
 0001:0004beb3       ?getType@DatatypeValidator@xercesc_3_1@@QBE?AW4ValidatorType@12@XZ 1004ceb3 f i xerces-c_3_1:DatatypeValidatorFactory.cpp.obj
 0001:0004beb3       ?getBaseURI@DOMNotationImpl@xercesc_3_1@@UBEPB_WXZ 1004ceb3 f i xerces-c_3_1:DOMNotationImpl.cpp.obj
 0001:0004beb3       ?getSystemId@XSDLocator@xercesc_3_1@@UBEPB_WXZ 1004ceb3 f i xerces-c_3_1:XSDDOMParser.cpp.obj
 0001:0004beb3       ?getBaseURI@DOMLSInputImpl@xercesc_3_1@@UBEPB_WXZ 1004ceb3 f i xerces-c_3_1:DOMLSInputImpl.cpp.obj
 0001:0004beb3       ?getAttDefCount@DTDAttDefList@xercesc_3_1@@UBEKXZ 1004ceb3 f i xerces-c_3_1:DTDAttDefList.cpp.obj
 0001:0004beb7       ?getErrorType@XMLException@xercesc_3_1@@QBE?AW4ErrTypes@XMLErrorReporter@2@XZ 1004ceb7 f i xerces-c_3_1:XMLScanner.cpp.obj
 0001:0004bee6       ?setFullHandler@XMLBuffer@xercesc_3_1@@QAEXPAVXMLBufferFullHandler@2@K@Z 1004cee6 f i xerces-c_3_1:XMLScanner.cpp.obj
 0001:0004bf1a       ??1XMLBufferFullHandler@xercesc_3_1@@UAE@XZ 1004cf1a f i xerces-c_3_1:XMLScanner.cpp.obj
 0001:0004bf21       ??_EXMLBufferFullHandler@xercesc_3_1@@UAEPAXI@Z 1004cf21 f i * CIL library *:* CIL module *
 0001:0004bf21       ??_GXMLBufferFullHandler@xercesc_3_1@@UAEPAXI@Z 1004cf21 f i xerces-c_3_1:XMLScanner.cpp.obj
 0001:0004bf44       ?errorType@XMLErrs@xercesc_3_1@@SA?AW4ErrTypes@XMLErrorReporter@2@W4Codes@12@@Z 1004cf44 f i xerces-c_3_1:XMLScanner.cpp.obj
 0001:0004bf71       ?skipPastChar@ReaderMgr@xercesc_3_1@@QAEX_W@Z 1004cf71 f i xerces-c_3_1:XMLScanner.cpp.obj
 0001:0004bf91       ??1ThrowEOEJanitor@xercesc_3_1@@QAE@XZ 1004cf91 f i xerces-c_3_1:XMLScanner.cpp.obj
 0001:0004bf9a       ?bufferFull@XMLScanner@xercesc_3_1@@UAE_NAAVXMLBuffer@2@@Z 1004cf9a f i xerces-c_3_1:XMLScanner.cpp.obj
 0001:0004bfab       ?getFeature@DOMCDATASectionImpl@xercesc_3_1@@UBEPAXPB_W0@Z 1004cfab f i xerces-c_3_1:DOMCDATASectionImpl.cpp.obj
 0001:0004bfab       ?getFeature@DOMTextImpl@xercesc_3_1@@UBEPAXPB_W0@Z 1004cfab f i xerces-c_3_1:DOMTextImpl.cpp.obj
 0001:0004bfab       ?getFeature@DOMElementImpl@xercesc_3_1@@UBEPAXPB_W0@Z 1004cfab f i xerces-c_3_1:DOMElementImpl.cpp.obj
 0001:0004bfab       ?resolveSystemId@WFXMLScanner@xercesc_3_1@@EAEPAVInputSource@2@QB_W0@Z 1004cfab f i xerces-c_3_1:WFXMLScanner.cpp.obj
 0001:0004bfab       ?getFeature@DOMCommentImpl@xercesc_3_1@@UBEPAXPB_W0@Z 1004cfab f i xerces-c_3_1:DOMCommentImpl.cpp.obj
 0001:0004bfab       ?getFeature@DOMProcessingInstructionImpl@xercesc_3_1@@UBEPAXPB_W0@Z 1004cfab f i xerces-c_3_1:DOMProcessingInstructionImpl.cpp.obj
 0001:0004bfab       ?getFeature@DOMNotationImpl@xercesc_3_1@@UBEPAXPB_W0@Z 1004cfab f i xerces-c_3_1:DOMNotationImpl.cpp.obj
 0001:0004bfab       ?getFeature@DOMDocumentFragmentImpl@xercesc_3_1@@UBEPAXPB_W0@Z 1004cfab f i xerces-c_3_1:DOMDocumentFragmentImpl.cpp.obj
 0001:0004bfab       ?getFeature@DOMEntityImpl@xercesc_3_1@@UBEPAXPB_W0@Z 1004cfab f i xerces-c_3_1:DOMEntityImpl.cpp.obj
 0001:0004bfab       ?getFeature@DOMImplementationImpl@xercesc_3_1@@UBEPAXPB_W0@Z 1004cfab f i xerces-c_3_1:DOMImplementationImpl.cpp.obj
 0001:0004bfab       ?getFeature@DOMEntityReferenceImpl@xercesc_3_1@@UBEPAXPB_W0@Z 1004cfab f i xerces-c_3_1:DOMEntityReferenceImpl.cpp.obj
 0001:0004bfab       ?resolveSystemId@XMLScanner@xercesc_3_1@@MAEPAVInputSource@2@QB_W0@Z 1004cfab f i xerces-c_3_1:XMLScanner.cpp.obj
 0001:0004bfb0       ?getNodeType@DOMAttrImpl@xercesc_3_1@@UBE?AW4NodeType@DOMNode@2@XZ 1004cfb0 f i xerces-c_3_1:DOMAttrImpl.cpp.obj
 0001:0004bfb0       ?size@ConcatToken@xercesc_3_1@@UBEKXZ 1004cfb0 f i xerces-c_3_1:ConcatToken.cpp.obj
 0001:0004bfb0       ?getType@IC_KeyRef@xercesc_3_1@@UBEFXZ 1004cfb0 f i xerces-c_3_1:IC_KeyRef.cpp.obj
 0001:0004bfb0       ?getCurrentGrammarType@XMLScanner@xercesc_3_1@@UBE?AW4GrammarType@Grammar@2@XZ 1004cfb0 f i xerces-c_3_1:XMLScanner.cpp.obj
 0001:0004bfb4       ??0UnexpectedEOFException@xercesc_3_1@@QAE@QBD_KW4Codes@XMLExcepts@1@PAVMemoryManager@1@@Z 1004cfb4 f i xerces-c_3_1:XMLScanner.cpp.obj
 0001:0004bffa       ??0UnexpectedEOFException@xercesc_3_1@@QAE@ABV01@@Z 1004cffa f i xerces-c_3_1:XMLScanner.cpp.obj
 0001:0004c019       ??1UnexpectedEOFException@xercesc_3_1@@UAE@XZ 1004d019 f i xerces-c_3_1:XMLScanner.cpp.obj
 0001:0004c024       ?duplicate@UnexpectedEOFException@xercesc_3_1@@UBEPAVXMLException@2@XZ 1004d024 f i xerces-c_3_1:XMLScanner.cpp.obj
 0001:0004c070       ?getType@UnexpectedEOFException@xercesc_3_1@@UBEPB_WXZ 1004d070 f i xerces-c_3_1:XMLScanner.cpp.obj
 0001:0004c076       ??_EUnexpectedEOFException@xercesc_3_1@@UAEPAXI@Z 1004d076 f i * CIL library *:* CIL module *
 0001:0004c076       ??_GUnexpectedEOFException@xercesc_3_1@@UAEPAXI@Z 1004d076 f i xerces-c_3_1:XMLScanner.cpp.obj
 0001:0004c0ad       ??0MalformedURLException@xercesc_3_1@@QAE@QBD_KW4Codes@XMLExcepts@1@PAVMemoryManager@1@@Z 1004d0ad f i xerces-c_3_1:XMLScanner.cpp.obj
 0001:0004c0f4       ??0MalformedURLException@xercesc_3_1@@QAE@ABV01@@Z 1004d0f4 f i xerces-c_3_1:XMLScanner.cpp.obj
 0001:0004c113       ??1MalformedURLException@xercesc_3_1@@UAE@XZ 1004d113 f i xerces-c_3_1:XMLScanner.cpp.obj
 0001:0004c11e       ?duplicate@MalformedURLException@xercesc_3_1@@UBEPAVXMLException@2@XZ 1004d11e f i xerces-c_3_1:XMLScanner.cpp.obj
 0001:0004c16a       ?getType@MalformedURLException@xercesc_3_1@@UBEPB_WXZ 1004d16a f i xerces-c_3_1:XMLScanner.cpp.obj
 0001:0004c170       ??_GMalformedURLException@xercesc_3_1@@UAEPAXI@Z 1004d170 f i xerces-c_3_1:XMLScanner.cpp.obj
 0001:0004c170       ??_EMalformedURLException@xercesc_3_1@@UAEPAXI@Z 1004d170 f i * CIL library *:* CIL module *
 0001:0004c1a7       ??0XMLScanner@xercesc_3_1@@QAE@QAVXMLValidator@1@QAVGrammarResolver@1@QAVMemoryManager@1@@Z 1004d1a7 f   xerces-c_3_1:XMLScanner.cpp.obj
 0001:0004c3a8       ??_GXMLScanner@xercesc_3_1@@UAEPAXI@Z 1004d3a8 f i xerces-c_3_1:XMLScanner.cpp.obj
 0001:0004c3a8       ??_EXMLScanner@xercesc_3_1@@UAEPAXI@Z 1004d3a8 f i * CIL library *:* CIL module *
 0001:0004c3dc       ??1XMLScanner@xercesc_3_1@@UAE@XZ 1004d3dc f   xerces-c_3_1:XMLScanner.cpp.obj
 0001:0004c4db       ?scanDocument@XMLScanner@xercesc_3_1@@QAEXQB_W@Z 1004d4db f   xerces-c_3_1:XMLScanner.cpp.obj
 0001:0004c774       ?scanDocument@XMLScanner@xercesc_3_1@@QAEXQBD@Z 1004d774 f   xerces-c_3_1:XMLScanner.cpp.obj
 0001:0004c7ee       ?setParseSettings@XMLScanner@xercesc_3_1@@QAEXQAV12@@Z 1004d7ee f   xerces-c_3_1:XMLScanner.cpp.obj
 0001:0004c8c5       ?commonInit@XMLScanner@xercesc_3_1@@AAEXXZ 1004d8c5 f   xerces-c_3_1:XMLScanner.cpp.obj
 0001:0004ca15       ?cleanUp@XMLScanner@xercesc_3_1@@AAEXXZ 1004da15 f   xerces-c_3_1:XMLScanner.cpp.obj
 0001:0004cad8       ?initValidator@XMLScanner@xercesc_3_1@@IAEXPAVXMLValidator@2@@Z 1004dad8 f   xerces-c_3_1:XMLScanner.cpp.obj
 0001:0004cafd       ?emitError@XMLScanner@xercesc_3_1@@QAEXW4Codes@XMLErrs@2@@Z 1004dafd f   xerces-c_3_1:XMLScanner.cpp.obj
 0001:0004cbaf       ?emitError@XMLScanner@xercesc_3_1@@QAEXW4Codes@XMLErrs@2@QB_W111@Z 1004dbaf f   xerces-c_3_1:XMLScanner.cpp.obj
 0001:0004cc74       ?emitError@XMLScanner@xercesc_3_1@@QAEXW4Codes@XMLErrs@2@QBD111@Z 1004dc74 f   xerces-c_3_1:XMLScanner.cpp.obj
 0001:0004cd2e       ?emitError@XMLScanner@xercesc_3_1@@QAEXW4Codes@XMLErrs@2@W43XMLExcepts@2@QB_W222@Z 1004dd2e f   xerces-c_3_1:XMLScanner.cpp.obj
 0001:0004cdf3       ?scanMiscellaneous@XMLScanner@xercesc_3_1@@IAEXXZ 1004ddf3 f   xerces-c_3_1:XMLScanner.cpp.obj
 0001:0004cfde       ?scanPI@XMLScanner@xercesc_3_1@@IAEXXZ 1004dfde f   xerces-c_3_1:XMLScanner.cpp.obj
 0001:0004d36a       ?scanProlog@XMLScanner@xercesc_3_1@@IAEXXZ 1004e36a f   xerces-c_3_1:XMLScanner.cpp.obj
 0001:0004d596       ?scanXMLDecl@XMLScanner@xercesc_3_1@@IAEXW4DeclTypes@12@@Z 1004e596 f   xerces-c_3_1:XMLScanner.cpp.obj
 0001:0004db7f       ?getURIText@XMLScanner@xercesc_3_1@@QBEPB_WI@Z 1004eb7f f   xerces-c_3_1:XMLScanner.cpp.obj
 0001:0004dbb3       ?getURIText@XMLScanner@xercesc_3_1@@QBE_NIAAVXMLBuffer@2@@Z 1004ebb3 f   xerces-c_3_1:XMLScanner.cpp.obj
 0001:0004dbfa       ?checkXMLDecl@XMLScanner@xercesc_3_1@@QAE_N_N@Z 1004ebfa f   xerces-c_3_1:XMLScanner.cpp.obj
 0001:0004de47       ?loadGrammar@XMLScanner@xercesc_3_1@@QAEPAVGrammar@2@QB_WF_N@Z 1004ee47 f   xerces-c_3_1:XMLScanner.cpp.obj
 0001:0004e143       ?loadGrammar@XMLScanner@xercesc_3_1@@QAEPAVGrammar@2@QBDF_N@Z 1004f143 f   xerces-c_3_1:XMLScanner.cpp.obj
 0001:0004e1c7       ?setURIStringPool@XMLScanner@xercesc_3_1@@QAEXQAVXMLStringPool@2@@Z 1004f1c7 f   xerces-c_3_1:XMLScanner.cpp.obj
 0001:0004e221       ?checkInternalDTD@XMLScanner@xercesc_3_1@@IAEX_NQB_W1@Z 1004f221 f   xerces-c_3_1:XMLScanner.cpp.obj
 0001:0004e2f4       ?checkIDRefs@XMLScanner@xercesc_3_1@@IAEXXZ 1004f2f4 f   xerces-c_3_1:XMLScanner.cpp.obj
 0001:0004e37a       ?isLegalToken@XMLScanner@xercesc_3_1@@IAE_NABVXMLPScanToken@2@@Z 1004f37a f   xerces-c_3_1:XMLScanner.cpp.obj
 0001:0004e399       ?senseNextToken@XMLScanner@xercesc_3_1@@IAE?AW4XMLTokens@12@AAK@Z 1004f399 f   xerces-c_3_1:XMLScanner.cpp.obj
 0001:0004e4a6       ?scanCharRef@XMLScanner@xercesc_3_1@@IAE_NAA_W0@Z 1004f4a6 f   xerces-c_3_1:XMLScanner.cpp.obj
 0001:0004e66e       ?scanComment@XMLScanner@xercesc_3_1@@IAEXXZ 1004f66e f   xerces-c_3_1:XMLScanner.cpp.obj
 0001:0004e865       ?scanEq@XMLScanner@xercesc_3_1@@IAE_N_N@Z 1004f865 f   xerces-c_3_1:XMLScanner.cpp.obj
 0001:0004e8f7       ?getNewUIntPtr@XMLScanner@xercesc_3_1@@IAEPAIXZ 1004f8f7 f   xerces-c_3_1:XMLScanner.cpp.obj
 0001:0004e9c0       ?resetUIntPool@XMLScanner@xercesc_3_1@@IAEXXZ 1004f9c0 f   xerces-c_3_1:XMLScanner.cpp.obj
 0001:0004e9e4       ?recreateUIntPool@XMLScanner@xercesc_3_1@@IAEXXZ 1004f9e4 f   xerces-c_3_1:XMLScanner.cpp.obj
 0001:0004ea62       ?resolvePrefix@XMLScanner@xercesc_3_1@@IAEIQB_WW4MapModes@ElemStack@2@@Z 1004fa62 f   xerces-c_3_1:XMLScanner.cpp.obj
 0001:0004eb12       ?resolveQName@XMLScanner@xercesc_3_1@@QAEIQB_WAAVXMLBuffer@2@W4MapModes@ElemStack@2@AAH@Z 1004fb12 f   xerces-c_3_1:XMLScanner.cpp.obj
 0001:0004eb3c       ?resolveQNameWithColon@XMLScanner@xercesc_3_1@@IAEIQB_WAAVXMLBuffer@2@W4MapModes@ElemStack@2@H@Z 1004fb3c f   xerces-c_3_1:XMLScanner.cpp.obj
 0001:0004eb84       ??1?$XMLEnumerator@VXMLRefInfo@xercesc_3_1@@@xercesc_3_1@@UAE@XZ 1004fb84 f i xerces-c_3_1:XMLScanner.cpp.obj
 0001:0004eb8b       ??_E?$XMLEnumerator@VXMLRefInfo@xercesc_3_1@@@xercesc_3_1@@UAEPAXI@Z 1004fb8b f i * CIL library *:* CIL module *
 0001:0004eb8b       ??_G?$XMLEnumerator@VXMLRefInfo@xercesc_3_1@@@xercesc_3_1@@UAEPAXI@Z 1004fb8b f i xerces-c_3_1:XMLScanner.cpp.obj
 0001:0004ebae       ??0?$RefVectorOf@VXMLAttr@xercesc_3_1@@@xercesc_3_1@@QAE@K_NQAVMemoryManager@1@@Z 1004fbae f i xerces-c_3_1:XMLScanner.cpp.obj
 0001:0004ec05       ??1?$RefVectorOf@VXMLAttr@xercesc_3_1@@@xercesc_3_1@@UAE@XZ 1004fc05 f i xerces-c_3_1:XMLScanner.cpp.obj
 0001:0004ec7b       ?removeAll@?$RefHash2KeysTableOf@VXMLAttr@xercesc_3_1@@UStringHasher@2@@xercesc_3_1@@QAEXXZ 1004fc7b f i xerces-c_3_1:XMLScanner.cpp.obj
 0001:0004ed00       ??1?$Janitor@VContentSpecNode@xercesc_3_1@@@xercesc_3_1@@QAE@XZ 1004fd00 f i xerces-c_3_1:ComplexTypeInfo.cpp.obj
 0001:0004ed00       ??1?$Janitor@VXSAnnotation@xercesc_3_1@@@xercesc_3_1@@QAE@XZ 1004fd00 f i xerces-c_3_1:TraverseSchema.cpp.obj
 0001:0004ed00       ??1?$Janitor@VInputSource@xercesc_3_1@@@xercesc_3_1@@QAE@XZ 1004fd00 f i xerces-c_3_1:XMLScanner.cpp.obj
 0001:0004ed08       ?setElementAt@?$BaseRefVectorOf@VXMLAttr@xercesc_3_1@@@xercesc_3_1@@UAEXQAVXMLAttr@2@K@Z 1004fd08 f i xerces-c_3_1:XMLScanner.cpp.obj
 0001:0004ed83       ?removeAllElements@?$BaseRefVectorOf@VXMLAttr@xercesc_3_1@@@xercesc_3_1@@UAEXXZ 1004fd83 f i xerces-c_3_1:XMLScanner.cpp.obj
 0001:0004eddf       ?removeElementAt@?$BaseRefVectorOf@VXMLAttr@xercesc_3_1@@@xercesc_3_1@@UAEXK@Z 1004fddf f i xerces-c_3_1:XMLScanner.cpp.obj
 0001:0004ee8b       ?removeLastElement@?$BaseRefVectorOf@VXMLAttr@xercesc_3_1@@@xercesc_3_1@@UAEXXZ 1004fe8b f i xerces-c_3_1:XMLScanner.cpp.obj
 0001:0004eed2       ?cleanup@?$BaseRefVectorOf@VXMLAttr@xercesc_3_1@@@xercesc_3_1@@UAEXXZ 1004fed2 f i xerces-c_3_1:XMLScanner.cpp.obj
 0001:0004ef2e       ??0?$RefHashTableOfEnumerator@VXMLRefInfo@xercesc_3_1@@UStringHasher@2@@xercesc_3_1@@QAE@QAV?$RefHashTableOf@VXMLRefInfo@xercesc_3_1@@UStringHasher@2@@1@_NQAVMemoryManager@1@@Z 1004ff2e f i xerces-c_3_1:XMLScanner.cpp.obj
 0001:0004ef9e       ??1?$RefHashTableOfEnumerator@VXMLRefInfo@xercesc_3_1@@UStringHasher@2@@xercesc_3_1@@UAE@XZ 1004ff9e f i xerces-c_3_1:XMLScanner.cpp.obj
 0001:0004efc2       ??_G?$RefVectorOf@VXMLAttr@xercesc_3_1@@@xercesc_3_1@@UAEPAXI@Z 1004ffc2 f i xerces-c_3_1:XMLScanner.cpp.obj
 0001:0004efc2       ??_E?$RefVectorOf@VXMLAttr@xercesc_3_1@@@xercesc_3_1@@UAEPAXI@Z 1004ffc2 f i * CIL library *:* CIL module *
 0001:0004eff4       ??_E?$BaseRefVectorOf@VXMLAttr@xercesc_3_1@@@xercesc_3_1@@UAEPAXI@Z 1004fff4 f i * CIL library *:* CIL module *
 0001:0004eff4       ??_G?$BaseRefVectorOf@VXMLAttr@xercesc_3_1@@@xercesc_3_1@@UAEPAXI@Z 1004fff4 f i xerces-c_3_1:XMLScanner.cpp.obj
 0001:0004f024       ??_E?$RefHashTableOfEnumerator@VXMLRefInfo@xercesc_3_1@@UStringHasher@2@@xercesc_3_1@@UAEPAXI@Z 10050024 f i * CIL library *:* CIL module *
 0001:0004f024       ??_G?$RefHashTableOfEnumerator@VXMLRefInfo@xercesc_3_1@@UStringHasher@2@@xercesc_3_1@@UAEPAXI@Z 10050024 f i xerces-c_3_1:XMLScanner.cpp.obj
 0001:0004f055       ?reset@?$Janitor@VXSAnnotation@xercesc_3_1@@@xercesc_3_1@@QAEXPAVXSAnnotation@2@@Z 10050055 f i xerces-c_3_1:TraverseSchema.cpp.obj
 0001:0004f055       ?reset@?$Janitor@VInputSource@xercesc_3_1@@@xercesc_3_1@@QAEXPAVInputSource@2@@Z 10050055 f i xerces-c_3_1:XMLScanner.cpp.obj
 0001:0004f055       ?reset@?$Janitor@VContentSpecNode@xercesc_3_1@@@xercesc_3_1@@QAEXPAVContentSpecNode@2@@Z 10050055 f i xerces-c_3_1:ComplexTypeInfo.cpp.obj
 0001:0004f071       ??1DOMTypeInfo@xercesc_3_1@@UAE@XZ 10050071 f i xerces-c_3_1:DOMTypeInfoImpl.cpp.obj
 0001:0004f078       ??_GDOMTypeInfo@xercesc_3_1@@UAEPAXI@Z 10050078 f i xerces-c_3_1:DOMTypeInfoImpl.cpp.obj
 0001:0004f078       ??_EDOMTypeInfo@xercesc_3_1@@UAEPAXI@Z 10050078 f i * CIL library *:* CIL module *
 0001:0004f09b       ??1DOMPSVITypeInfo@xercesc_3_1@@UAE@XZ 1005009b f i xerces-c_3_1:DOMTypeInfoImpl.cpp.obj
 0001:0004f0a2       ??_EDOMPSVITypeInfo@xercesc_3_1@@UAEPAXI@Z 100500a2 f i * CIL library *:* CIL module *
 0001:0004f0a2       ??_GDOMPSVITypeInfo@xercesc_3_1@@UAEPAXI@Z 100500a2 f i xerces-c_3_1:DOMTypeInfoImpl.cpp.obj
 0001:0004f0c5       ??0DOMTypeInfoImpl@xercesc_3_1@@QAE@PB_W0@Z 100500c5 f   xerces-c_3_1:DOMTypeInfoImpl.cpp.obj
 0001:0004f0ff       ??_GDOMTypeInfoImpl@xercesc_3_1@@UAEPAXI@Z 100500ff f i xerces-c_3_1:DOMTypeInfoImpl.cpp.obj
 0001:0004f0ff       ??_EDOMTypeInfoImpl@xercesc_3_1@@UAEPAXI@Z 100500ff f i * CIL library *:* CIL module *
 0001:0004f129       ??0DOMTypeInfoImpl@xercesc_3_1@@QAE@PAVDOMDocumentImpl@1@PBVDOMPSVITypeInfo@1@@Z 10050129 f   xerces-c_3_1:DOMTypeInfoImpl.cpp.obj
 0001:0004f2a2       ?getTypeName@DOMTypeInfoImpl@xercesc_3_1@@UBEPB_WXZ 100502a2 f   xerces-c_3_1:DOMTypeInfoImpl.cpp.obj
 0001:0004f2d0       ?getTypeNamespace@DOMTypeInfoImpl@xercesc_3_1@@UBEPB_WXZ 100502d0 f   xerces-c_3_1:DOMTypeInfoImpl.cpp.obj
 0001:0004f302       ?isDerivedFrom@DOMTypeInfoImpl@xercesc_3_1@@UBE_NPB_W0W4DerivationMethods@DOMTypeInfo@2@@Z 10050302 f   xerces-c_3_1:DOMTypeInfoImpl.cpp.obj
 0001:0004f34b       ?getStringProperty@DOMTypeInfoImpl@xercesc_3_1@@UBEPB_WW4PSVIProperty@DOMPSVITypeInfo@2@@Z 1005034b f   xerces-c_3_1:DOMTypeInfoImpl.cpp.obj
 0001:0004f394       ?getNumericProperty@DOMTypeInfoImpl@xercesc_3_1@@UBEHW4PSVIProperty@DOMPSVITypeInfo@2@@Z 10050394 f   xerces-c_3_1:DOMTypeInfoImpl.cpp.obj
 0001:0004f407       ?setStringProperty@DOMTypeInfoImpl@xercesc_3_1@@UAEXW4PSVIProperty@DOMPSVITypeInfo@2@PB_W@Z 10050407 f   xerces-c_3_1:DOMTypeInfoImpl.cpp.obj
 0001:0004f45e       ?setNumericProperty@DOMTypeInfoImpl@xercesc_3_1@@UAEXW4PSVIProperty@DOMPSVITypeInfo@2@H@Z 1005045e f   xerces-c_3_1:DOMTypeInfoImpl.cpp.obj
 0001:0004f4e4       ??_EDOMTypeInfoImpl@xercesc_3_1@@W3AEPAXI@Z 100504e4 f i xerces-c_3_1:DOMTypeInfoImpl.cpp.obj
 0001:0004f4ec       ??0PSVIAttributeList@xercesc_3_1@@QAE@QAVMemoryManager@1@@Z 100504ec f   xerces-c_3_1:PSVIAttributeList.cpp.obj
 0001:0004f53f       ?getAttributePSVIByName@PSVIAttributeList@xercesc_3_1@@QAEPAVPSVIAttribute@2@PB_W0@Z 1005053f f   xerces-c_3_1:PSVIAttributeList.cpp.obj
 0001:0004f59e       ??0?$RefVectorOf@VPSVIAttributeStorage@xercesc_3_1@@@xercesc_3_1@@QAE@K_NQAVMemoryManager@1@@Z 1005059e f i xerces-c_3_1:PSVIAttributeList.cpp.obj
 0001:0004f5ef       ?setElementAt@?$BaseRefVectorOf@VPSVIAttributeStorage@xercesc_3_1@@@xercesc_3_1@@UAEXQAVPSVIAttributeStorage@2@K@Z 100505ef f i xerces-c_3_1:PSVIAttributeList.cpp.obj
 0001:0004f64b       ?removeAllElements@?$BaseRefVectorOf@VPSVIAttributeStorage@xercesc_3_1@@@xercesc_3_1@@UAEXXZ 1005064b f i xerces-c_3_1:PSVIAttributeList.cpp.obj
 0001:0004f680       ?removeElementAt@?$BaseRefVectorOf@VPSVIAttributeStorage@xercesc_3_1@@@xercesc_3_1@@UAEXK@Z 10050680 f i xerces-c_3_1:PSVIAttributeList.cpp.obj
 0001:0004f70f       ?removeLastElement@?$BaseRefVectorOf@VPSVIAttributeStorage@xercesc_3_1@@@xercesc_3_1@@UAEXXZ 1005070f f i xerces-c_3_1:PSVIAttributeList.cpp.obj
 0001:0004f733       ?cleanup@?$BaseRefVectorOf@VPSVIAttributeStorage@xercesc_3_1@@@xercesc_3_1@@UAEXXZ 10050733 f i xerces-c_3_1:PSVIAttributeList.cpp.obj
 0001:0004f768       ??_E?$RefVectorOf@VPSVIAttributeStorage@xercesc_3_1@@@xercesc_3_1@@UAEPAXI@Z 10050768 f i * CIL library *:* CIL module *
 0001:0004f768       ??_G?$RefVectorOf@VPSVIAttributeStorage@xercesc_3_1@@@xercesc_3_1@@UAEPAXI@Z 10050768 f i xerces-c_3_1:PSVIAttributeList.cpp.obj
 0001:0004f7f2       ??_GPSVIAttributeStorage@xercesc_3_1@@QAEPAXI@Z 100507f2 f i xerces-c_3_1:PSVIAttributeList.cpp.obj
 0001:0004f80e       ??_G?$BaseRefVectorOf@VPSVIAttributeStorage@xercesc_3_1@@@xercesc_3_1@@UAEPAXI@Z 1005080e f i xerces-c_3_1:PSVIAttributeList.cpp.obj
 0001:0004f80e       ??_E?$BaseRefVectorOf@VPSVIAttributeStorage@xercesc_3_1@@@xercesc_3_1@@UAEPAXI@Z 1005080e f i * CIL library *:* CIL module *
 0001:0004f83e       ??1DOMAttr@xercesc_3_1@@UAE@XZ 1005083e f i xerces-c_3_1:DOMAttrImpl.cpp.obj
 0001:0004f83e       ??1DOMEntity@xercesc_3_1@@UAE@XZ 1005083e f i xerces-c_3_1:DOMEntityImpl.cpp.obj
 0001:0004f83e       ??1DOMDocumentFragment@xercesc_3_1@@UAE@XZ 1005083e f i xerces-c_3_1:DOMDocumentFragmentImpl.cpp.obj
 0001:0004f83e       ??1DOMCDATASection@xercesc_3_1@@UAE@XZ 1005083e f i xerces-c_3_1:DOMCDATASectionImpl.cpp.obj
 0001:0004f83e       ??1DOMComment@xercesc_3_1@@UAE@XZ 1005083e f i xerces-c_3_1:DOMCommentImpl.cpp.obj
 0001:0004f83e       ??1DOMNotation@xercesc_3_1@@UAE@XZ 1005083e f i xerces-c_3_1:DOMNotationImpl.cpp.obj
 0001:0004f83e       ??1DOMEntityReference@xercesc_3_1@@UAE@XZ 1005083e f i xerces-c_3_1:DOMEntityReferenceImpl.cpp.obj
 0001:0004f83e       ??1DOMText@xercesc_3_1@@UAE@XZ 1005083e f i xerces-c_3_1:DOMTextImpl.cpp.obj
 0001:0004f83e       ??1DOMElement@xercesc_3_1@@UAE@XZ 1005083e f i xerces-c_3_1:DOMElementImpl.cpp.obj
 0001:0004f83e       ??1DOMDocumentType@xercesc_3_1@@UAE@XZ 1005083e f i xerces-c_3_1:DOMDocumentTypeImpl.cpp.obj
 0001:0004f83e       ??1DOMProcessingInstruction@xercesc_3_1@@UAE@XZ 1005083e f i xerces-c_3_1:DOMProcessingInstructionImpl.cpp.obj
 0001:0004f845       ??2@YAPAXIPAVDOMDocument@xercesc_3_1@@W4NodeObjectType@DOMMemoryManager@1@@Z 10050845 f i xerces-c_3_1:DOMDocumentTypeImpl.cpp.obj
 0001:0004f876       ??0DOMDocumentTypeImpl@xercesc_3_1@@QAE@PAVDOMDocument@1@PB_W_N@Z 10050876 f   xerces-c_3_1:DOMDocumentTypeImpl.cpp.obj
 0001:0004fa14       ??_EDOMEntityImpl@xercesc_3_1@@UAEPAXI@Z 10050a14 f i * CIL library *:* CIL module *
 0001:0004fa14       ??_EDOMDocumentTypeImpl@xercesc_3_1@@UAEPAXI@Z 10050a14 f i * CIL library *:* CIL module *
 0001:0004fa14       ??_GDOMDocumentTypeImpl@xercesc_3_1@@UAEPAXI@Z 10050a14 f i xerces-c_3_1:DOMDocumentTypeImpl.cpp.obj
 0001:0004fa14       ??_GDOMEntityImpl@xercesc_3_1@@UAEPAXI@Z 10050a14 f i xerces-c_3_1:DOMEntityImpl.cpp.obj
 0001:0004fa3e       ??0DOMDocumentTypeImpl@xercesc_3_1@@QAE@PAVDOMDocument@1@PB_W11_N@Z 10050a3e f   xerces-c_3_1:DOMDocumentTypeImpl.cpp.obj
 0001:0004fd70       ??0DOMDocumentTypeImpl@xercesc_3_1@@QAE@ABV01@_N1@Z 10050d70 f   xerces-c_3_1:DOMDocumentTypeImpl.cpp.obj
 0001:0004fe48       ?cloneNode@DOMDocumentTypeImpl@xercesc_3_1@@UBEPAVDOMNode@2@_N@Z 10050e48 f   xerces-c_3_1:DOMDocumentTypeImpl.cpp.obj
 0001:0004ff18       ?setOwnerDocument@DOMDocumentTypeImpl@xercesc_3_1@@UAEXPAVDOMDocument@2@@Z 10050f18 f   xerces-c_3_1:DOMDocumentTypeImpl.cpp.obj
 0001:0004ffcf       ?getSystemId@DOMEntityImpl@xercesc_3_1@@UBEPB_WXZ 10050fcf f   xerces-c_3_1:DOMEntityImpl.cpp.obj
 0001:0004ffcf       ?getFullName@DTDAttDef@xercesc_3_1@@UBEPB_WXZ 10050fcf f   xerces-c_3_1:DTDAttDef.cpp.obj
 0001:0004ffcf       ?getNamespaceURI@DOMAttrNSImpl@xercesc_3_1@@UBEPB_WXZ 10050fcf f   xerces-c_3_1:DOMAttrNSImpl.cpp.obj
 0001:0004ffcf       ?getMemberTypeDefinition@PSVIAttribute@xercesc_3_1@@UAEPAVXSSimpleTypeDefinition@2@XZ 10050fcf f   xerces-c_3_1:PSVIAttribute.cpp.obj
 0001:0004ffcf       ?getRelatedNode@DOMLocatorImpl@xercesc_3_1@@UBEPAVDOMNode@2@XZ 10050fcf f   xerces-c_3_1:DOMLocatorImpl.cpp.obj
 0001:0004ffcf       ?getName@DOMDocumentTypeImpl@xercesc_3_1@@UBEPB_WXZ 10050fcf f   xerces-c_3_1:DOMDocumentTypeImpl.cpp.obj
 0001:0004ffcf       ?getNodeName@DOMDocumentTypeImpl@xercesc_3_1@@UBEPB_WXZ 10050fcf f   xerces-c_3_1:DOMDocumentTypeImpl.cpp.obj
 0001:0004ffcf       ?getNodeName@DOMEntityReferenceImpl@xercesc_3_1@@UBEPB_WXZ 10050fcf f   xerces-c_3_1:DOMEntityReferenceImpl.cpp.obj
 0001:0004ffcf       ?getPattern@DatatypeValidator@xercesc_3_1@@IBEPB_WXZ 10050fcf f   xerces-c_3_1:QNameDatatypeValidator.cpp.obj
 0001:0004ffcf       ?getAttributes@DOMElementImpl@xercesc_3_1@@UBEPAVDOMNamedNodeMap@2@XZ 10050fcf f   xerces-c_3_1:DOMElementImpl.cpp.obj
 0001:0004ffcf       ?getMemberTypeDefinition@PSVIElement@xercesc_3_1@@UAEPAVXSSimpleTypeDefinition@2@XZ 10050fcf f   xerces-c_3_1:PSVIElement.cpp.obj
 0001:0004ffd3       ?getNodeType@DOMDocumentTypeImpl@xercesc_3_1@@UBE?AW4NodeType@DOMNode@2@XZ 10050fd3 f   xerces-c_3_1:DOMDocumentTypeImpl.cpp.obj
 0001:0004ffd7       ?getURI@DOMLocatorImpl@xercesc_3_1@@UBEPB_WXZ 10050fd7 f   xerces-c_3_1:DOMLocatorImpl.cpp.obj
 0001:0004ffd7       ?getNotationName@DOMEntityImpl@xercesc_3_1@@UBEPB_WXZ 10050fd7 f   xerces-c_3_1:DOMEntityImpl.cpp.obj
 0001:0004ffd7       ?getLocalName@DOMAttrNSImpl@xercesc_3_1@@UBEPB_WXZ 10050fd7 f   xerces-c_3_1:DOMAttrNSImpl.cpp.obj
 0001:0004ffd7       ?getBaseURI@DOMEntityReferenceImpl@xercesc_3_1@@UBEPB_WXZ 10050fd7 f   xerces-c_3_1:DOMEntityReferenceImpl.cpp.obj
 0001:0004ffd7       ?getDefaultAttributes@DOMElementImpl@xercesc_3_1@@UBEPAVDOMAttrMapImpl@2@XZ 10050fd7 f   xerces-c_3_1:DOMElementImpl.cpp.obj
 0001:0004ffd7       ?getEntities@DOMDocumentTypeImpl@xercesc_3_1@@UBEPAVDOMNamedNodeMap@2@XZ 10050fd7 f   xerces-c_3_1:DOMDocumentTypeImpl.cpp.obj
 0001:0004ffdb       ?setReadOnly@DOMDocumentTypeImpl@xercesc_3_1@@UAEX_N0@Z 10050fdb f   xerces-c_3_1:DOMDocumentTypeImpl.cpp.obj
 0001:00050016       ?getXmlEncoding@DOMEntityImpl@xercesc_3_1@@UBEPB_WXZ 10051016 f   xerces-c_3_1:DOMEntityImpl.cpp.obj
 0001:00050016       ?getLocalName@DOMElementNSImpl@xercesc_3_1@@UBEPB_WXZ 10051016 f   xerces-c_3_1:DOMElementNSImpl.cpp.obj
 0001:00050016       ?getPublicId@DOMDocumentTypeImpl@xercesc_3_1@@UBEPB_WXZ 10051016 f   xerces-c_3_1:DOMDocumentTypeImpl.cpp.obj
 0001:0005001a       ?setPublicId@DOMDocumentTypeImpl@xercesc_3_1@@MAEXPB_W@Z 1005101a f   xerces-c_3_1:DOMDocumentTypeImpl.cpp.obj
 0001:000500aa       ?setSystemId@DOMDocumentTypeImpl@xercesc_3_1@@MAEXPB_W@Z 100510aa f   xerces-c_3_1:DOMDocumentTypeImpl.cpp.obj
 0001:00050134       ?setInternalSubset@DOMDocumentTypeImpl@xercesc_3_1@@MAEXPB_W@Z 10051134 f   xerces-c_3_1:DOMDocumentTypeImpl.cpp.obj
 0001:000501be       ?release@DOMDocumentTypeImpl@xercesc_3_1@@UAEXXZ 100511be f   xerces-c_3_1:DOMDocumentTypeImpl.cpp.obj
 0001:00050285       ?appendChild@DOMAttrImpl@xercesc_3_1@@UAEPAVDOMNode@2@PAV32@@Z 10051285 f   xerces-c_3_1:DOMAttrImpl.cpp.obj
 0001:00050285       ?appendChild@DOMEntityReferenceImpl@xercesc_3_1@@UAEPAVDOMNode@2@PAV32@@Z 10051285 f   xerces-c_3_1:DOMEntityReferenceImpl.cpp.obj
 0001:00050285       ?appendChild@DOMElementImpl@xercesc_3_1@@UAEPAVDOMNode@2@PAV32@@Z 10051285 f   xerces-c_3_1:DOMElementImpl.cpp.obj
 0001:00050285       ?appendChild@DOMDocumentFragmentImpl@xercesc_3_1@@UAEPAVDOMNode@2@PAV32@@Z 10051285 f   xerces-c_3_1:DOMDocumentFragmentImpl.cpp.obj
 0001:00050285       ?appendChild@DOMDocumentTypeImpl@xercesc_3_1@@UAEPAVDOMNode@2@PAV32@@Z 10051285 f   xerces-c_3_1:DOMDocumentTypeImpl.cpp.obj
 0001:00050299       ?getContentSpec@DTDElementDecl@xercesc_3_1@@UAEPAVContentSpecNode@2@XZ 10051299 f   xerces-c_3_1:DTDElementDecl.cpp.obj
 0001:00050299       ?getMemoryManager@XMLAbstractDoubleFloat@xercesc_3_1@@QBEPAVMemoryManager@2@XZ 10051299 f   xerces-c_3_1:XMLAbstractDoubleFloat.cpp.obj
 0001:00050299       ?getInitialDepth@SelectorMatcher@xercesc_3_1@@UBEHXZ 10051299 f   xerces-c_3_1:IC_Selector.cpp.obj
 0001:00050299       ?getTypeDefinition@PSVIElement@xercesc_3_1@@UAEPAVXSTypeDefinition@2@XZ 10051299 f   xerces-c_3_1:PSVIElement.cpp.obj
 0001:00050299       ?getNextSibling@DOMDocumentTypeImpl@xercesc_3_1@@UBEPAVDOMNode@2@XZ 10051299 f   xerces-c_3_1:DOMDocumentTypeImpl.cpp.obj
 0001:00050299       ?getPublicId@DOMEntityImpl@xercesc_3_1@@UBEPB_WXZ 10051299 f   xerces-c_3_1:DOMEntityImpl.cpp.obj
 0001:00050299       ?getTypeDefinition@PSVIAttribute@xercesc_3_1@@UAEPAVXSTypeDefinition@2@XZ 10051299 f   xerces-c_3_1:PSVIAttribute.cpp.obj
 0001:00050299       ?getNextSibling@DOMElementImpl@xercesc_3_1@@UBEPAVDOMNode@2@XZ 10051299 f   xerces-c_3_1:DOMElementImpl.cpp.obj
 0001:00050299       ?getContentSpec@DTDElementDecl@xercesc_3_1@@UBEPBVContentSpecNode@2@XZ 10051299 f   xerces-c_3_1:DTDElementDecl.cpp.obj
 0001:00050299       ?getNextSibling@DOMEntityReferenceImpl@xercesc_3_1@@UBEPAVDOMNode@2@XZ 10051299 f   xerces-c_3_1:DOMEntityReferenceImpl.cpp.obj
 0001:0005029d       ?getParentNode@DOMCommentImpl@xercesc_3_1@@UBEPAVDOMNode@2@XZ 1005129d f   xerces-c_3_1:DOMCommentImpl.cpp.obj
 0001:0005029d       ?getParentNode@DOMCDATASectionImpl@xercesc_3_1@@UBEPAVDOMNode@2@XZ 1005129d f   xerces-c_3_1:DOMCDATASectionImpl.cpp.obj
 0001:0005029d       ?getParentNode@DOMDocumentTypeImpl@xercesc_3_1@@UBEPAVDOMNode@2@XZ 1005129d f   xerces-c_3_1:DOMDocumentTypeImpl.cpp.obj
 0001:0005029d       ?getParentNode@DOMElementImpl@xercesc_3_1@@UBEPAVDOMNode@2@XZ 1005129d f   xerces-c_3_1:DOMElementImpl.cpp.obj
 0001:0005029d       ?getParentNode@DOMProcessingInstructionImpl@xercesc_3_1@@UBEPAVDOMNode@2@XZ 1005129d f   xerces-c_3_1:DOMProcessingInstructionImpl.cpp.obj
 0001:0005029d       ?getParentNode@DOMEntityReferenceImpl@xercesc_3_1@@UBEPAVDOMNode@2@XZ 1005129d f   xerces-c_3_1:DOMEntityReferenceImpl.cpp.obj
 0001:0005029d       ?getParentNode@DOMTextImpl@xercesc_3_1@@UBEPAVDOMNode@2@XZ 1005129d f   xerces-c_3_1:DOMTextImpl.cpp.obj
 0001:000502a4       ?getPreviousSibling@DOMElementImpl@xercesc_3_1@@UBEPAVDOMNode@2@XZ 100512a4 f   xerces-c_3_1:DOMElementImpl.cpp.obj
 0001:000502a4       ?getPreviousSibling@DOMEntityReferenceImpl@xercesc_3_1@@UBEPAVDOMNode@2@XZ 100512a4 f   xerces-c_3_1:DOMEntityReferenceImpl.cpp.obj
 0001:000502a4       ?getPreviousSibling@DOMDocumentTypeImpl@xercesc_3_1@@UBEPAVDOMNode@2@XZ 100512a4 f   xerces-c_3_1:DOMDocumentTypeImpl.cpp.obj
 0001:000502b5       ?insertBefore@DOMDocumentFragmentImpl@xercesc_3_1@@UAEPAVDOMNode@2@PAV32@0@Z 100512b5 f   xerces-c_3_1:DOMDocumentFragmentImpl.cpp.obj
 0001:000502b5       ?insertBefore@DOMDocumentTypeImpl@xercesc_3_1@@UAEPAVDOMNode@2@PAV32@0@Z 100512b5 f   xerces-c_3_1:DOMDocumentTypeImpl.cpp.obj
 0001:000502b5       ?insertBefore@DOMAttrImpl@xercesc_3_1@@UAEPAVDOMNode@2@PAV32@0@Z 100512b5 f   xerces-c_3_1:DOMAttrImpl.cpp.obj
 0001:000502b5       ?insertBefore@DOMElementImpl@xercesc_3_1@@UAEPAVDOMNode@2@PAV32@0@Z 100512b5 f   xerces-c_3_1:DOMElementImpl.cpp.obj
 0001:000502b5       ?insertBefore@DOMEntityReferenceImpl@xercesc_3_1@@UAEPAVDOMNode@2@PAV32@0@Z 100512b5 f   xerces-c_3_1:DOMEntityReferenceImpl.cpp.obj
 0001:000502c1       ?removeChild@DOMAttrImpl@xercesc_3_1@@UAEPAVDOMNode@2@PAV32@@Z 100512c1 f   xerces-c_3_1:DOMAttrImpl.cpp.obj
 0001:000502c1       ?removeChild@DOMElementImpl@xercesc_3_1@@UAEPAVDOMNode@2@PAV32@@Z 100512c1 f   xerces-c_3_1:DOMElementImpl.cpp.obj
 0001:000502c1       ?removeChild@DOMEntityReferenceImpl@xercesc_3_1@@UAEPAVDOMNode@2@PAV32@@Z 100512c1 f   xerces-c_3_1:DOMEntityReferenceImpl.cpp.obj
 0001:000502c1       ?removeChild@DOMDocumentFragmentImpl@xercesc_3_1@@UAEPAVDOMNode@2@PAV32@@Z 100512c1 f   xerces-c_3_1:DOMDocumentFragmentImpl.cpp.obj
 0001:000502c1       ?removeChild@DOMDocumentTypeImpl@xercesc_3_1@@UAEPAVDOMNode@2@PAV32@@Z 100512c1 f   xerces-c_3_1:DOMDocumentTypeImpl.cpp.obj
 0001:000502cd       ?replaceChild@DOMElementImpl@xercesc_3_1@@UAEPAVDOMNode@2@PAV32@0@Z 100512cd f   xerces-c_3_1:DOMElementImpl.cpp.obj
 0001:000502cd       ?replaceChild@DOMDocumentFragmentImpl@xercesc_3_1@@UAEPAVDOMNode@2@PAV32@0@Z 100512cd f   xerces-c_3_1:DOMDocumentFragmentImpl.cpp.obj
 0001:000502cd       ?replaceChild@DOMDocumentTypeImpl@xercesc_3_1@@UAEPAVDOMNode@2@PAV32@0@Z 100512cd f   xerces-c_3_1:DOMDocumentTypeImpl.cpp.obj
 0001:000502cd       ?replaceChild@DOMAttrImpl@xercesc_3_1@@UAEPAVDOMNode@2@PAV32@0@Z 100512cd f   xerces-c_3_1:DOMAttrImpl.cpp.obj
 0001:000502cd       ?replaceChild@DOMEntityReferenceImpl@xercesc_3_1@@UAEPAVDOMNode@2@PAV32@0@Z 100512cd f   xerces-c_3_1:DOMEntityReferenceImpl.cpp.obj
 0001:000502f0       ?getBaseURI@DOMTextImpl@xercesc_3_1@@UBEPB_WXZ 100512f0 f   xerces-c_3_1:DOMTextImpl.cpp.obj
 0001:000502f0       ?getBaseURI@DOMDocumentFragmentImpl@xercesc_3_1@@UBEPB_WXZ 100512f0 f   xerces-c_3_1:DOMDocumentFragmentImpl.cpp.obj
 0001:000502f0       ?getBaseURI@DOMDocumentTypeImpl@xercesc_3_1@@UBEPB_WXZ 100512f0 f   xerces-c_3_1:DOMDocumentTypeImpl.cpp.obj
 0001:000502f0       ?getBaseURI@DOMAttrImpl@xercesc_3_1@@UBEPB_WXZ 100512f0 f   xerces-c_3_1:DOMAttrImpl.cpp.obj
 0001:000502f0       ?getBaseURI@DOMCDATASectionImpl@xercesc_3_1@@UBEPB_WXZ 100512f0 f   xerces-c_3_1:DOMCDATASectionImpl.cpp.obj
 0001:000502f0       ?getBaseURI@DOMCommentImpl@xercesc_3_1@@UBEPB_WXZ 100512f0 f   xerces-c_3_1:DOMCommentImpl.cpp.obj
 0001:000502f8       ?isEqualNode@DOMDocumentTypeImpl@xercesc_3_1@@UBE_NPBVDOMNode@2@@Z 100512f8 f   xerces-c_3_1:DOMDocumentTypeImpl.cpp.obj
 0001:00050565       ?isSupported@DOMDocumentTypeImpl@xercesc_3_1@@UBE_NPB_W0@Z 10051565 f   xerces-c_3_1:DOMDocumentTypeImpl.cpp.obj
 0001:000505b7       ?getFeature@DOMDocumentTypeImpl@xercesc_3_1@@UBEPAXPB_W0@Z 100515b7 f   xerces-c_3_1:DOMDocumentTypeImpl.cpp.obj
 0001:000505d8       ??0DOMNodeIDMap@xercesc_3_1@@QAE@KPAVDOMDocument@1@@Z 100515d8 f   xerces-c_3_1:DOMNodeIDMap.cpp.obj
 0001:0005062a       ?add@DOMNodeIDMap@xercesc_3_1@@QAEXPAVDOMAttr@2@@Z 1005162a f   xerces-c_3_1:DOMNodeIDMap.cpp.obj
 0001:000506a6       ?remove@DOMNodeIDMap@xercesc_3_1@@QAEXPAVDOMAttr@2@@Z 100516a6 f   xerces-c_3_1:DOMNodeIDMap.cpp.obj
 0001:000506fe       ?find@DOMNodeIDMap@xercesc_3_1@@QAEPAVDOMAttr@2@PB_W@Z 100516fe f   xerces-c_3_1:DOMNodeIDMap.cpp.obj
 0001:0005076d       ?growTable@DOMNodeIDMap@xercesc_3_1@@AAEXXZ 1005176d f   xerces-c_3_1:DOMNodeIDMap.cpp.obj
 0001:00050846       ?getDOMImplementation@DOMImplementationRegistry@xercesc_3_1@@SAPAVDOMImplementation@2@PB_W@Z 10051846 f   xerces-c_3_1:DOMImplementationRegistry.cpp.obj
 0001:00050908       ??0?$RefVectorOf@VDOMImplementationSource@xercesc_3_1@@@xercesc_3_1@@QAE@K_NQAVMemoryManager@1@@Z 10051908 f i xerces-c_3_1:DOMImplementationRegistry.cpp.obj
 0001:0005095d       ?addElement@?$BaseRefVectorOf@VDOMImplementationSource@xercesc_3_1@@@xercesc_3_1@@QAEXQAVDOMImplementationSource@2@@Z 1005195d f i xerces-c_3_1:DOMImplementationRegistry.cpp.obj
 0001:000509e5       ??_E?$RefVectorOf@VDOMImplementationSource@xercesc_3_1@@@xercesc_3_1@@UAEPAXI@Z 100519e5 f i * CIL library *:* CIL module *
 0001:000509e5       ??_G?$RefVectorOf@VDOMImplementationSource@xercesc_3_1@@@xercesc_3_1@@UAEPAXI@Z 100519e5 f i xerces-c_3_1:DOMImplementationRegistry.cpp.obj
 0001:00050a6f       ??_G?$BaseRefVectorOf@VDOMImplementationSource@xercesc_3_1@@@xercesc_3_1@@UAEPAXI@Z 10051a6f f i xerces-c_3_1:DOMImplementationRegistry.cpp.obj
 0001:00050a6f       ??_E?$BaseRefVectorOf@VDOMImplementationSource@xercesc_3_1@@@xercesc_3_1@@UAEPAXI@Z 10051a6f f i * CIL library *:* CIL module *
 0001:00050a9f       ??_EDOMCDATASectionImpl@xercesc_3_1@@UAEPAXI@Z 10051a9f f i * CIL library *:* CIL module *
 0001:00050a9f       ??_EDOMNotationImpl@xercesc_3_1@@UAEPAXI@Z 10051a9f f i * CIL library *:* CIL module *
 0001:00050a9f       ??_EDOMTextImpl@xercesc_3_1@@UAEPAXI@Z 10051a9f f i * CIL library *:* CIL module *
 0001:00050a9f       ??_EDOMCommentImpl@xercesc_3_1@@UAEPAXI@Z 10051a9f f i * CIL library *:* CIL module *
 0001:00050a9f       ??_GDOMNotationImpl@xercesc_3_1@@UAEPAXI@Z 10051a9f f i xerces-c_3_1:DOMNotationImpl.cpp.obj
 0001:00050a9f       ??_GDOMCDATASectionImpl@xercesc_3_1@@UAEPAXI@Z 10051a9f f i xerces-c_3_1:DOMCDATASectionImpl.cpp.obj
 0001:00050a9f       ??_GDOMCommentImpl@xercesc_3_1@@UAEPAXI@Z 10051a9f f i xerces-c_3_1:DOMCommentImpl.cpp.obj
 0001:00050a9f       ??_GDOMTextImpl@xercesc_3_1@@UAEPAXI@Z 10051a9f f i xerces-c_3_1:DOMTextImpl.cpp.obj
 0001:00050ac2       ?cloneNode@DOMTextImpl@xercesc_3_1@@UBEPAVDOMNode@2@_N@Z 10051ac2 f   xerces-c_3_1:DOMTextImpl.cpp.obj
 0001:00050b50       ?getNodeName@DOMTextImpl@xercesc_3_1@@UBEPB_WXZ 10051b50 f   xerces-c_3_1:DOMTextImpl.cpp.obj
 0001:00050b56       ?getNodeType@DOMTextImpl@xercesc_3_1@@UBE?AW4NodeType@DOMNode@2@XZ 10051b56 f   xerces-c_3_1:DOMTextImpl.cpp.obj
 0001:00050b5a       ?splitText@DOMTextImpl@xercesc_3_1@@UAEPAVDOMText@2@K@Z 10051b5a f   xerces-c_3_1:DOMTextImpl.cpp.obj
 0001:00050ce0       ?isIgnorableWhitespace@DOMCDATASectionImpl@xercesc_3_1@@UBE_NXZ 10051ce0 f   xerces-c_3_1:DOMCDATASectionImpl.cpp.obj
 0001:00050ce0       ?isIgnorableWhitespace@DOMTextImpl@xercesc_3_1@@UBE_NXZ 10051ce0 f   xerces-c_3_1:DOMTextImpl.cpp.obj
 0001:00050ce0       ?getIsElementContentWhitespace@DOMCDATASectionImpl@xercesc_3_1@@UBE_NXZ 10051ce0 f   xerces-c_3_1:DOMCDATASectionImpl.cpp.obj
 0001:00050ce9       ?setIgnorableWhitespace@DOMTextImpl@xercesc_3_1@@MAEX_N@Z 10051ce9 f   xerces-c_3_1:DOMTextImpl.cpp.obj
 0001:00050d0b       ?getIsElementContentWhitespace@DOMTextImpl@xercesc_3_1@@UBE_NXZ 10051d0b f   xerces-c_3_1:DOMTextImpl.cpp.obj
 0001:00050d13       ?getWholeText@DOMTextImpl@xercesc_3_1@@UBEPB_WXZ 10051d13 f   xerces-c_3_1:DOMTextImpl.cpp.obj
 0001:00050ef0       ?replaceWholeText@DOMTextImpl@xercesc_3_1@@UAEPAVDOMText@2@PB_W@Z 10051ef0 f   xerces-c_3_1:DOMTextImpl.cpp.obj
 0001:00051172       ?release@DOMTextImpl@xercesc_3_1@@UAEXXZ 10052172 f   xerces-c_3_1:DOMTextImpl.cpp.obj
 0001:000512c4       ?appendChild@DOMTextImpl@xercesc_3_1@@UAEPAVDOMNode@2@PAV32@@Z 100522c4 f   xerces-c_3_1:DOMTextImpl.cpp.obj
 0001:000512c4       ?appendChild@DOMNotationImpl@xercesc_3_1@@UAEPAVDOMNode@2@PAV32@@Z 100522c4 f   xerces-c_3_1:DOMNotationImpl.cpp.obj
 0001:000512c4       ?appendChild@DOMCommentImpl@xercesc_3_1@@UAEPAVDOMNode@2@PAV32@@Z 100522c4 f   xerces-c_3_1:DOMCommentImpl.cpp.obj
 0001:000512c4       ?appendChild@DOMCDATASectionImpl@xercesc_3_1@@UAEPAVDOMNode@2@PAV32@@Z 100522c4 f   xerces-c_3_1:DOMCDATASectionImpl.cpp.obj
 0001:000512c4       ?appendChild@DOMProcessingInstructionImpl@xercesc_3_1@@UAEPAVDOMNode@2@PAV32@@Z 100522c4 f   xerces-c_3_1:DOMProcessingInstructionImpl.cpp.obj
 0001:000512ce       ?getChildNodes@DOMProcessingInstructionImpl@xercesc_3_1@@UBEPAVDOMNodeList@2@XZ 100522ce f   xerces-c_3_1:DOMProcessingInstructionImpl.cpp.obj
 0001:000512ce       ?getChildNodes@DOMTextImpl@xercesc_3_1@@UBEPAVDOMNodeList@2@XZ 100522ce f   xerces-c_3_1:DOMTextImpl.cpp.obj
 0001:000512ce       ?getChildNodes@DOMNotationImpl@xercesc_3_1@@UBEPAVDOMNodeList@2@XZ 100522ce f   xerces-c_3_1:DOMNotationImpl.cpp.obj
 0001:000512ce       ?getChildNodes@DOMCDATASectionImpl@xercesc_3_1@@UBEPAVDOMNodeList@2@XZ 100522ce f   xerces-c_3_1:DOMCDATASectionImpl.cpp.obj
 0001:000512ce       ?getChildNodes@DOMCommentImpl@xercesc_3_1@@UBEPAVDOMNodeList@2@XZ 100522ce f   xerces-c_3_1:DOMCommentImpl.cpp.obj
 0001:000512d4       ?getData@DOMCDATASectionImpl@xercesc_3_1@@UBEPB_WXZ 100522d4 f   xerces-c_3_1:DOMCDATASectionImpl.cpp.obj
 0001:000512d4       ?getNodeValue@DOMTextImpl@xercesc_3_1@@UBEPB_WXZ 100522d4 f   xerces-c_3_1:DOMTextImpl.cpp.obj
 0001:000512d4       ?getNodeValue@DOMCommentImpl@xercesc_3_1@@UBEPB_WXZ 100522d4 f   xerces-c_3_1:DOMCommentImpl.cpp.obj
 0001:000512d4       ?getData@DOMTextImpl@xercesc_3_1@@UBEPB_WXZ 100522d4 f   xerces-c_3_1:DOMTextImpl.cpp.obj
 0001:000512d4       ?getData@DOMCommentImpl@xercesc_3_1@@UBEPB_WXZ 100522d4 f   xerces-c_3_1:DOMCommentImpl.cpp.obj
 0001:000512d4       ?getData@DOMProcessingInstructionImpl@xercesc_3_1@@UBEPB_WXZ 100522d4 f   xerces-c_3_1:DOMProcessingInstructionImpl.cpp.obj
 0001:000512d4       ?getNodeValue@DOMProcessingInstructionImpl@xercesc_3_1@@UBEPB_WXZ 100522d4 f   xerces-c_3_1:DOMProcessingInstructionImpl.cpp.obj
 0001:000512d4       ?getNodeValue@DOMCDATASectionImpl@xercesc_3_1@@UBEPB_WXZ 100522d4 f   xerces-c_3_1:DOMCDATASectionImpl.cpp.obj
 0001:000512e7       ?getOwnerDocument@DOMCommentImpl@xercesc_3_1@@UBEPAVDOMDocument@2@XZ 100522e7 f   xerces-c_3_1:DOMCommentImpl.cpp.obj
 0001:000512e7       ?getOwnerDocument@DOMNotationImpl@xercesc_3_1@@UBEPAVDOMDocument@2@XZ 100522e7 f   xerces-c_3_1:DOMNotationImpl.cpp.obj
 0001:000512e7       ?getOwnerDocument@DOMTextImpl@xercesc_3_1@@UBEPAVDOMDocument@2@XZ 100522e7 f   xerces-c_3_1:DOMTextImpl.cpp.obj
 0001:000512e7       ?getOwnerDocument@DOMProcessingInstructionImpl@xercesc_3_1@@UBEPAVDOMDocument@2@XZ 100522e7 f   xerces-c_3_1:DOMProcessingInstructionImpl.cpp.obj
 0001:000512e7       ?getOwnerDocument@DOMCDATASectionImpl@xercesc_3_1@@UBEPAVDOMDocument@2@XZ 100522e7 f   xerces-c_3_1:DOMCDATASectionImpl.cpp.obj
 0001:000512ef       ?getPreviousSibling@DOMCDATASectionImpl@xercesc_3_1@@UBEPAVDOMNode@2@XZ 100522ef f   xerces-c_3_1:DOMCDATASectionImpl.cpp.obj
 0001:000512ef       ?getPreviousSibling@DOMCommentImpl@xercesc_3_1@@UBEPAVDOMNode@2@XZ 100522ef f   xerces-c_3_1:DOMCommentImpl.cpp.obj
 0001:000512ef       ?getPreviousSibling@DOMTextImpl@xercesc_3_1@@UBEPAVDOMNode@2@XZ 100522ef f   xerces-c_3_1:DOMTextImpl.cpp.obj
 0001:000512ef       ?getPreviousSibling@DOMProcessingInstructionImpl@xercesc_3_1@@UBEPAVDOMNode@2@XZ 100522ef f   xerces-c_3_1:DOMProcessingInstructionImpl.cpp.obj
 0001:00051300       ?insertBefore@DOMProcessingInstructionImpl@xercesc_3_1@@UAEPAVDOMNode@2@PAV32@0@Z 10052300 f   xerces-c_3_1:DOMProcessingInstructionImpl.cpp.obj
 0001:00051300       ?replaceChild@DOMProcessingInstructionImpl@xercesc_3_1@@UAEPAVDOMNode@2@PAV32@0@Z 10052300 f   xerces-c_3_1:DOMProcessingInstructionImpl.cpp.obj
 0001:00051300       ?insertBefore@DOMCDATASectionImpl@xercesc_3_1@@UAEPAVDOMNode@2@PAV32@0@Z 10052300 f   xerces-c_3_1:DOMCDATASectionImpl.cpp.obj
 0001:00051300       ?replaceChild@DOMTextImpl@xercesc_3_1@@UAEPAVDOMNode@2@PAV32@0@Z 10052300 f   xerces-c_3_1:DOMTextImpl.cpp.obj
 0001:00051300       ?replaceChild@DOMCDATASectionImpl@xercesc_3_1@@UAEPAVDOMNode@2@PAV32@0@Z 10052300 f   xerces-c_3_1:DOMCDATASectionImpl.cpp.obj
 0001:00051300       ?insertBefore@DOMNotationImpl@xercesc_3_1@@UAEPAVDOMNode@2@PAV32@0@Z 10052300 f   xerces-c_3_1:DOMNotationImpl.cpp.obj
 0001:00051300       ?replaceChild@DOMCommentImpl@xercesc_3_1@@UAEPAVDOMNode@2@PAV32@0@Z 10052300 f   xerces-c_3_1:DOMCommentImpl.cpp.obj
 0001:00051300       ?insertBefore@DOMTextImpl@xercesc_3_1@@UAEPAVDOMNode@2@PAV32@0@Z 10052300 f   xerces-c_3_1:DOMTextImpl.cpp.obj
 0001:00051300       ?insertBefore@DOMCommentImpl@xercesc_3_1@@UAEPAVDOMNode@2@PAV32@0@Z 10052300 f   xerces-c_3_1:DOMCommentImpl.cpp.obj
 0001:00051300       ?replaceChild@DOMNotationImpl@xercesc_3_1@@UAEPAVDOMNode@2@PAV32@0@Z 10052300 f   xerces-c_3_1:DOMNotationImpl.cpp.obj
 0001:0005130b       ?removeChild@DOMNotationImpl@xercesc_3_1@@UAEPAVDOMNode@2@PAV32@@Z 1005230b f   xerces-c_3_1:DOMNotationImpl.cpp.obj
 0001:0005130b       ?removeChild@DOMProcessingInstructionImpl@xercesc_3_1@@UAEPAVDOMNode@2@PAV32@@Z 1005230b f   xerces-c_3_1:DOMProcessingInstructionImpl.cpp.obj
 0001:0005130b       ?removeChild@DOMCommentImpl@xercesc_3_1@@UAEPAVDOMNode@2@PAV32@@Z 1005230b f   xerces-c_3_1:DOMCommentImpl.cpp.obj
 0001:0005130b       ?removeChild@DOMTextImpl@xercesc_3_1@@UAEPAVDOMNode@2@PAV32@@Z 1005230b f   xerces-c_3_1:DOMTextImpl.cpp.obj
 0001:0005130b       ?removeChild@DOMCDATASectionImpl@xercesc_3_1@@UAEPAVDOMNode@2@PAV32@@Z 1005230b f   xerces-c_3_1:DOMCDATASectionImpl.cpp.obj
 0001:00051315       ?isSupported@DOMEntityReferenceImpl@xercesc_3_1@@UBE_NPB_W0@Z 10052315 f   xerces-c_3_1:DOMEntityReferenceImpl.cpp.obj
 0001:00051315       ?isSupported@DOMProcessingInstructionImpl@xercesc_3_1@@UBE_NPB_W0@Z 10052315 f   xerces-c_3_1:DOMProcessingInstructionImpl.cpp.obj
 0001:00051315       ?isSupported@DOMDocumentFragmentImpl@xercesc_3_1@@UBE_NPB_W0@Z 10052315 f   xerces-c_3_1:DOMDocumentFragmentImpl.cpp.obj
 0001:00051315       ?isSupported@DOMElementImpl@xercesc_3_1@@UBE_NPB_W0@Z 10052315 f   xerces-c_3_1:DOMElementImpl.cpp.obj
 0001:00051315       ?isSupported@DOMCommentImpl@xercesc_3_1@@UBE_NPB_W0@Z 10052315 f   xerces-c_3_1:DOMCommentImpl.cpp.obj
 0001:00051315       ?isSupported@DOMTextImpl@xercesc_3_1@@UBE_NPB_W0@Z 10052315 f   xerces-c_3_1:DOMTextImpl.cpp.obj
 0001:00051315       ?isSupported@DOMNotationImpl@xercesc_3_1@@UBE_NPB_W0@Z 10052315 f   xerces-c_3_1:DOMNotationImpl.cpp.obj
 0001:00051315       ?isSupported@DOMCDATASectionImpl@xercesc_3_1@@UBE_NPB_W0@Z 10052315 f   xerces-c_3_1:DOMCDATASectionImpl.cpp.obj
 0001:00051315       ?isSupported@DOMEntityImpl@xercesc_3_1@@UBE_NPB_W0@Z 10052315 f   xerces-c_3_1:DOMEntityImpl.cpp.obj
 0001:00051324       ?isEqualNode@DOMNotationImpl@xercesc_3_1@@UBE_NPBVDOMNode@2@@Z 10052324 f   xerces-c_3_1:DOMNotationImpl.cpp.obj
 0001:00051324       ?isEqualNode@DOMCDATASectionImpl@xercesc_3_1@@UBE_NPBVDOMNode@2@@Z 10052324 f   xerces-c_3_1:DOMCDATASectionImpl.cpp.obj
 0001:00051324       ?isEqualNode@DOMProcessingInstructionImpl@xercesc_3_1@@UBE_NPBVDOMNode@2@@Z 10052324 f   xerces-c_3_1:DOMProcessingInstructionImpl.cpp.obj
 0001:00051324       ?isEqualNode@DOMCommentImpl@xercesc_3_1@@UBE_NPBVDOMNode@2@@Z 10052324 f   xerces-c_3_1:DOMCommentImpl.cpp.obj
 0001:00051324       ?isEqualNode@DOMTextImpl@xercesc_3_1@@UBE_NPBVDOMNode@2@@Z 10052324 f   xerces-c_3_1:DOMTextImpl.cpp.obj
 0001:00051330       ?getName@XSIDCDefinition@xercesc_3_1@@UBEPB_WXZ 10052330 f   xerces-c_3_1:XSIDCDefinition.cpp.obj
 0001:00051330       ?getLength@DOMCDATASectionImpl@xercesc_3_1@@UBEKXZ 10052330 f   xerces-c_3_1:DOMCDATASectionImpl.cpp.obj
 0001:00051330       ?getLength@DOMTextImpl@xercesc_3_1@@UBEKXZ 10052330 f   xerces-c_3_1:DOMTextImpl.cpp.obj
 0001:00051330       ?getLength@DOMCommentImpl@xercesc_3_1@@UBEKXZ 10052330 f   xerces-c_3_1:DOMCommentImpl.cpp.obj
 0001:00051337       ?substringData@DOMCDATASectionImpl@xercesc_3_1@@UBEPB_WKK@Z 10052337 f   xerces-c_3_1:DOMCDATASectionImpl.cpp.obj
 0001:00051337       ?substringData@DOMCommentImpl@xercesc_3_1@@UBEPB_WKK@Z 10052337 f   xerces-c_3_1:DOMCommentImpl.cpp.obj
 0001:00051337       ?substringData@DOMTextImpl@xercesc_3_1@@UBEPB_WKK@Z 10052337 f   xerces-c_3_1:DOMTextImpl.cpp.obj
 0001:0005134d       ?appendData@DOMCommentImpl@xercesc_3_1@@UAEXPB_W@Z 1005234d f   xerces-c_3_1:DOMCommentImpl.cpp.obj
 0001:0005134d       ?appendData@DOMTextImpl@xercesc_3_1@@UAEXPB_W@Z 1005234d f   xerces-c_3_1:DOMTextImpl.cpp.obj
 0001:0005134d       ?appendData@DOMCDATASectionImpl@xercesc_3_1@@UAEXPB_W@Z 1005234d f   xerces-c_3_1:DOMCDATASectionImpl.cpp.obj
 0001:00051360       ?insertData@DOMTextImpl@xercesc_3_1@@UAEXKPB_W@Z 10052360 f   xerces-c_3_1:DOMTextImpl.cpp.obj
 0001:00051360       ?insertData@DOMCDATASectionImpl@xercesc_3_1@@UAEXKPB_W@Z 10052360 f   xerces-c_3_1:DOMCDATASectionImpl.cpp.obj
 0001:00051360       ?insertData@DOMCommentImpl@xercesc_3_1@@UAEXKPB_W@Z 10052360 f   xerces-c_3_1:DOMCommentImpl.cpp.obj
 0001:00051376       ?deleteData@DOMCDATASectionImpl@xercesc_3_1@@UAEXKK@Z 10052376 f   xerces-c_3_1:DOMCDATASectionImpl.cpp.obj
 0001:00051376       ?deleteData@DOMTextImpl@xercesc_3_1@@UAEXKK@Z 10052376 f   xerces-c_3_1:DOMTextImpl.cpp.obj
 0001:00051376       ?deleteData@DOMCommentImpl@xercesc_3_1@@UAEXKK@Z 10052376 f   xerces-c_3_1:DOMCommentImpl.cpp.obj
 0001:0005138c       ?replaceData@DOMCommentImpl@xercesc_3_1@@UAEXKKPB_W@Z 1005238c f   xerces-c_3_1:DOMCommentImpl.cpp.obj
 0001:0005138c       ?replaceData@DOMCDATASectionImpl@xercesc_3_1@@UAEXKKPB_W@Z 1005238c f   xerces-c_3_1:DOMCDATASectionImpl.cpp.obj
 0001:0005138c       ?replaceData@DOMTextImpl@xercesc_3_1@@UAEXKKPB_W@Z 1005238c f   xerces-c_3_1:DOMTextImpl.cpp.obj
 0001:000513a5       ?setData@DOMTextImpl@xercesc_3_1@@UAEXPB_W@Z 100523a5 f   xerces-c_3_1:DOMTextImpl.cpp.obj
 0001:000513a5       ?setNodeValue@DOMTextImpl@xercesc_3_1@@UAEXPB_W@Z 100523a5 f   xerces-c_3_1:DOMTextImpl.cpp.obj
 0001:000513a5       ?setData@DOMProcessingInstructionImpl@xercesc_3_1@@UAEXPB_W@Z 100523a5 f   xerces-c_3_1:DOMProcessingInstructionImpl.cpp.obj
 0001:000513a5       ?setData@DOMCommentImpl@xercesc_3_1@@UAEXPB_W@Z 100523a5 f   xerces-c_3_1:DOMCommentImpl.cpp.obj
 0001:000513a5       ?setNodeValue@DOMProcessingInstructionImpl@xercesc_3_1@@UAEXPB_W@Z 100523a5 f   xerces-c_3_1:DOMProcessingInstructionImpl.cpp.obj
 0001:000513a5       ?setData@DOMCDATASectionImpl@xercesc_3_1@@UAEXPB_W@Z 100523a5 f   xerces-c_3_1:DOMCDATASectionImpl.cpp.obj
 0001:000513a5       ?setNodeValue@DOMCDATASectionImpl@xercesc_3_1@@UAEXPB_W@Z 100523a5 f   xerces-c_3_1:DOMCDATASectionImpl.cpp.obj
 0001:000513a5       ?setNodeValue@DOMCommentImpl@xercesc_3_1@@UAEXPB_W@Z 100523a5 f   xerces-c_3_1:DOMCommentImpl.cpp.obj
 0001:000513b8       ?appendData@DOMTextImpl@xercesc_3_1@@UAEXPB_WK@Z 100523b8 f   xerces-c_3_1:DOMTextImpl.cpp.obj
 0001:000513ce       ??_EXMLInternalErrorHandler@xercesc_3_1@@UAEPAXI@Z 100523ce f i * CIL library *:* CIL module *
 0001:000513ce       ??_GXMLInternalErrorHandler@xercesc_3_1@@UAEPAXI@Z 100523ce f i xerces-c_3_1:XIncludeUtils.cpp.obj
 0001:000513f1       ?warning@XMLInternalErrorHandler@xercesc_3_1@@UAEXABVSAXParseException@2@@Z 100523f1 f i xerces-c_3_1:XIncludeUtils.cpp.obj
 0001:00051409       ?error@XMLInternalErrorHandler@xercesc_3_1@@UAEXABVSAXParseException@2@@Z 10052409 f i xerces-c_3_1:XIncludeUtils.cpp.obj
 0001:00051421       ?fatalError@XMLInternalErrorHandler@xercesc_3_1@@UAEXABVSAXParseException@2@@Z 10052421 f i xerces-c_3_1:XIncludeUtils.cpp.obj
 0001:00051439       ?resetErrors@XMLInternalErrorHandler@xercesc_3_1@@UAEXXZ 10052439 f i xerces-c_3_1:XIncludeUtils.cpp.obj
 0001:00051443       ??1XIncludeUtils@xercesc_3_1@@AAE@XZ 10052443 f   xerces-c_3_1:XIncludeUtils.cpp.obj
 0001:0005149d       ?parseDOMNodeDoingXInclude@XIncludeUtils@xercesc_3_1@@AAE_NPAVDOMNode@2@PAVDOMDocument@2@PAVXMLEntityHandler@2@@Z 1005249d f   xerces-c_3_1:XIncludeUtils.cpp.obj
 0001:00051609       ?doDOMNodeXInclude@XIncludeUtils@xercesc_3_1@@AAE_NPAVDOMNode@2@PAVDOMDocument@2@PAVXMLEntityHandler@2@@Z 10052609 f   xerces-c_3_1:XIncludeUtils.cpp.obj
 0001:00052185       ?doXIncludeXMLFileDOM@XIncludeUtils@xercesc_3_1@@AAEPAVDOMDocument@2@PB_W0PAVDOMNode@2@PAV32@PAVXMLEntityHandler@2@@Z 10053185 f   xerces-c_3_1:XIncludeUtils.cpp.obj
 0001:00052523       ?doXIncludeTEXTFileDOM@XIncludeUtils@xercesc_3_1@@AAEPAVDOMText@2@PB_W00PAVDOMNode@2@PAVDOMDocument@2@PAVXMLEntityHandler@2@@Z 10053523 f   xerces-c_3_1:XIncludeUtils.cpp.obj
 0001:00052854       ?isXIIncludeDOMNode@XIncludeUtils@xercesc_3_1@@CA_NPAVDOMNode@2@@Z 10053854 f   xerces-c_3_1:XIncludeUtils.cpp.obj
 0001:00052899       ?isXIFallbackDOMNode@XIncludeUtils@xercesc_3_1@@CA_NPAVDOMNode@2@@Z 10053899 f   xerces-c_3_1:XIncludeUtils.cpp.obj
 0001:000528de       ?reportError@XIncludeUtils@xercesc_3_1@@AAE_NQBVDOMNode@2@W4Codes@XMLErrs@2@QB_W2@Z 100538de f   xerces-c_3_1:XIncludeUtils.cpp.obj
 0001:00052979       ?getDefaultScanner@XMLScannerResolver@xercesc_3_1@@SAPAVXMLScanner@2@QAVXMLValidator@2@QAVGrammarResolver@2@QAVMemoryManager@2@@Z 10053979 f   xerces-c_3_1:XMLScannerResolver.cpp.obj
 0001:000529be       ?resolveScanner@XMLScannerResolver@xercesc_3_1@@SAPAVXMLScanner@2@QB_WQAVXMLValidator@2@QAVGrammarResolver@2@QAVMemoryManager@2@@Z 100539be f   xerces-c_3_1:XMLScannerResolver.cpp.obj
 0001:00052ad2       ??0EndOfEntityException@xercesc_3_1@@QAE@ABV01@@Z 10053ad2 f i xerces-c_3_1:ReaderMgr.cpp.obj
 0001:00052ae8       ?getNextChar@XMLReader@xercesc_3_1@@QAE_NAA_W@Z 10053ae8 f i xerces-c_3_1:ReaderMgr.cpp.obj
 0001:00052b4e       ?peekNextChar@XMLReader@xercesc_3_1@@QAE_NAA_W@Z 10053b4e f i xerces-c_3_1:ReaderMgr.cpp.obj
 0001:00052bb8       ??_GLocator@xercesc_3_1@@UAEPAXI@Z 10053bb8 f i xerces-c_3_1:ReaderMgr.cpp.obj
 0001:00052bb8       ??_ELocator@xercesc_3_1@@UAEPAXI@Z 10053bb8 f i * CIL library *:* CIL module *
 0001:00052bdb       ??0ReaderMgr@xercesc_3_1@@QAE@QAVMemoryManager@1@@Z 10053bdb f   xerces-c_3_1:ReaderMgr.cpp.obj
 0001:00052c11       ??_GReaderMgr@xercesc_3_1@@UAEPAXI@Z 10053c11 f i xerces-c_3_1:ReaderMgr.cpp.obj
 0001:00052c11       ??_EReaderMgr@xercesc_3_1@@UAEPAXI@Z 10053c11 f i * CIL library *:* CIL module *
 0001:00052c42       ??1ReaderMgr@xercesc_3_1@@UAE@XZ 10053c42 f   xerces-c_3_1:ReaderMgr.cpp.obj
 0001:00052c8c       ??_GXMLReader@xercesc_3_1@@QAEPAXI@Z 10053c8c f i xerces-c_3_1:ReaderMgr.cpp.obj
 0001:00052d16       ?getNextChar@ReaderMgr@xercesc_3_1@@QAE_WXZ 10053d16 f   xerces-c_3_1:ReaderMgr.cpp.obj
 0001:00052d4f       ?getSpaces@ReaderMgr@xercesc_3_1@@QAEXAAVXMLBuffer@2@@Z 10053d4f f   xerces-c_3_1:ReaderMgr.cpp.obj
 0001:00052d81       ?getUpToCharOrWS@ReaderMgr@xercesc_3_1@@QAEXAAVXMLBuffer@2@_W@Z 10053d81 f   xerces-c_3_1:ReaderMgr.cpp.obj
 0001:00052db4       ?peekNextChar@ReaderMgr@xercesc_3_1@@QAE_WXZ 10053db4 f   xerces-c_3_1:ReaderMgr.cpp.obj
 0001:00052ded       ?skippedChar@ReaderMgr@xercesc_3_1@@QAE_N_W@Z 10053ded f   xerces-c_3_1:ReaderMgr.cpp.obj
 0001:00052e4f       ?skippedSpace@ReaderMgr@xercesc_3_1@@QAE_NXZ 10053e4f f   xerces-c_3_1:ReaderMgr.cpp.obj
 0001:00052eda       ?skipIfQuote@ReaderMgr@xercesc_3_1@@QAE_NAA_W@Z 10053eda f   xerces-c_3_1:ReaderMgr.cpp.obj
 0001:00052f45       ?skipPastSpaces@ReaderMgr@xercesc_3_1@@QAEXAA_N_N@Z 10053f45 f   xerces-c_3_1:ReaderMgr.cpp.obj
 0001:00052f75       ?skipUntilIn@ReaderMgr@xercesc_3_1@@QAE_WQB_W@Z 10053f75 f   xerces-c_3_1:ReaderMgr.cpp.obj
 0001:00052fac       ?skipUntilInOrWS@ReaderMgr@xercesc_3_1@@QAE_WQB_W@Z 10053fac f   xerces-c_3_1:ReaderMgr.cpp.obj
 0001:00052ff5       ?cleanStackBackTo@ReaderMgr@xercesc_3_1@@QAEXK@Z 10053ff5 f   xerces-c_3_1:ReaderMgr.cpp.obj
 0001:0005306f       ?createReader@ReaderMgr@xercesc_3_1@@QAEPAVXMLReader@2@ABVInputSource@2@_NW4RefFrom@32@W4Types@32@W4Sources@32@1K@Z 1005406f f   xerces-c_3_1:ReaderMgr.cpp.obj
 0001:0005318d       ?createReader@ReaderMgr@xercesc_3_1@@QAEPAVXMLReader@2@QB_W0_NW4RefFrom@32@W4Types@32@W4Sources@32@AAPAVInputSource@2@1K1@Z 1005418d f   xerces-c_3_1:ReaderMgr.cpp.obj
 0001:0005347d       ?createReader@ReaderMgr@xercesc_3_1@@QAEPAVXMLReader@2@QB_W00_NW4RefFrom@32@W4Types@32@W4Sources@32@AAPAVInputSource@2@1K1@Z 1005447d f   xerces-c_3_1:ReaderMgr.cpp.obj
 0001:00053771       ?createIntEntReader@ReaderMgr@xercesc_3_1@@QAEPAVXMLReader@2@QB_WW4RefFrom@32@W4Types@32@0K_N3K@Z 10054771 f   xerces-c_3_1:ReaderMgr.cpp.obj
 0001:0005382c       ?getLastExtEntityInfo@ReaderMgr@xercesc_3_1@@QBEXAAULastExtEntityInfo@12@@Z 1005482c f   xerces-c_3_1:ReaderMgr.cpp.obj
 0001:0005389a       ?pushReader@ReaderMgr@xercesc_3_1@@QAE_NQAVXMLReader@2@QAVXMLEntityDecl@2@@Z 1005489a f   xerces-c_3_1:ReaderMgr.cpp.obj
 0001:000539a2       ?reset@ReaderMgr@xercesc_3_1@@QAEXXZ 100549a2 f   xerces-c_3_1:ReaderMgr.cpp.obj
 0001:000539d8       ?getPublicId@ReaderMgr@xercesc_3_1@@UBEPB_WXZ 100549d8 f   xerces-c_3_1:ReaderMgr.cpp.obj
 0001:00053a00       ?getSystemId@ReaderMgr@xercesc_3_1@@UBEPB_WXZ 10054a00 f   xerces-c_3_1:ReaderMgr.cpp.obj
 0001:00053a28       ?getColumnNumber@ReaderMgr@xercesc_3_1@@UBE_KXZ 10054a28 f   xerces-c_3_1:ReaderMgr.cpp.obj
 0001:00053a57       ?getLineNumber@ReaderMgr@xercesc_3_1@@UBE_KXZ 10054a57 f   xerces-c_3_1:ReaderMgr.cpp.obj
 0001:00053a86       ?getLastExtEntity@ReaderMgr@xercesc_3_1@@ABEPBVXMLReader@2@AAPBVXMLEntityDecl@2@@Z 10054a86 f   xerces-c_3_1:ReaderMgr.cpp.obj
 0001:00053ae7       ?popReader@ReaderMgr@xercesc_3_1@@AAE_NXZ 10054ae7 f   xerces-c_3_1:ReaderMgr.cpp.obj
 0001:00053bbd       ??0?$RefStackOf@VXMLEntityDecl@xercesc_3_1@@@xercesc_3_1@@QAE@K_NQAVMemoryManager@1@@Z 10054bbd f i xerces-c_3_1:ReaderMgr.cpp.obj
 0001:00053c0e       ?elementAt@?$RefStackOf@VXMLEntityDecl@xercesc_3_1@@@xercesc_3_1@@QBEPBVXMLEntityDecl@2@K@Z 10054c0e f i xerces-c_3_1:ReaderMgr.cpp.obj
 0001:00053c55       ?pop@?$RefStackOf@VXMLEntityDecl@xercesc_3_1@@@xercesc_3_1@@QAEPAVXMLEntityDecl@2@XZ 10054c55 f i xerces-c_3_1:ReaderMgr.cpp.obj
 0001:00053c55       ?pop@?$RefStackOf@VXMLReader@xercesc_3_1@@@xercesc_3_1@@QAEPAVXMLReader@2@XZ 10054c55 f i xerces-c_3_1:ReaderMgr.cpp.obj
 0001:00053c93       ??0?$RefStackOf@VXMLReader@xercesc_3_1@@@xercesc_3_1@@QAE@K_NQAVMemoryManager@1@@Z 10054c93 f i xerces-c_3_1:ReaderMgr.cpp.obj
 0001:00053ce4       ?elementAt@?$RefStackOf@VXMLReader@xercesc_3_1@@@xercesc_3_1@@QBEPBVXMLReader@2@K@Z 10054ce4 f i xerces-c_3_1:ReaderMgr.cpp.obj
 0001:00053d24       ??1?$RefVectorOf@VXMLReader@xercesc_3_1@@@xercesc_3_1@@UAE@XZ 10054d24 f i xerces-c_3_1:ReaderMgr.cpp.obj
 0001:00053d88       ?setElementAt@?$BaseRefVectorOf@VXMLReader@xercesc_3_1@@@xercesc_3_1@@UAEXQAVXMLReader@2@K@Z 10054d88 f i xerces-c_3_1:ReaderMgr.cpp.obj
 0001:00053de4       ?removeAllElements@?$BaseRefVectorOf@VXMLReader@xercesc_3_1@@@xercesc_3_1@@UAEXXZ 10054de4 f i xerces-c_3_1:ReaderMgr.cpp.obj
 0001:00053e19       ?removeElementAt@?$BaseRefVectorOf@VXMLReader@xercesc_3_1@@@xercesc_3_1@@UAEXK@Z 10054e19 f i xerces-c_3_1:ReaderMgr.cpp.obj
 0001:00053ea8       ?removeLastElement@?$BaseRefVectorOf@VXMLReader@xercesc_3_1@@@xercesc_3_1@@UAEXXZ 10054ea8 f i xerces-c_3_1:ReaderMgr.cpp.obj
 0001:00053ecc       ?cleanup@?$BaseRefVectorOf@VXMLReader@xercesc_3_1@@@xercesc_3_1@@UAEXXZ 10054ecc f i xerces-c_3_1:ReaderMgr.cpp.obj
 0001:00053f01       ??1?$RefVectorOf@VXMLEntityDecl@xercesc_3_1@@@xercesc_3_1@@UAE@XZ 10054f01 f i xerces-c_3_1:ReaderMgr.cpp.obj
 0001:00053f65       ??_G?$RefVectorOf@VXMLReader@xercesc_3_1@@@xercesc_3_1@@UAEPAXI@Z 10054f65 f i xerces-c_3_1:ReaderMgr.cpp.obj
 0001:00053f65       ??_E?$RefVectorOf@VXMLReader@xercesc_3_1@@@xercesc_3_1@@UAEPAXI@Z 10054f65 f i * CIL library *:* CIL module *
 0001:00053f96       ??_E?$BaseRefVectorOf@VXMLReader@xercesc_3_1@@@xercesc_3_1@@UAEPAXI@Z 10054f96 f i * CIL library *:* CIL module *
 0001:00053f96       ??_G?$BaseRefVectorOf@VXMLReader@xercesc_3_1@@@xercesc_3_1@@UAEPAXI@Z 10054f96 f i xerces-c_3_1:ReaderMgr.cpp.obj
 0001:00053fc6       ??_E?$RefVectorOf@VXMLEntityDecl@xercesc_3_1@@@xercesc_3_1@@UAEPAXI@Z 10054fc6 f i * CIL library *:* CIL module *
 0001:00053fc6       ??_G?$RefVectorOf@VXMLEntityDecl@xercesc_3_1@@@xercesc_3_1@@UAEPAXI@Z 10054fc6 f i xerces-c_3_1:ReaderMgr.cpp.obj
 0001:00053ff7       ??_G?$BaseRefVectorOf@VXMLEntityDecl@xercesc_3_1@@@xercesc_3_1@@UAEPAXI@Z 10054ff7 f i xerces-c_3_1:ReaderMgr.cpp.obj
 0001:00053ff7       ??_E?$BaseRefVectorOf@VXMLEntityDecl@xercesc_3_1@@@xercesc_3_1@@UAEPAXI@Z 10054ff7 f i * CIL library *:* CIL module *
 0001:00054027       ?cloneNode@DOMCDATASectionImpl@xercesc_3_1@@UBEPAVDOMNode@2@_N@Z 10055027 f   xerces-c_3_1:DOMCDATASectionImpl.cpp.obj
 0001:000540ab       ?getNodeName@DOMCDATASectionImpl@xercesc_3_1@@UBEPB_WXZ 100550ab f   xerces-c_3_1:DOMCDATASectionImpl.cpp.obj
 0001:000540b1       ?getNodeType@DOMCDATASectionImpl@xercesc_3_1@@UBE?AW4NodeType@DOMNode@2@XZ 100550b1 f   xerces-c_3_1:DOMCDATASectionImpl.cpp.obj
 0001:000540b5       ?splitText@DOMCDATASectionImpl@xercesc_3_1@@UAEPAVDOMText@2@K@Z 100550b5 f   xerces-c_3_1:DOMCDATASectionImpl.cpp.obj
 0001:00054231       ?getWholeText@DOMCDATASectionImpl@xercesc_3_1@@UBEPB_WXZ 10055231 f   xerces-c_3_1:DOMCDATASectionImpl.cpp.obj
 0001:0005442b       ?replaceWholeText@DOMCDATASectionImpl@xercesc_3_1@@UAEPAVDOMText@2@PB_W@Z 1005542b f   xerces-c_3_1:DOMCDATASectionImpl.cpp.obj
 0001:000546a7       ?release@DOMCDATASectionImpl@xercesc_3_1@@UAEXXZ 100556a7 f   xerces-c_3_1:DOMCDATASectionImpl.cpp.obj
 0001:000547fb       ??0DOMElementImpl@xercesc_3_1@@QAE@PAVDOMDocument@1@PB_W@Z 100557fb f   xerces-c_3_1:DOMElementImpl.cpp.obj
 0001:000548e5       ??_GDOMAttrNSImpl@xercesc_3_1@@UAEPAXI@Z 100558e5 f i xerces-c_3_1:DOMAttrNSImpl.cpp.obj
 0001:000548e5       ??_EDOMAttrNSImpl@xercesc_3_1@@UAEPAXI@Z 100558e5 f i * CIL library *:* CIL module *
 0001:000548e5       ??_EDOMElementImpl@xercesc_3_1@@UAEPAXI@Z 100558e5 f i * CIL library *:* CIL module *
 0001:000548e5       ??_GDOMElementImpl@xercesc_3_1@@UAEPAXI@Z 100558e5 f i xerces-c_3_1:DOMElementImpl.cpp.obj
 0001:0005490f       ??0DOMElementImpl@xercesc_3_1@@QAE@ABV01@_N@Z 1005590f f   xerces-c_3_1:DOMElementImpl.cpp.obj
 0001:00054a51       ??1DOMElementImpl@xercesc_3_1@@UAE@XZ 10055a51 f   xerces-c_3_1:DOMElementImpl.cpp.obj
 0001:00054a51       ??1DOMAttrImpl@xercesc_3_1@@UAE@XZ 10055a51 f   xerces-c_3_1:DOMAttrImpl.cpp.obj
 0001:00054a5f       ?cloneNode@DOMElementImpl@xercesc_3_1@@UBEPAVDOMNode@2@_N@Z 10055a5f f   xerces-c_3_1:DOMElementImpl.cpp.obj
 0001:00054aba       ?getGrammarType@XMLSchemaDescription@xercesc_3_1@@UBE?AW4GrammarType@Grammar@2@XZ 10055aba f   xerces-c_3_1:XMLSchemaDescriptionImpl.cpp.obj
 0001:00054aba       ?size@ClosureToken@xercesc_3_1@@UBEKXZ 10055aba f   xerces-c_3_1:ClosureToken.cpp.obj
 0001:00054aba       ?size@ParenToken@xercesc_3_1@@UBEKXZ 10055aba f   xerces-c_3_1:ParenToken.cpp.obj
 0001:00054aba       ?getGrammarType@SchemaGrammar@xercesc_3_1@@UBE?AW4GrammarType@Grammar@2@XZ 10055aba f   xerces-c_3_1:SchemaGrammar.cpp.obj
 0001:00054aba       ?getNodeType@DOMElementImpl@xercesc_3_1@@UBE?AW4NodeType@DOMNode@2@XZ 10055aba f   xerces-c_3_1:DOMElementImpl.cpp.obj
 0001:00054aba       ?getObjectType@DTDElementDecl@xercesc_3_1@@UBE?AW4objectType@XMLElementDecl@2@XZ 10055aba f   xerces-c_3_1:DTDElementDecl.cpp.obj
 0001:00054aba       __get_startup_argv_mode    10055aba f   LIBCMT:argv_mode.obj
 0001:00054aba       ?getType@IC_Key@xercesc_3_1@@UBEFXZ 10055aba f   xerces-c_3_1:IC_Key.cpp.obj
 0001:00054abe       ?getAttribute@DOMElementImpl@xercesc_3_1@@UBEPB_WPB_W@Z 10055abe f   xerces-c_3_1:DOMElementImpl.cpp.obj
 0001:00054ae2       ?getAttributeNode@DOMElementImpl@xercesc_3_1@@UBEPAVDOMAttr@2@PB_W@Z 10055ae2 f   xerces-c_3_1:DOMElementImpl.cpp.obj
 0001:00054aee       ?getElementsByTagName@DOMElementImpl@xercesc_3_1@@UBEPAVDOMNodeList@2@PB_W@Z 10055aee f   xerces-c_3_1:DOMElementImpl.cpp.obj
 0001:00054b0a       ?removeAttribute@DOMElementImpl@xercesc_3_1@@UAEXPB_W@Z 10055b0a f   xerces-c_3_1:DOMElementImpl.cpp.obj
 0001:00054b9a       ?removeAttributeNode@DOMElementImpl@xercesc_3_1@@UAEPAVDOMAttr@2@PAV32@@Z 10055b9a f   xerces-c_3_1:DOMElementImpl.cpp.obj
 0001:00054c9c       ?setAttribute@DOMElementImpl@xercesc_3_1@@UAEXPB_W0@Z 10055c9c f   xerces-c_3_1:DOMElementImpl.cpp.obj
 0001:00054d2f       ?setIdAttribute@DOMElementImpl@xercesc_3_1@@UAEXPB_W_N@Z 10055d2f f   xerces-c_3_1:DOMElementImpl.cpp.obj
 0001:00054df1       ?setIdAttributeNS@DOMElementImpl@xercesc_3_1@@UAEXPB_W0_N@Z 10055df1 f   xerces-c_3_1:DOMElementImpl.cpp.obj
 0001:00054eb6       ?setIdAttributeNode@DOMElementImpl@xercesc_3_1@@UAEXPBVDOMAttr@2@_N@Z 10055eb6 f   xerces-c_3_1:DOMElementImpl.cpp.obj
 0001:00054fb1       ?setAttributeNode@DOMElementImpl@xercesc_3_1@@UAEPAVDOMAttr@2@PAV32@@Z 10055fb1 f   xerces-c_3_1:DOMElementImpl.cpp.obj
 0001:00055068       ?setReadOnly@DOMElementImpl@xercesc_3_1@@UAEX_N0@Z 10056068 f   xerces-c_3_1:DOMElementImpl.cpp.obj
 0001:0005508e       ?getAttributeNS@DOMElementImpl@xercesc_3_1@@UBEPB_WPB_W0@Z 1005608e f   xerces-c_3_1:DOMElementImpl.cpp.obj
 0001:000550b8       ?setAttributeNS@DOMElementImpl@xercesc_3_1@@UAEXPB_W00@Z 100560b8 f   xerces-c_3_1:DOMElementImpl.cpp.obj
 0001:0005519f       ?removeAttributeNS@DOMElementImpl@xercesc_3_1@@UAEXPB_W0@Z 1005619f f   xerces-c_3_1:DOMElementImpl.cpp.obj
 0001:00055226       ?getAttributeNodeNS@DOMElementImpl@xercesc_3_1@@UBEPAVDOMAttr@2@PB_W0@Z 10056226 f   xerces-c_3_1:DOMElementImpl.cpp.obj
 0001:00055232       ?setAttributeNodeNS@DOMElementImpl@xercesc_3_1@@UAEPAVDOMAttr@2@PAV32@@Z 10056232 f   xerces-c_3_1:DOMElementImpl.cpp.obj
 0001:000552e9       ?getElementsByTagNameNS@DOMElementImpl@xercesc_3_1@@UBEPAVDOMNodeList@2@PB_W0@Z 100562e9 f   xerces-c_3_1:DOMElementImpl.cpp.obj
 0001:00055308       ?hasAttributes@DOMElementImpl@xercesc_3_1@@UBE_NXZ 10056308 f   xerces-c_3_1:DOMElementImpl.cpp.obj
 0001:0005531e       ?hasAttribute@DOMElementImpl@xercesc_3_1@@UBE_NPB_W@Z 1005631e f   xerces-c_3_1:DOMElementImpl.cpp.obj
 0001:00055335       ?hasAttributeNS@DOMElementImpl@xercesc_3_1@@UBE_NPB_W0@Z 10056335 f   xerces-c_3_1:DOMElementImpl.cpp.obj
 0001:0005534f       ?setupDefaultAttributes@DOMElementImpl@xercesc_3_1@@MAEXXZ 1005634f f   xerces-c_3_1:DOMElementImpl.cpp.obj
 0001:000553ed       ?setDefaultAttributeNode@DOMElementImpl@xercesc_3_1@@UAEPAVDOMAttr@2@PAV32@@Z 100563ed f   xerces-c_3_1:DOMElementImpl.cpp.obj
 0001:000554b2       ?setDefaultAttributeNodeNS@DOMElementImpl@xercesc_3_1@@UAEPAVDOMAttr@2@PAV32@@Z 100564b2 f   xerces-c_3_1:DOMElementImpl.cpp.obj
 0001:00055577       ?release@DOMElementImpl@xercesc_3_1@@UAEXXZ 10056577 f   xerces-c_3_1:DOMElementImpl.cpp.obj
 0001:00055644       ?getBaseURI@DOMElementImpl@xercesc_3_1@@UBEPB_WXZ 10056644 f   xerces-c_3_1:DOMElementImpl.cpp.obj
 0001:000557cb       ?isEqualNode@DOMElementImpl@xercesc_3_1@@UBE_NPBVDOMNode@2@@Z 100567cb f   xerces-c_3_1:DOMElementImpl.cpp.obj
 0001:000558cc       ?rename@DOMElementImpl@xercesc_3_1@@UAEPAVDOMNode@2@PB_W0@Z 100568cc f   xerces-c_3_1:DOMElementImpl.cpp.obj
 0001:000559c4       ?getSchemaTypeInfo@DOMElementImpl@xercesc_3_1@@UBEPBVDOMTypeInfo@2@XZ 100569c4 f   xerces-c_3_1:DOMElementImpl.cpp.obj
 0001:000559ca       ?getFirstElementChild@DOMElementImpl@xercesc_3_1@@UBEPAVDOMElement@2@XZ 100569ca f   xerces-c_3_1:DOMElementImpl.cpp.obj
 0001:00055a00       ?getLastElementChild@DOMElementImpl@xercesc_3_1@@UBEPAVDOMElement@2@XZ 10056a00 f   xerces-c_3_1:DOMElementImpl.cpp.obj
 0001:00055a36       ?getNextElementSibling@DOMElementImpl@xercesc_3_1@@UBEPAVDOMElement@2@XZ 10056a36 f   xerces-c_3_1:DOMElementImpl.cpp.obj
 0001:00055a67       ?getPreviousElementSibling@DOMElementImpl@xercesc_3_1@@UBEPAVDOMElement@2@XZ 10056a67 f   xerces-c_3_1:DOMElementImpl.cpp.obj
 0001:00055a98       ?getChildElementCount@DOMElementImpl@xercesc_3_1@@UBEKXZ 10056a98 f   xerces-c_3_1:DOMElementImpl.cpp.obj
 0001:00055ab8       ?getFirstElementChild@DOMElementImpl@xercesc_3_1@@IBEPAVDOMElement@2@PBVDOMNode@2@@Z 10056ab8 f   xerces-c_3_1:DOMElementImpl.cpp.obj
 0001:00055b17       ?getLastElementChild@DOMElementImpl@xercesc_3_1@@IBEPAVDOMElement@2@PBVDOMNode@2@@Z 10056b17 f   xerces-c_3_1:DOMElementImpl.cpp.obj
 0001:00055b76       ?getNextLogicalSibling@DOMElementImpl@xercesc_3_1@@IBEPAVDOMNode@2@PBV32@@Z 10056b76 f   xerces-c_3_1:DOMElementImpl.cpp.obj
 0001:00055bc2       ?getPreviousLogicalSibling@DOMElementImpl@xercesc_3_1@@IBEPAVDOMNode@2@PBV32@@Z 10056bc2 f   xerces-c_3_1:DOMElementImpl.cpp.obj
 0001:00055c0e       ?getPooledNString@DOMDocumentImpl@xercesc_3_1@@QAEPB_WPB_WK@Z 10056c0e f i xerces-c_3_1:DOMAttrNSImpl.cpp.obj
 0001:00055d22       ?removeAttrFromIDNodeMap@DOMAttrImpl@xercesc_3_1@@UAEXXZ 10056d22 f i xerces-c_3_1:DOMAttrNSImpl.cpp.obj
 0001:00055d4b       ?addAttrToIDNodeMap@DOMAttrImpl@xercesc_3_1@@UAEXXZ 10056d4b f i xerces-c_3_1:DOMAttrNSImpl.cpp.obj
 0001:00055dc4       ??0DOMAttrNSImpl@xercesc_3_1@@QAE@PAVDOMDocument@1@PB_W111@Z 10056dc4 f   xerces-c_3_1:DOMAttrNSImpl.cpp.obj
 0001:00055e62       ?cloneNode@DOMAttrNSImpl@xercesc_3_1@@UBEPAVDOMNode@2@_N@Z 10056e62 f   xerces-c_3_1:DOMAttrNSImpl.cpp.obj
 0001:00055ed6       ?setPrefix@DOMAttrNSImpl@xercesc_3_1@@UAEXPB_W@Z 10056ed6 f   xerces-c_3_1:DOMAttrNSImpl.cpp.obj
 0001:000560e8       ?release@DOMAttrNSImpl@xercesc_3_1@@UAEXXZ 100570e8 f   xerces-c_3_1:DOMAttrNSImpl.cpp.obj
 0001:00056177       ?rename@DOMAttrNSImpl@xercesc_3_1@@UAEPAVDOMNode@2@PB_W0@Z 10057177 f   xerces-c_3_1:DOMAttrNSImpl.cpp.obj
 0001:000561b8       ?setName@DOMAttrNSImpl@xercesc_3_1@@QAEXPB_W0@Z 100571b8 f   xerces-c_3_1:DOMAttrNSImpl.cpp.obj
 0001:00056326       ??_GDOMElementNSImpl@xercesc_3_1@@UAEPAXI@Z 10057326 f i xerces-c_3_1:DOMElementNSImpl.cpp.obj
 0001:00056326       ??_EDOMElementNSImpl@xercesc_3_1@@UAEPAXI@Z 10057326 f i * CIL library *:* CIL module *
 0001:00056350       ??0DOMElementNSImpl@xercesc_3_1@@QAE@PAVDOMDocument@1@PB_W1@Z 10057350 f   xerces-c_3_1:DOMElementNSImpl.cpp.obj
 0001:00056398       ??0DOMElementNSImpl@xercesc_3_1@@QAE@PAVDOMDocument@1@PB_W111@Z 10057398 f   xerces-c_3_1:DOMElementNSImpl.cpp.obj
 0001:00056439       ??0DOMElementNSImpl@xercesc_3_1@@QAE@ABV01@_N@Z 10057439 f   xerces-c_3_1:DOMElementNSImpl.cpp.obj
 0001:00056476       ?cloneNode@DOMElementNSImpl@xercesc_3_1@@UBEPAVDOMNode@2@_N@Z 10057476 f   xerces-c_3_1:DOMElementNSImpl.cpp.obj
 0001:000564d1       ?setPrefix@DOMElementNSImpl@xercesc_3_1@@UAEXPB_W@Z 100574d1 f   xerces-c_3_1:DOMElementNSImpl.cpp.obj
 0001:000566ed       ?release@DOMElementNSImpl@xercesc_3_1@@UAEXXZ 100576ed f   xerces-c_3_1:DOMElementNSImpl.cpp.obj
 0001:0005678e       ?rename@DOMElementNSImpl@xercesc_3_1@@UAEPAVDOMNode@2@PB_W0@Z 1005778e f   xerces-c_3_1:DOMElementNSImpl.cpp.obj
 0001:000567c5       ?setName@DOMElementNSImpl@xercesc_3_1@@QAEXPB_W0@Z 100577c5 f   xerces-c_3_1:DOMElementNSImpl.cpp.obj
 0001:000568f4       ?getSchemaTypeInfo@DOMElementNSImpl@xercesc_3_1@@UBEPBVDOMTypeInfo@2@XZ 100578f4 f   xerces-c_3_1:DOMElementNSImpl.cpp.obj
 0001:00056901       ?setSchemaTypeInfo@DOMElementNSImpl@xercesc_3_1@@UAEXPBVDOMTypeInfoImpl@2@@Z 10057901 f   xerces-c_3_1:DOMElementNSImpl.cpp.obj
 0001:00056901       ?setBaseComplexTypeInfo@ComplexTypeInfo@xercesc_3_1@@QAEXQAV12@@Z 10057901 f   xerces-c_3_1:ComplexTypeInfo.cpp.obj
