 luafar3

 Timestamp is 5c3fd73d (Thu Jan 17 04:15:41 2019)

 Preferred load address is 10000000

 Start         Length     Name                   Class
 0001:00000000 00000004H .CRT$XCA                CODE
 0001:00000004 00000004H .CRT$XCZ                CODE
 0001:00000008 00000004H .CRT$XIA                CODE
 0001:0000000c 0000000cH .CRT$XIC                CODE
 0001:00000018 00000004H .CRT$XIZ                CODE
 0001:0000001c 00000004H .CRT$XPA                CODE
 0001:00000020 0000000cH .CRT$XPX                CODE
 0001:0000002c 00000004H .CRT$XPXA               CODE
 0001:00000030 00000004H .CRT$XPZ                CODE
 0001:00000034 00000004H .CRT$XTA                CODE
 0001:00000038 00000008H .CRT$XTZ                CODE
 0001:0000003c 00000000H .gfids$y                CODE
 0001:00000040 000155e0H .rdata                  CODE
 0001:00015620 00000000H .rdata$r                CODE
 0001:00015620 0000000cH .rdata$sxdata           CODE
 0001:0001562c 00000278H .rdata$zzzdbg           CODE
 0001:000158a4 00000004H .rtc$IAA                CODE
 0001:000158a8 00000004H .rtc$IZZ                CODE
 0001:000158ac 00000004H .rtc$TAA                CODE
 0001:000158b0 00000010H .rtc$TZZ                CODE
 0001:000158c0 0003a120H .text$mn                CODE
 0001:0004f9dc 00000000H .text$x                 CODE
 0001:0004f9e0 00000040H .text$yd                CODE
 0001:0004fa20 00000810H .xdata$x                CODE
 0001:00050230 0000049cH .edata                  CODE
 0002:00000000 00004e80H .data                   DATA
 0002:00004e80 00000000H .data$r                 DATA
 0002:00004e80 00000af0H .bss                    DATA
 0003:00000000 0000037cH .idata$5                DATA
 0003:0000037c 00000004H .00cfg                  DATA
 0003:00000380 00000078H .idata$2                DATA
 0003:000003f8 00000014H .idata$3                DATA
 0003:0000040c 0000037cH .idata$4                DATA
 0003:00000788 00000f56H .idata$6                DATA
 0004:00000000 00000060H .rsrc$01                DATA
 0004:00000060 00000358H .rsrc$02                DATA

  Address         Publics by Value              Rva+Base       Lib:Object

 0000:00000000       ___enclave_config          00000000     <absolute>
 0000:00000000       __except_list              00000000     <absolute>
 0000:00000000       ___guard_fids_count        00000000     <absolute>
 0000:00000000       ___guard_longjmp_count     00000000     <absolute>
 0000:00000000       ___hybrid_code_map         00000000     <absolute>
 0000:00000000       ___guard_longjmp_table     00000000     <absolute>
 0000:00000000       ___guard_iat_table         00000000     <absolute>
 0000:00000000       ___guard_iat_count         00000000     <absolute>
 0000:00000000       ___hybrid_auxiliary_iat    00000000     <absolute>
 0000:00000000       ___dynamic_value_reloc_table 00000000     <absolute>
 0000:00000000       ___guard_fids_table        00000000     <absolute>
 0000:00000000       ___hybrid_code_map_count   00000000     <absolute>
 0000:00000003       ___safe_se_handler_count   00000003     <absolute>
 0000:00000100       ___guard_flags             00000100     <absolute>
 0000:00000000       ___ImageBase               10000000     <linker-defined>
 0001:00000000       ___xc_a                    10001000     LIBCMT:initializers.obj
 0001:00000004       ___xc_z                    10001004     LIBCMT:initializers.obj
 0001:00000008       ___xi_a                    10001008     LIBCMT:initializers.obj
 0001:0000000c       ___acrt_stdio_initializer  1000100c     libucrt:stdio_initializer.obj
 0001:00000010       ___acrt_multibyte_initializer 10001010     libucrt:multibyte_initializer.obj
 0001:00000014       ___acrt_tran_sse2_initializer 10001014     libucrt:sse2_initializer.obj
 0001:00000018       ___xi_z                    10001018     LIBCMT:initializers.obj
 0001:0000001c       ___xp_a                    1000101c     LIBCMT:initializers.obj
 0001:00000020       ___acrt_locale_terminator  10001020     libucrt:locale_initializer.obj
 0001:00000024       ___acrt_tmpfile_terminator 10001024     libucrt:tmpfile_initializer.obj
 0001:00000028       ___dcrt_console_output_terminator 10001028     libucrt:console_output_initializer.obj
 0001:0000002c       ___acrt_stdio_terminator   1000102c     libucrt:stdio_initializer.obj
 0001:00000030       ___xp_z                    10001030     LIBCMT:initializers.obj
 0001:00000034       ___xt_a                    10001034     LIBCMT:initializers.obj
 0001:00000038       ___xt_z                    10001038     LIBCMT:initializers.obj
 0001:00000040       _metatable_name            10001040     bit64.obj
 0001:00000138       ??_C@_04JAOJMBA@bnot?$AA@  10001138     bit64.obj
 0001:00000140       ??_C@_04BKGNPECA@band?$AA@ 10001140     bit64.obj
 0001:00000148       ??_C@_03BBBGIIAC@bor?$AA@  10001148     bit64.obj
 0001:0000014c       ??_C@_04CKCGDDNF@bxor?$AA@ 1000114c     bit64.obj
 0001:00000154       ??_C@_06ELFGPGBK@lshift?$AA@ 10001154     bit64.obj
 0001:0000015c       ??_C@_06HMLHBBIJ@rshift?$AA@ 1000115c     bit64.obj
 0001:00000164       ??_C@_07JILILBLL@arshift?$AA@ 10001164     bit64.obj
 0001:0000016c       ??_C@_03CLCAEGCJ@new?$AA@  1000116c     bit64.obj
 0001:00000170       ??_C@_03BDGOHNNK@add?$AA@  10001170     bit64.obj
 0001:00000174       ??_C@_03KCMAIMAP@sub?$AA@  10001174     bit64.obj
 0001:00000178       ??_C@_03IMIFIBCN@mul?$AA@  10001178     bit64.obj
 0001:0000017c       ??_C@_03FEJMGOGI@div?$AA@  1000117c     bit64.obj
 0001:00000180       ??_C@_03FFONCNID@mod?$AA@  10001180     bit64.obj
 0001:00000184       ??_C@_02HIIGGHJB@eq?$AA@   10001184     bit64.obj
 0001:00000188       ??_C@_02KCAKIFL@lt?$AA@    10001188     bit64.obj
 0001:0000018c       ??_C@_02FJPJILEL@le?$AA@   1000118c     bit64.obj
 0001:00000190       ??_C@_04GPMDFGEJ@type?$AA@ 10001190     bit64.obj
 0001:00000198       ??_C@_05MEHDOBFN@__add?$AA@ 10001198     bit64.obj
 0001:000001a0       ??_C@_05HFNNBAII@__sub?$AA@ 100011a0     bit64.obj
 0001:000001a8       ??_C@_05FLJIBNKK@__mul?$AA@ 100011a8     bit64.obj
 0001:000001b0       ??_C@_05IDIBPCOP@__div?$AA@ 100011b0     bit64.obj
 0001:000001b8       ??_C@_05ICPALBAE@__mod?$AA@ 100011b8     bit64.obj
 0001:000001c0       ??_C@_05MHFNBPAK@__unm?$AA@ 100011c0     bit64.obj
 0001:000001c8       ??_C@_04GIMIAOHA@__eq?$AA@ 100011c8     bit64.obj
 0001:000001d0       ??_C@_04BKGOMBLK@__lt?$AA@ 100011d0     bit64.obj
 0001:000001d8       ??_C@_04EJLHOCKK@__le?$AA@ 100011d8     bit64.obj
 0001:000001e0       ??_C@_0L@HDFPAPPH@__tostring?$AA@ 100011e0     bit64.obj
 0001:000001ec       ??_C@_09GPALILFO@bad?5int64?$AA@ 100011ec     bit64.obj
 0001:000001f8       ??_C@_05LLAMLEHD@?$CFI64d?$AA@ 100011f8     bit64.obj
 0001:00000200       ??_C@_05OALCLICP@bit64?$AA@ 10001200     bit64.obj
 0001:00000208       __real@433fffffffffffff    10001208     bit64.obj
 0001:00000a98       _COLLECTOR_FD              10001a98     exported.obj
 0001:00000aac       _COLLECTOR_OPI             10001aac     exported.obj
 0001:00000ac4       _COLLECTOR_PI              10001ac4     exported.obj
 0001:00000adc       _KEY_OBJECT                10001adc     exported.obj
 0001:00000ae4       ??_C@_05GFCDIDHO@debug?$AA@ 10001ae4     exported.obj
 0001:00000aec       ??_C@_09GPFEECNC@traceback?$AA@ 10001aec     exported.obj
 0001:00000af8       ??_C@_06NKNNMLDJ@export?$AA@ 10001af8     exported.obj
 0001:00000b00       ??_C@_07PCNKBAGB@OnError?$AA@ 10001b00     exported.obj
 0001:00000b08       ??_C@_0N@NJMIGDDL@CreationTime?$AA@ 10001b08     exported.obj
 0001:00000b18       ??_C@_0P@MFHPCDDH@LastAccessTime?$AA@ 10001b18     exported.obj
 0001:00000b28       ??_C@_0O@FCFNCAHK@LastWriteTime?$AA@ 10001b28     exported.obj
 0001:00000b38       ??_C@_0L@FCILKIIG@ChangeTime?$AA@ 10001b38     exported.obj
 0001:00000b44       ??_C@_08BHIEONMC@FileSize?$AA@ 10001b44     exported.obj
 0001:00000b50       ??_C@_0P@JBACEJLL@AllocationSize?$AA@ 10001b50     exported.obj
 0001:00000b60       ??_C@_05BOOEKJH@Flags?$AA@ 10001b60     exported.obj
 0001:00000b68       ??_C@_0O@DLGJHFNH@NumberOfLinks?$AA@ 10001b68     exported.obj
 0001:00000b78       ??_C@_05MHNOECFO@CRC32?$AA@ 10001b78     exported.obj
 0001:00000b80       ??_C@_08FDCJCDOL@FileName?$AA@ 10001b80     exported.obj
 0001:00000b8c       ??_C@_0BC@COCBGKAE@AlternateFileName?$AA@ 10001b8c     exported.obj
 0001:00000ba0       ??_C@_0M@OHKMKKDH@Description?$AA@ 10001ba0     exported.obj
 0001:00000bac       ??_C@_05HDCNEILF@Owner?$AA@ 10001bac     exported.obj
 0001:00000bb4       ??_C@_0BB@OKGMKOG@CustomColumnData?$AA@ 10001bb4     exported.obj
 0001:00000bc8       ??_C@_11LOCGONAA@?$AA?$AA@ 10001bc8     exported.obj
 0001:00000bcc       ??_C@_08JNHPECBG@UserData?$AA@ 10001bcc     exported.obj
 0001:00000bd8       ??_C@_0M@DFMHDHBL@GetFindData?$AA@ 10001bd8     exported.obj
 0001:00000be4       ??_C@_08FFPEEIHA@GetFiles?$AA@ 10001be4     exported.obj
 0001:00000bf0       ??_C@_0BC@IECOKJFL@GetFiles?4DestPath?$AA@ 10001bf0     exported.obj
 0001:00000c04       ??_C@_05LFOKGKBN@?$DMboot?$AA@ 10001c04     exported.obj
 0001:00000c0c       ??_C@_15CBMDENPJ@?$AA?4?$AA?9?$AA?$AA@ 10001c0c     exported.obj
 0001:00000c14       ??_C@_07KNEGBPNO@package?$AA@ 10001c14     exported.obj
 0001:00000c1c       ??_C@_07GCEAJMEA@preload?$AA@ 10001c1c     exported.obj
 0001:00000c24       ??_C@_19BCNABNAK@?$AA?4?$AAl?$AAu?$AAa?$AA?$AA@ 10001c24     exported.obj
 0001:00000c30       ??_C@_13BPINEIPE@?$AAr?$AA?$AA@ 10001c30     exported.obj
 0001:00000c34       ??_C@_1DC@PABHCCON@?$AAD?$AAe?$AAf?$AAa?$AAu?$AAl?$AAt?$AA?5?$AAs?$AAc?$AAr?$AAi?$AAp?$AAt?$AA?5?$AAn?$AAo?$AAt?$AA?5?$AAf?$AAo?$AAu?$AAn?$AAd?$AA?$AA@ 10001c34     exported.obj
 0001:00000c68       ??_C@_03JEOKDCFP@far?$AA@  10001c68     exported.obj
 0001:00000c6c       ??_C@_0BE@HCPAIELH@ReloadDefaultScript?$AA@ 10001c6c     exported.obj
 0001:00000c80       ??_C@_0L@OCPPMCCK@StructSize?$AA@ 10001c80     exported.obj
 0001:00000c8c       ??_C@_06LBMCOACO@Buffer?$AA@ 10001c8c     exported.obj
 0001:00000c94       ??_C@_06EPIAKPGD@OpMode?$AA@ 10001c94     exported.obj
 0001:00000c9c       ??_C@_07GDADDFBD@Analyse?$AA@ 10001c9c     exported.obj
 0001:00000ca4       ??_C@_0BB@CKIGBGLB@GetOpenPanelInfo?$AA@ 10001ca4     exported.obj
 0001:00000cb8       ??_C@_08KDMNIFGM@FreeSize?$AA@ 10001cb8     exported.obj
 0001:00000cc4       ??_C@_08PAJOMFPO@HostFile?$AA@ 10001cc4     exported.obj
 0001:00000cd0       ??_C@_06IBPEEEAJ@CurDir?$AA@ 10001cd0     exported.obj
 0001:00000cd8       ??_C@_06PEPCFMNJ@Format?$AA@ 10001cd8     exported.obj
 0001:00000ce0       ??_C@_0L@CMHIOLLB@PanelTitle?$AA@ 10001ce0     exported.obj
 0001:00000cec       ??_C@_09PMEOAIAA@InfoLines?$AA@ 10001cec     exported.obj
 0001:00000cf8       ??_C@_0BA@BLCGOCOG@InfoLinesNumber?$AA@ 10001cf8     exported.obj
 0001:00000d08       ??_C@_04OJAHODMC@Text?$AA@ 10001d08     exported.obj
 0001:00000d10       ??_C@_04DICKPMGH@Data?$AA@ 10001d10     exported.obj
 0001:00000d18       ??_C@_0L@FPEHOFAI@DescrFiles?$AA@ 10001d18     exported.obj
 0001:00000d24       ??_C@_0BA@BBOGKOKF@PanelModesArray?$AA@ 10001d24     exported.obj
 0001:00000d34       ??_C@_0BB@LFNABPEF@PanelModesNumber?$AA@ 10001d34     exported.obj
 0001:00000d48       ??_C@_0M@KDJPJFOF@ColumnTypes?$AA@ 10001d48     exported.obj
 0001:00000d54       ??_C@_0N@ILFJPGHI@ColumnWidths?$AA@ 10001d54     exported.obj
 0001:00000d64       ??_C@_0BC@KELOOKNK@StatusColumnTypes?$AA@ 10001d64     exported.obj
 0001:00000d78       ??_C@_0BD@DNDIPKDK@StatusColumnWidths?$AA@ 10001d78     exported.obj
 0001:00000d8c       ??_C@_0N@EHCEJHEE@ColumnTitles?$AA@ 10001d8c     exported.obj
 0001:00000d9c       ??_C@_0P@BEEDPJDK@StartPanelMode?$AA@ 10001d9c     exported.obj
 0001:00000dac       ??_C@_0O@NIFKFGBJ@StartSortMode?$AA@ 10001dac     exported.obj
 0001:00000dbc       ??_C@_0P@KMACBLNK@StartSortOrder?$AA@ 10001dbc     exported.obj
 0001:00000dcc       ??_C@_06ONGFDHIA@KeyBar?$AA@ 10001dcc     exported.obj
 0001:00000dd4       ??_C@_0P@PKDBPEJI@VirtualKeyCode?$AA@ 10001dd4     exported.obj
 0001:00000de4       ??_C@_0BA@MFFHAKP@ControlKeyState?$AA@ 10001de4     exported.obj
 0001:00000df4       ??_C@_08DGDJEKCP@LongText?$AA@ 10001df4     exported.obj
 0001:00000e00       ??_C@_0N@IHDKLODA@ShortcutData?$AA@ 10001e00     exported.obj
 0001:00000e10       ??_C@_05HIFJDKLD@array?$AA@ 10001e10     exported.obj
 0001:00000e18       ??_C@_01EFFIKLCJ@n?$AA@    10001e18     exported.obj
 0001:00000e1a       ??_C@_00CNPNBAHC@?$AA@     10001e1a     exported.obj
 0001:00000e1c       ??_C@_04DNCDCIAE@Open?$AA@ 10001e1c     exported.obj
 0001:00000e24       ??_C@_04OPJIDECA@hDlg?$AA@ 10001e24     exported.obj
 0001:00000e2c       ??_C@_06BNNOMDLO@Handle?$AA@ 10001e2c     exported.obj
 0001:00000e34       ??_C@_05LNOAKADA@panel?$AA@ 10001e34     exported.obj
 0001:00000e3c       ??_C@_0L@JMPDJFBN@ClosePanel?$AA@ 10001e3c     exported.obj
 0001:00000e48       ??_C@_07MBOMJGGF@Compare?$AA@ 10001e48     exported.obj
 0001:00000e50       ??_C@_09NANCCILE@Configure?$AA@ 10001e50     exported.obj
 0001:00000e5c       ??_C@_0M@MMKKMEFA@DeleteFiles?$AA@ 10001e5c     exported.obj
 0001:00000e68       ??_C@_0O@GLLEDHJA@MakeDirectory?$AA@ 10001e68     exported.obj
 0001:00000e78       ??_C@_0BD@PJNONGDB@MakeDirectory?4Name?$AA@ 10001e78     exported.obj
 0001:00000e8c       ??_C@_0BC@COPMJGBI@ProcessPanelEvent?$AA@ 10001e8c     exported.obj
 0001:00000ea0       ??_C@_0BA@DPJAKFGC@ProcessHostFile?$AA@ 10001ea0     exported.obj
 0001:00000eb0       ??_C@_0BC@HOBKGBBM@ProcessPanelInput?$AA@ 10001eb0     exported.obj
 0001:00000ec4       ??_C@_08OBOOFGOD@PutFiles?$AA@ 10001ec4     exported.obj
 0001:00000ed0       ??_C@_0N@KCFEBPAO@SetDirectory?$AA@ 10001ed0     exported.obj
 0001:00000ee0       ??_C@_0M@PNOHHCCH@SetFindList?$AA@ 10001ee0     exported.obj
 0001:00000eec       ??_C@_07EACELFAO@ExitFAR?$AA@ 10001eec     exported.obj
 0001:00000ef4       ??_C@_0O@OBCKADMD@GetPluginInfo?$AA@ 10001ef4     exported.obj
 0001:00000f04       ??_C@_0O@GDMHGAFH@CommandPrefix?$AA@ 10001f04     exported.obj
 0001:00000f14       ??_C@_0O@PHBKMNMJ@DiskMenuGuids?$AA@ 10001f14     exported.obj
 0001:00000f24       ??_C@_0BA@NLBDFPEO@DiskMenuStrings?$AA@ 10001f24     exported.obj
 0001:00000f34       ??_C@_0BA@FOMPNLJF@PluginMenuGuids?$AA@ 10001f34     exported.obj
 0001:00000f44       ??_C@_0BC@DJMJFBJC@PluginMenuStrings?$AA@ 10001f44     exported.obj
 0001:00000f58       ??_C@_0BC@ILBHAHCH@PluginConfigGuids?$AA@ 10001f58     exported.obj
 0001:00000f6c       ??_C@_0BE@GAFPNGIP@PluginConfigStrings?$AA@ 10001f6c     exported.obj
 0001:00000f80       ??_C@_0BD@DECJPBBK@ProcessEditorInput?$AA@ 10001f80     exported.obj
 0001:00000f94       ??_C@_0BD@GEMPAGBO@ProcessEditorEvent?$AA@ 10001f94     exported.obj
 0001:00000fa8       ??_C@_04KOACHJEN@Type?$AA@ 10001fa8     exported.obj
 0001:00000fb0       ??_C@_0N@EKPHGDMI@StringNumber?$AA@ 10001fb0     exported.obj
 0001:00000fc0       ??_C@_07MOCFLHCN@FileEOL?$AA@ 10001fc0     exported.obj
 0001:00000fc8       ??_C@_08DOHJINHB@CodePage?$AA@ 10001fc8     exported.obj
 0001:00000fd4       ??_C@_0BD@GGKMLEJG@ProcessViewerEvent?$AA@ 10001fd4     exported.obj
 0001:00000fe8       ??_C@_0BD@FNHBEIC@ProcessDialogEvent?$AA@ 10001fe8     exported.obj
 0001:00000ffc       ??_C@_06CPBJDKAC@Param2?$AA@ 10001ffc     exported.obj
 0001:00001004       ??_C@_06EDEGJMB@Param1?$AA@ 10002004     exported.obj
 0001:0000100c       ??_C@_03MLMOILGK@Msg?$AA@  1000200c     exported.obj
 0001:00001010       ??_C@_0BE@LHJGGGHN@ProcessSynchroEvent?$AA@ 10002010     exported.obj
 0001:00001024       ??_C@_0BB@PHIEFGHD@GetContentFields?$AA@ 10002024     exported.obj
 0001:00001038       ??_C@_0P@DPJDPMPI@GetContentData?$AA@ 10002038     exported.obj
 0001:00001048       ??_C@_0N@DDJEHLKE@?$DM_globalinfo?$AA@ 10002048     exported.obj
 0001:00001058       ??_C@_1CA@IBKDMBNJ@?$AA_?$AAg?$AAl?$AAo?$AAb?$AAa?$AAl?$AAi?$AAn?$AAf?$AAo?$AA?4?$AAl?$AAu?$AAa?$AA?$AA@ 10002058     exported.obj
 0001:00001078       ??_C@_0O@GJMOPLGM@GetGlobalInfo?$AA@ 10002078     exported.obj
 0001:00001088       ??_C@_0O@CALOEOI@MinFarVersion?$AA@ 10002088     exported.obj
 0001:00001098       ??_C@_07NGFJPNPN@Version?$AA@ 10002098     exported.obj
 0001:000010a0       ??_C@_04MJHIICBJ@Guid?$AA@ 100020a0     exported.obj
 0001:000010a8       ??_C@_05PABKJLOM@Title?$AA@ 100020a8     exported.obj
 0001:000010b0       ??_C@_06HHECMMLE@Author?$AA@ 100020b0     exported.obj
 0001:000010b8       ??_C@_0BE@DONMOPMJ@ProcessConsoleInput?$AA@ 100020b8     exported.obj
 0001:000010d0       __real@43e0000000000000    100020d0     exported.obj
 0001:000010d8       __real@bff0000000000000    100020d8     exported.obj
 0001:00001960       _Vals                      10002960     flags.obj
 0001:00002fa8       ??_C@_0BI@IDKIJMME@FARMANAGERVERSION_MAJOR?$AA@ 10003fa8     flags.obj
 0001:00002fc0       ??_C@_0BI@DMLKEAFC@FARMANAGERVERSION_MINOR?$AA@ 10003fc0     flags.obj
 0001:00002fd8       ??_C@_0BL@NMALNAFP@FARMANAGERVERSION_REVISION?$AA@ 10003fd8     flags.obj
 0001:00002ff4       ??_C@_0BI@OLPFLLDD@FARMANAGERVERSION_BUILD?$AA@ 10003ff4     flags.obj
 0001:0000300c       ??_C@_0BI@MOOFLFPC@FARMANAGERVERSION_STAGE?$AA@ 1000400c     flags.obj
 0001:00003024       ??_C@_0L@MIDBGFJO@CP_UNICODE?$AA@ 10004024     flags.obj
 0001:00003030       ??_C@_0O@MNMCMEJH@CP_REVERSEBOM?$AA@ 10004030     flags.obj
 0001:00003040       ??_C@_0L@JDNPCEDH@CP_DEFAULT?$AA@ 10004040     flags.obj
 0001:0000304c       ??_C@_0M@OMCMFJHA@CP_REDETECT?$AA@ 1000404c     flags.obj
 0001:00003058       ??_C@_09MNAPNKKC@INDEXMASK?$AA@ 10004058     flags.obj
 0001:00003064       ??_C@_09BLFIDJLF@COLORMASK?$AA@ 10004064     flags.obj
 0001:00003070       ??_C@_09ENNBLPJC@ALPHAMASK?$AA@ 10004070     flags.obj
 0001:0000307c       ??_C@_0L@EHFOPLFD@PANEL_NONE?$AA@ 1000407c     flags.obj
 0001:00003088       ??_C@_0N@LPMKALBG@PANEL_ACTIVE?$AA@ 10004088     flags.obj
 0001:00003098       ??_C@_0O@HPKEABPN@PANEL_PASSIVE?$AA@ 10004098     flags.obj
 0001:000030a8       ??_C@_0L@GOEBPENN@PANEL_STOP?$AA@ 100040a8     flags.obj
 0001:000030b4       ??_C@_0N@HLIFAAPJ@EEREDRAW_ALL?$AA@ 100040b4     flags.obj
 0001:000030c4       ??_C@_0P@NHNDIKJ@CURRENT_EDITOR?$AA@ 100040c4     flags.obj
 0001:000030d4       ??_C@_0BN@PPNDCHHA@EDITOR_COLOR_NORMAL_PRIORITY?$AA@ 100040d4     flags.obj
 0001:000030f4       ??_C@_07MGGAEAFF@DI_TEXT?$AA@ 100040f4     flags.obj
 0001:000030fc       ??_C@_08HODBDEHE@DI_VTEXT?$AA@ 100040fc     flags.obj
 0001:00003108       ??_C@_0N@IGKKGFMF@DI_SINGLEBOX?$AA@ 10004108     flags.obj
 0001:00003118       ??_C@_0N@EDCLIEAE@DI_DOUBLEBOX?$AA@ 10004118     flags.obj
 0001:00003128       ??_C@_07DOLIFAEF@DI_EDIT?$AA@ 10004128     flags.obj
 0001:00003130       ??_C@_0L@EOMEIIFM@DI_PSWEDIT?$AA@ 10004130     flags.obj
 0001:0000313c       ??_C@_0L@MGOIMBKF@DI_FIXEDIT?$AA@ 1000413c     flags.obj
 0001:00003148       ??_C@_09GGAEMAPJ@DI_BUTTON?$AA@ 10004148     flags.obj
 0001:00003154       ??_C@_0M@MHFHGPHJ@DI_CHECKBOX?$AA@ 10004154     flags.obj
 0001:00003160       ??_C@_0P@GIPCGMBE@DI_RADIOBUTTON?$AA@ 10004160     flags.obj
 0001:00003170       ??_C@_0M@MAKBFNGC@DI_COMBOBOX?$AA@ 10004170     flags.obj
 0001:0000317c       ??_C@_0L@ONDMPPPO@DI_LISTBOX?$AA@ 1000417c     flags.obj
 0001:00003188       ??_C@_0P@GDJDPEIK@DI_USERCONTROL?$AA@ 10004188     flags.obj
 0001:00003198       ??_C@_08KAEGOLOB@DM_FIRST?$AA@ 10004198     flags.obj
 0001:000031a4       ??_C@_08MJMBFJHA@DM_CLOSE?$AA@ 100041a4     flags.obj
 0001:000031b0       ??_C@_09KLJOCKAA@DM_ENABLE?$AA@ 100041b0     flags.obj
 0001:000031bc       ??_C@_0BA@KAMJGFDG@DM_ENABLEREDRAW?$AA@ 100041bc     flags.obj
 0001:000031cc       ??_C@_0O@FKGMMKLP@DM_GETDLGDATA?$AA@ 100041cc     flags.obj
 0001:000031dc       ??_C@_0O@HEGKCPOI@DM_GETDLGITEM?$AA@ 100041dc     flags.obj
 0001:000031ec       ??_C@_0O@BEHCGMCL@DM_GETDLGRECT?$AA@ 100041ec     flags.obj
 0001:000031fc       ??_C@_0L@ELBDNLFO@DM_GETTEXT?$AA@ 100041fc     flags.obj
 0001:00003208       ??_C@_06IKGPEGEJ@DM_KEY?$AA@ 10004208     flags.obj
 0001:00003210       ??_C@_0O@DIPLLJEH@DM_MOVEDIALOG?$AA@ 10004210     flags.obj
 0001:00003220       ??_C@_0O@EEEDHNPG@DM_SETDLGDATA?$AA@ 10004220     flags.obj
 0001:00003230       ??_C@_0O@GKEFJIKB@DM_SETDLGITEM?$AA@ 10004230     flags.obj
 0001:00003240       ??_C@_0M@GOFGHDFK@DM_SETFOCUS?$AA@ 10004240     flags.obj
 0001:0000324c       ??_C@_09ILPFEDOM@DM_REDRAW?$AA@ 1000424c     flags.obj
 0001:00003258       ??_C@_0L@LDOCOEIP@DM_SETTEXT?$AA@ 10004258     flags.obj
 0001:00003264       ??_C@_0BE@LABEAIPD@DM_SETMAXTEXTLENGTH?$AA@ 10004264     flags.obj
 0001:00003278       ??_C@_0O@BIFKIPIP@DM_SHOWDIALOG?$AA@ 10004278     flags.obj
 0001:00003288       ??_C@_0M@JPHKGACH@DM_GETFOCUS?$AA@ 10004288     flags.obj
 0001:00003294       ??_C@_0BA@NLMONBKJ@DM_GETCURSORPOS?$AA@ 10004294     flags.obj
 0001:000032a4       ??_C@_0BA@KPHABNOF@DM_SETCURSORPOS?$AA@ 100042a4     flags.obj
 0001:000032b4       ??_C@_0O@LGEKFPKK@DM_SETTEXTPTR?$AA@ 100042b4     flags.obj
 0001:000032c4       ??_C@_0M@NCOJHJKI@DM_SHOWITEM?$AA@ 100042c4     flags.obj
 0001:000032d0       ??_C@_0O@GKKCFHIM@DM_ADDHISTORY?$AA@ 100042d0     flags.obj
 0001:000032e0       ??_C@_0M@MCEMDFMD@DM_GETCHECK?$AA@ 100042e0     flags.obj
 0001:000032ec       ??_C@_0M@DDGACGLO@DM_SETCHECK?$AA@ 100042ec     flags.obj
 0001:000032f8       ??_C@_0N@MEGOPFGK@DM_SET3STATE?$AA@ 100042f8     flags.obj
 0001:00003308       ??_C@_0M@GEPBDDNC@DM_LISTSORT?$AA@ 10004308     flags.obj
 0001:00003314       ??_C@_0P@NFJNHAKH@DM_LISTGETITEM?$AA@ 10004314     flags.obj
 0001:00003324       ??_C@_0BB@EEIMACNO@DM_LISTGETCURPOS?$AA@ 10004324     flags.obj
 0001:00003338       ??_C@_0BB@GKMJCDEM@DM_LISTSETCURPOS?$AA@ 10004338     flags.obj
 0001:0000334c       ??_C@_0O@NOPCAHGJ@DM_LISTDELETE?$AA@ 1000434c     flags.obj
 0001:0000335c       ??_C@_0L@BMEAECNG@DM_LISTADD?$AA@ 1000435c     flags.obj
 0001:00003368       ??_C@_0O@HBHDMHP@DM_LISTADDSTR?$AA@ 10004368     flags.obj
 0001:00003378       ??_C@_0O@PDFCNPKN@DM_LISTUPDATE?$AA@ 10004378     flags.obj
 0001:00003388       ??_C@_0O@GAAGMJJL@DM_LISTINSERT?$AA@ 10004388     flags.obj
 0001:00003398       ??_C@_0BC@MIFCLOBD@DM_LISTFINDSTRING?$AA@ 10004398     flags.obj
 0001:000033ac       ??_C@_0M@EEAEBLKC@DM_LISTINFO?$AA@ 100043ac     flags.obj
 0001:000033b8       ??_C@_0P@PLJLJFPA@DM_LISTGETDATA?$AA@ 100043b8     flags.obj
 0001:000033c8       ??_C@_0P@DGKKKCB@DM_LISTSETDATA?$AA@ 100043c8     flags.obj
 0001:000033d8       ??_C@_0BB@CELMNLLN@DM_LISTSETTITLES?$AA@ 100043d8     flags.obj
 0001:000033ec       ??_C@_0BB@KPJPKCP@DM_LISTGETTITLES?$AA@ 100043ec     flags.obj
 0001:00003400       ??_C@_0BA@ICDJCFLE@DM_RESIZEDIALOG?$AA@ 10004400     flags.obj
 0001:00003410       ??_C@_0BD@CNGGHGJF@DM_SETITEMPOSITION?$AA@ 10004410     flags.obj
 0001:00003424       ??_C@_0BF@JMINBGBA@DM_GETDROPDOWNOPENED?$AA@ 10004424     flags.obj
 0001:0000343c       ??_C@_0BF@LJIGJNAO@DM_SETDROPDOWNOPENED?$AA@ 1000443c     flags.obj
 0001:00003454       ??_C@_0O@NPDKADMJ@DM_SETHISTORY?$AA@ 10004454     flags.obj
 0001:00003464       ??_C@_0BD@BPHAAEIM@DM_GETITEMPOSITION?$AA@ 10004464     flags.obj
 0001:00003478       ??_C@_0BC@BENFKLNH@DM_SETINPUTNOTIFY?$AA@ 10004478     flags.obj
 0001:0000348c       ??_C@_0BH@CFMLLNNM@DM_SETMOUSEEVENTNOTIFY?$AA@ 1000448c     flags.obj
 0001:000034a4       ??_C@_0BF@IAGIACOD@DM_EDITUNCHANGEDFLAG?$AA@ 100044a4     flags.obj
 0001:000034bc       ??_C@_0P@OJKNHIPN@DM_GETITEMDATA?$AA@ 100044bc     flags.obj
 0001:000034cc       ??_C@_0P@OGLDKOHO@DM_SETITEMDATA?$AA@ 100044cc     flags.obj
 0001:000034dc       ??_C@_0L@KNFAKFKE@DM_LISTSET?$AA@ 100044dc     flags.obj
 0001:000034e8       ??_C@_0BB@EPMFHAFO@DM_GETCURSORSIZE?$AA@ 100044e8     flags.obj
 0001:000034fc       ??_C@_0BB@DANLMDCJ@DM_SETCURSORSIZE?$AA@ 100044fc     flags.obj
 0001:00003510       ??_C@_0BD@LAOOKGHD@DM_LISTGETDATASIZE?$AA@ 10004510     flags.obj
 0001:00003524       ??_C@_0BA@BHGANJAP@DM_GETSELECTION?$AA@ 10004524     flags.obj
 0001:00003534       ??_C@_0BA@GDNOBFED@DM_SETSELECTION?$AA@ 10004534     flags.obj
 0001:00003544       ??_C@_0BD@FIHDGIGO@DM_GETEDITPOSITION?$AA@ 10004544     flags.obj
 0001:00003558       ??_C@_0BD@GKGFBKHH@DM_SETEDITPOSITION?$AA@ 10004558     flags.obj
 0001:0000356c       ??_C@_0BE@MCECGHBC@DM_SETCOMBOBOXEVENT?$AA@ 1000456c     flags.obj
 0001:00003580       ??_C@_0BE@KGBLNJKA@DM_GETCOMBOBOXEVENT?$AA@ 10004580     flags.obj
 0001:00003594       ??_C@_0BD@CJEPBACF@DM_GETCONSTTEXTPTR?$AA@ 10004594     flags.obj
 0001:000035a8       ??_C@_0BD@HOOHICEG@DM_GETDLGITEMSHORT?$AA@ 100045a8     flags.obj
 0001:000035bc       ??_C@_0BD@EMPBPAFP@DM_SETDLGITEMSHORT?$AA@ 100045bc     flags.obj
 0001:000035d0       ??_C@_0BB@GAPFMPKE@DM_GETDIALOGINFO?$AA@ 100045d0     flags.obj
 0001:000035e4       ??_C@_0BC@KJOLMFGG@DM_GETDIALOGTITLE?$AA@ 100045e4     flags.obj
 0001:000035f8       ??_C@_08COMJOMAC@DN_FIRST?$AA@ 100045f8     flags.obj
 0001:00003604       ??_C@_0M@NNNAPNMA@DN_BTNCLICK?$AA@ 10004604     flags.obj
 0001:00003610       ??_C@_0BC@MJFJAANN@DN_CTLCOLORDIALOG?$AA@ 10004610     flags.obj
 0001:00003624       ??_C@_0BD@HFGBIBBL@DN_CTLCOLORDLGITEM?$AA@ 10004624     flags.obj
 0001:00003638       ??_C@_0BD@JMFJPHPD@DN_CTLCOLORDLGLIST?$AA@ 10004638     flags.obj
 0001:0000364c       ??_C@_0O@NKBDPILK@DN_DRAWDIALOG?$AA@ 1000464c     flags.obj
 0001:0000365c       ??_C@_0P@KGKEDPBI@DN_DRAWDLGITEM?$AA@ 1000465c     flags.obj
 0001:0000366c       ??_C@_0O@JMKNGFLE@DN_EDITCHANGE?$AA@ 1000466c     flags.obj
 0001:0000367c       ??_C@_0N@OCGKCPJF@DN_ENTERIDLE?$AA@ 1000467c     flags.obj
 0001:0000368c       ??_C@_0M@JHFIBKOO@DN_GOTFOCUS?$AA@ 1000468c     flags.obj
 0001:00003698       ??_C@_07NJJEMKPA@DN_HELP?$AA@ 10004698     flags.obj
 0001:000036a0       ??_C@_09EDGJFAK@DN_HOTKEY?$AA@ 100046a0     flags.obj
 0001:000036ac       ??_C@_0O@BJECHBCA@DN_INITDIALOG?$AA@ 100046ac     flags.obj
 0001:000036bc       ??_C@_0N@CHLLLNBO@DN_KILLFOCUS?$AA@ 100046bc     flags.obj
 0001:000036cc       ??_C@_0O@CLPABIGO@DN_LISTCHANGE?$AA@ 100046cc     flags.obj
 0001:000036dc       ??_C@_0L@MLMFBHN@DN_DRAGGED?$AA@ 100046dc     flags.obj
 0001:000036e8       ??_C@_0BB@BOOOCAEG@DN_RESIZECONSOLE?$AA@ 100046e8     flags.obj
 0001:000036fc       ??_C@_0BC@FHPPFLKG@DN_DRAWDIALOGDONE?$AA@ 100046fc     flags.obj
 0001:00003710       ??_C@_0O@EONPBNNP@DN_LISTHOTKEY?$AA@ 10004710     flags.obj
 0001:00003720       ??_C@_08MDDLDGPO@DN_INPUT?$AA@ 10004720     flags.obj
 0001:0000372c       ??_C@_0BA@FGOGLDBC@DN_CONTROLINPUT?$AA@ 1000472c     flags.obj
 0001:0000373c       ??_C@_08EHEOFOJD@DN_CLOSE?$AA@ 1000473c     flags.obj
 0001:00003748       ??_C@_0M@POIFBPFN@DN_GETVALUE?$AA@ 10004748     flags.obj
 0001:00003754       ??_C@_0BC@MHCBFAAO@DN_DROPDOWNOPENED?$AA@ 10004754     flags.obj
 0001:00003768       ??_C@_0BD@NGEKAPIF@DN_DRAWDLGITEMDONE?$AA@ 10004768     flags.obj
 0001:0000377c       ??_C@_07DIJJNCBA@DM_USER?$AA@ 1000477c     flags.obj
 0001:00003784       ??_C@_0BB@HLBBGMAN@BSTATE_UNCHECKED?$AA@ 10004784     flags.obj
 0001:00003798       ??_C@_0P@FALAMPGP@BSTATE_CHECKED?$AA@ 10004798     flags.obj
 0001:000037a8       ??_C@_0O@KBIFGGHO@BSTATE_3STATE?$AA@ 100047a8     flags.obj
 0001:000037b8       ??_C@_0O@ILJOJGLD@BSTATE_TOGGLE?$AA@ 100047b8     flags.obj
 0001:000037c8       ??_C@_08PPADCPCM@CBET_KEY?$AA@ 100047c8     flags.obj
 0001:000037d4       ??_C@_0L@KHCLMGFJ@CBET_MOUSE?$AA@ 100047d4     flags.obj
 0001:000037e0       ??_C@_0BA@KNHGEBNE@PTYPE_FILEPANEL?$AA@ 100047e0     flags.obj
 0001:000037f0       ??_C@_0BA@LPPHNHIG@PTYPE_TREEPANEL?$AA@ 100047f0     flags.obj
 0001:00003800       ??_C@_0BB@JBINOKAI@PTYPE_QVIEWPANEL?$AA@ 10004800     flags.obj
 0001:00003814       ??_C@_0BA@NKMDEBG@PTYPE_INFOPANEL?$AA@ 10004814     flags.obj
 0001:00003824       ??_C@_0L@OPHJOKKE@SM_DEFAULT?$AA@ 10004824     flags.obj
 0001:00003830       ??_C@_0M@JGBFGGEA@SM_UNSORTED?$AA@ 10004830     flags.obj
 0001:0000383c       ??_C@_07KIFHAGIL@SM_NAME?$AA@ 1000483c     flags.obj
 0001:00003844       ??_C@_06GJJJNNFE@SM_EXT?$AA@ 10004844     flags.obj
 0001:0000384c       ??_C@_08FICJBKFN@SM_MTIME?$AA@ 1000484c     flags.obj
 0001:00003858       ??_C@_08GCCDHLCN@SM_CTIME?$AA@ 10004858     flags.obj
 0001:00003864       ??_C@_08CPOLNKCG@SM_ATIME?$AA@ 10004864     flags.obj
 0001:00003870       ??_C@_07OMPKMIKC@SM_SIZE?$AA@ 10004870     flags.obj
 0001:00003878       ??_C@_08BCBPOLMA@SM_DESCR?$AA@ 10004878     flags.obj
 0001:00003884       ??_C@_08MEAGCMBB@SM_OWNER?$AA@ 10004884     flags.obj
 0001:00003890       ??_C@_0BC@NKDBNAHD@SM_COMPRESSEDSIZE?$AA@ 10004890     flags.obj
 0001:000038a4       ??_C@_0M@PKNLKFI@SM_NUMLINKS?$AA@ 100048a4     flags.obj
 0001:000038b0       ??_C@_0O@CCKEKPHL@SM_NUMSTREAMS?$AA@ 100048b0     flags.obj
 0001:000038c0       ??_C@_0P@PKGMDPMD@SM_STREAMSSIZE?$AA@ 100048c0     flags.obj
 0001:000038d0       ??_C@_0M@OAFEBGNH@SM_FULLNAME?$AA@ 100048d0     flags.obj
 0001:000038dc       ??_C@_09KFKGJDHC@SM_CHTIME?$AA@ 100048dc     flags.obj
 0001:000038e8       ??_C@_08DOEDKINA@SM_COUNT?$AA@ 100048e8     flags.obj
 0001:000038f4       ??_C@_0P@FEMAMJLE@EEC_OPEN_ERROR?$AA@ 100048f4     flags.obj
 0001:00003904       ??_C@_0N@GLMELIKF@EEC_MODIFIED?$AA@ 10004904     flags.obj
 0001:00003914       ??_C@_0BB@HALKEFOL@EEC_NOT_MODIFIED?$AA@ 10004914     flags.obj
 0001:00003928       ??_C@_0BI@CNPFKHKO@EEC_LOADING_INTERRUPTED?$AA@ 10004928     flags.obj
 0001:00003940       ??_C@_0BK@PHBCABMB@ACTL_GETFARMANAGERVERSION?$AA@ 10004940     flags.obj
 0001:0000395c       ??_C@_0N@DPABJDML@ACTL_WAITKEY?$AA@ 1000495c     flags.obj
 0001:0000396c       ??_C@_0O@CEHHJAFD@ACTL_GETCOLOR?$AA@ 1000496c     flags.obj
 0001:0000397c       ??_C@_0BD@OKPAACIK@ACTL_GETARRAYCOLOR?$AA@ 1000497c     flags.obj
 0001:00003990       ??_C@_0BD@DIFEEKNN@ACTL_GETWINDOWINFO?$AA@ 10004990     flags.obj
 0001:000039a4       ??_C@_0BE@PJBIPKOD@ACTL_GETWINDOWCOUNT?$AA@ 100049a4     flags.obj
 0001:000039b8       ??_C@_0BG@MNKPOEEN@ACTL_SETCURRENTWINDOW?$AA@ 100049b8     flags.obj
 0001:000039d0       ??_C@_0M@IHHFGPPA@ACTL_COMMIT?$AA@ 100049d0     flags.obj
 0001:000039dc       ??_C@_0BA@CLHFKJJP@ACTL_GETFARHWND?$AA@ 100049dc     flags.obj
 0001:000039ec       ??_C@_0BD@JFOOLBPN@ACTL_SETARRAYCOLOR?$AA@ 100049ec     flags.obj
 0001:00003a00       ??_C@_0P@JECKFIA@ACTL_REDRAWALL?$AA@ 10004a00     flags.obj
 0001:00003a10       ??_C@_0N@DHPLJLHO@ACTL_SYNCHRO?$AA@ 10004a10     flags.obj
 0001:00003a20       ??_C@_0BG@IJPADENB@ACTL_SETPROGRESSSTATE?$AA@ 10004a20     flags.obj
 0001:00003a38       ??_C@_0BG@ICJFAPHK@ACTL_SETPROGRESSVALUE?$AA@ 10004a38     flags.obj
 0001:00003a50       ??_C@_09HNDBKLDC@ACTL_QUIT?$AA@ 10004a50     flags.obj
 0001:00003a5c       ??_C@_0BA@LJCPDIKK@ACTL_GETFARRECT?$AA@ 10004a5c     flags.obj
 0001:00003a6c       ??_C@_0BC@FELBEIDG@ACTL_GETCURSORPOS?$AA@ 10004a6c     flags.obj
 0001:00003a80       ??_C@_0BC@CAAPIEHK@ACTL_SETCURSORPOS?$AA@ 10004a80     flags.obj
 0001:00003a94       ??_C@_0BE@NPJGMDBM@ACTL_PROGRESSNOTIFY?$AA@ 10004a94     flags.obj
 0001:00003aa8       ??_C@_0BD@IPKOEBIA@ACTL_GETWINDOWTYPE?$AA@ 10004aa8     flags.obj
 0001:00003abc       ??_C@_09CEDFMINA@MSSC_POST?$AA@ 10004abc     flags.obj
 0001:00003ac8       ??_C@_0L@MOADGAEB@MSSC_CHECK?$AA@ 10004ac8     flags.obj
 0001:00003ad4       ??_C@_0BA@MMOAIEKP@MACROAREA_OTHER?$AA@ 10004ad4     flags.obj
 0001:00003ae4       ??_C@_0BA@DEBOOAEB@MACROAREA_SHELL?$AA@ 10004ae4     flags.obj
 0001:00003af4       ??_C@_0BB@JIMPEHCD@MACROAREA_VIEWER?$AA@ 10004af4     flags.obj
 0001:00003b08       ??_C@_0BB@KILFBFJH@MACROAREA_EDITOR?$AA@ 10004b08     flags.obj
 0001:00003b1c       ??_C@_0BB@CADENPFI@MACROAREA_DIALOG?$AA@ 10004b1c     flags.obj
 0001:00003b30       ??_C@_0BB@MLMLHIGE@MACROAREA_SEARCH?$AA@ 10004b30     flags.obj
 0001:00003b44       ??_C@_0BA@KKMKOLIK@MACROAREA_DISKS?$AA@ 10004b44     flags.obj
 0001:00003b54       ??_C@_0BD@IGOOIJP@MACROAREA_MAINMENU?$AA@ 10004b54     flags.obj
 0001:00003b68       ??_C@_0P@LFLMAHBF@MACROAREA_MENU?$AA@ 10004b68     flags.obj
 0001:00003b78       ??_C@_0P@DKPKIEO@MACROAREA_HELP?$AA@ 10004b78     flags.obj
 0001:00003b88       ??_C@_0BE@MDJPICHC@MACROAREA_INFOPANEL?$AA@ 10004b88     flags.obj
 0001:00003b9c       ??_C@_0BF@NLJMHMPP@MACROAREA_QVIEWPANEL?$AA@ 10004b9c     flags.obj
 0001:00003bb4       ??_C@_0BE@HBMEGBOC@MACROAREA_TREEPANEL?$AA@ 10004bb4     flags.obj
 0001:00003bc8       ??_C@_0BF@FCHKCGLL@MACROAREA_FINDFOLDER?$AA@ 10004bc8     flags.obj
 0001:00003be0       ??_C@_0BD@JCFMJGDE@MACROAREA_USERMENU?$AA@ 10004be0     flags.obj
 0001:00003bf4       ??_C@_0BO@OMLEPJPM@MACROAREA_SHELLAUTOCOMPLETION?$AA@ 10004bf4     flags.obj
 0001:00003c14       ??_C@_0BP@OIHAIGBK@MACROAREA_DIALOGAUTOCOMPLETION?$AA@ 10004c14     flags.obj
 0001:00003c34       ??_C@_0BC@EIJFKPMK@MACROAREA_GRABBER?$AA@ 10004c34     flags.obj
 0001:00003c48       ??_C@_0BC@GNLOCEJP@MACROAREA_DESKTOP?$AA@ 10004c48     flags.obj
 0001:00003c5c       ??_C@_0BB@JPEEDDOG@MACROAREA_COMMON?$AA@ 10004c5c     flags.obj
 0001:00003c70       ??_C@_0BD@DIKEKAIJ@MACROSTATE_NOMACRO?$AA@ 10004c70     flags.obj
 0001:00003c84       ??_C@_0BF@PCDEFEGP@MACROSTATE_EXECUTING?$AA@ 10004c84     flags.obj
 0001:00003c9c       ??_C@_0BM@EJOFDENO@MACROSTATE_EXECUTING_COMMON?$AA@ 10004c9c     flags.obj
 0001:00003cb8       ??_C@_0BF@BGODKPBB@MACROSTATE_RECORDING?$AA@ 10004cb8     flags.obj
 0001:00003cd0       ??_C@_0BM@OICPADFE@MACROSTATE_RECORDING_COMMON?$AA@ 10004cd0     flags.obj
 0001:00003cec       ??_C@_0N@CGFFMLBC@MPEC_SUCCESS?$AA@ 10004cec     flags.obj
 0001:00003cfc       ??_C@_0L@FJDDLDNN@MPEC_ERROR?$AA@ 10004cfc     flags.obj
 0001:00003d08       ??_C@_0N@IBOAADDD@FMVT_UNKNOWN?$AA@ 10004d08     flags.obj
 0001:00003d18       ??_C@_0N@BDMFKEKE@FMVT_INTEGER?$AA@ 10004d18     flags.obj
 0001:00003d28       ??_C@_0M@LFMLDDKI@FMVT_STRING?$AA@ 10004d28     flags.obj
 0001:00003d34       ??_C@_0M@CKDAIOEN@FMVT_DOUBLE?$AA@ 10004d34     flags.obj
 0001:00003d40       ??_C@_0N@MHKOBOGF@FMVT_BOOLEAN?$AA@ 10004d40     flags.obj
 0001:00003d50       ??_C@_0M@GKPDICDA@FMVT_BINARY?$AA@ 10004d50     flags.obj
 0001:00003d5c       ??_C@_0N@FMHCFNDF@FMVT_POINTER?$AA@ 10004d5c     flags.obj
 0001:00003d6c       ??_C@_08DDPDBBNO@FMVT_NIL?$AA@ 10004d6c     flags.obj
 0001:00003d78       ??_C@_0L@DJIKMOJA@FMVT_ARRAY?$AA@ 10004d78     flags.obj
 0001:00003d84       ??_C@_0L@PMDDFEBD@FMVT_PANEL?$AA@ 10004d84     flags.obj
 0001:00003d90       ??_C@_0O@DCGKMPOM@WTYPE_DESKTOP?$AA@ 10004d90     flags.obj
 0001:00003da0       ??_C@_0N@FNCFCPIG@WTYPE_PANELS?$AA@ 10004da0     flags.obj
 0001:00003db0       ??_C@_0N@EJKMDMBK@WTYPE_VIEWER?$AA@ 10004db0     flags.obj
 0001:00003dc0       ??_C@_0N@HJNGGOKO@WTYPE_EDITOR?$AA@ 10004dc0     flags.obj
 0001:00003dd0       ??_C@_0N@PBFHKEGB@WTYPE_DIALOG?$AA@ 10004dd0     flags.obj
 0001:00003de0       ??_C@_0M@OMKLELFA@WTYPE_VMENU?$AA@ 10004de0     flags.obj
 0001:00003dec       ??_C@_0L@BCEMNGOG@WTYPE_HELP?$AA@ 10004dec     flags.obj
 0001:00003df8       ??_C@_0P@MMIDEOJJ@WTYPE_COMBOBOX?$AA@ 10004df8     flags.obj
 0001:00003e08       ??_C@_0O@BHEBEELJ@WTYPE_GRABBER?$AA@ 10004e08     flags.obj
 0001:00003e18       ??_C@_0M@NFHHCILL@WTYPE_HMENU?$AA@ 10004e18     flags.obj
 0001:00003e24       ??_C@_0BA@IPEAOBGN@TBPS_NOPROGRESS?$AA@ 10004e24     flags.obj
 0001:00003e34       ??_C@_0BD@HMEHMDAL@TBPS_INDETERMINATE?$AA@ 10004e34     flags.obj
 0001:00003e48       ??_C@_0M@KHLNKPHE@TBPS_NORMAL?$AA@ 10004e48     flags.obj
 0001:00003e54       ??_C@_0L@DFDPCOFD@TBPS_ERROR?$AA@ 10004e54     flags.obj
 0001:00003e60       ??_C@_0M@GHGAPHPP@TBPS_PAUSED?$AA@ 10004e60     flags.obj
 0001:00003e6c       ??_C@_0O@MCNCFBLF@VSMT_VIEWMODE?$AA@ 10004e6c     flags.obj
 0001:00003e7c       ??_C@_09FLKONCNO@VSMT_WRAP?$AA@ 10004e7c     flags.obj
 0001:00003e88       ??_C@_0O@INKALKJK@VSMT_WORDWRAP?$AA@ 10004e88     flags.obj
 0001:00003e98       ??_C@_08FNEFFFEL@VMT_TEXT?$AA@ 10004e98     flags.obj
 0001:00003ea4       ??_C@_07FLIHDEDA@VMT_HEX?$AA@ 10004ea4     flags.obj
 0001:00003eac       ??_C@_08BDDNDBMJ@VMT_DUMP?$AA@ 10004eac     flags.obj
 0001:00003eb8       ??_C@_07OJCLGDHJ@VE_READ?$AA@ 10004eb8     flags.obj
 0001:00003ec0       ??_C@_08JIBCCIDC@VE_CLOSE?$AA@ 10004ec0     flags.obj
 0001:00003ecc       ??_C@_0M@FEFKOOMJ@VE_GOTFOCUS?$AA@ 10004ecc     flags.obj
 0001:00003ed8       ??_C@_0N@ICHCAKIB@VE_KILLFOCUS?$AA@ 10004ed8     flags.obj
 0001:00003ee8       ??_C@_07BLBPFFLB@EE_READ?$AA@ 10004ee8     flags.obj
 0001:00003ef0       ??_C@_07KJGPGPOC@EE_SAVE?$AA@ 10004ef0     flags.obj
 0001:00003ef8       ??_C@_09NPOPIKMK@EE_REDRAW?$AA@ 10004ef8     flags.obj
 0001:00003f04       ??_C@_08NFPFGIG@EE_CLOSE?$AA@ 10004f04     flags.obj
 0001:00003f10       ??_C@_0M@CPNMNBMF@EE_GOTFOCUS?$AA@ 10004f10     flags.obj
 0001:00003f1c       ??_C@_0N@ILLPMAJF@EE_KILLFOCUS?$AA@ 10004f1c     flags.obj
 0001:00003f2c       ??_C@_09MIOGFFI@EE_CHANGE?$AA@ 10004f2c     flags.obj
 0001:00003f38       ??_C@_0P@MBHAHBBG@DE_DLGPROCINIT?$AA@ 10004f38     flags.obj
 0001:00003f48       ??_C@_0BC@BMFEJAMO@DE_DEFDLGPROCINIT?$AA@ 10004f48     flags.obj
 0001:00003f5c       ??_C@_0O@ICBCOJCG@DE_DLGPROCEND?$AA@ 10004f5c     flags.obj
 0001:00003f6c       ??_C@_0BB@MNODJNPE@SE_COMMONSYNCHRO?$AA@ 10004f6c     flags.obj
 0001:00003f80       ??_C@_0N@HKGMPMJE@ESPT_TABSIZE?$AA@ 10004f80     flags.obj
 0001:00003f90       ??_C@_0BA@GOKHPFCK@ESPT_EXPANDTABS?$AA@ 10004f90     flags.obj
 0001:00003fa0       ??_C@_0BA@KOADDMLI@ESPT_AUTOINDENT?$AA@ 10004fa0     flags.obj
 0001:00003fb0       ??_C@_0BF@LPNONOMF@ESPT_CURSORBEYONDEOL?$AA@ 10004fb0     flags.obj
 0001:00003fc8       ??_C@_0BC@OECOCGLJ@ESPT_CHARCODEBASE?$AA@ 10004fc8     flags.obj
 0001:00003fdc       ??_C@_0O@PIAOJINE@ESPT_CODEPAGE?$AA@ 10004fdc     flags.obj
 0001:00003fec       ??_C@_0BG@HAPABMJH@ESPT_SAVEFILEPOSITION?$AA@ 10004fec     flags.obj
 0001:00004004       ??_C@_0O@KCPDJCKC@ESPT_LOCKMODE?$AA@ 10005004     flags.obj
 0001:00004014       ??_C@_0BA@EIGIAOHM@ESPT_SETWORDDIV?$AA@ 10005014     flags.obj
 0001:00004024       ??_C@_0BA@FGEHLJDF@ESPT_GETWORDDIV?$AA@ 10005024     flags.obj
 0001:00004034       ??_C@_0BE@MACJBCFP@ESPT_SHOWWHITESPACE?$AA@ 10005034     flags.obj
 0001:00004048       ??_C@_0M@FICNFPPA@ESPT_SETBOM?$AA@ 10005048     flags.obj
 0001:00004054       ??_C@_09FLEMPKKP@EUR_BEGIN?$AA@ 10005054     flags.obj
 0001:00004060       ??_C@_07DDJDFJCN@EUR_END?$AA@ 10005060     flags.obj
 0001:00004068       ??_C@_08FCONALGE@EUR_UNDO?$AA@ 10005068     flags.obj
 0001:00004074       ??_C@_08DHMMFAHF@EUR_REDO?$AA@ 10005074     flags.obj
 0001:00004080       ??_C@_0O@PKOIFEBO@EXPAND_NOTABS?$AA@ 10005080     flags.obj
 0001:00004090       ??_C@_0P@MLHPCNDM@EXPAND_ALLTABS?$AA@ 10005090     flags.obj
 0001:000040a0       ??_C@_0P@OONGIIBL@EXPAND_NEWTABS?$AA@ 100050a0     flags.obj
 0001:000040b0       ??_C@_0BD@DKHPEOHH@EOPT_EXPANDALLTABS?$AA@ 100050b0     flags.obj
 0001:000040c4       ??_C@_0BG@BOINMDEK@EOPT_PERSISTENTBLOCKS?$AA@ 100050c4     flags.obj
 0001:000040dc       ??_C@_0BG@PIIHHCAN@EOPT_DELREMOVESBLOCKS?$AA@ 100050dc     flags.obj
 0001:000040f4       ??_C@_0BA@KPJEAKBD@EOPT_AUTOINDENT?$AA@ 100050f4     flags.obj
 0001:00004104       ??_C@_0BG@MBPADLG@EOPT_SAVEFILEPOSITION?$AA@ 10005104     flags.obj
 0001:0000411c       ??_C@_0BI@PFHCGCAI@EOPT_AUTODETECTCODEPAGE?$AA@ 1000511c     flags.obj
 0001:00004134       ??_C@_0BF@IMCOEIAL@EOPT_CURSORBEYONDEOL?$AA@ 10005134     flags.obj
 0001:0000414c       ??_C@_0BH@CJPAGGLC@EOPT_EXPANDONLYNEWTABS?$AA@ 1000514c     flags.obj
 0001:00004164       ??_C@_0BE@DDKCDJDC@EOPT_SHOWWHITESPACE?$AA@ 10005164     flags.obj
 0001:00004178       ??_C@_08HMMLONBH@EOPT_BOM?$AA@ 10005178     flags.obj
 0001:00004184       ??_C@_0BD@CLLAKGOA@EOPT_SHOWLINEBREAK?$AA@ 10005184     flags.obj
 0001:00004198       ??_C@_0BC@JCJEPKEC@EOPT_SHOWTITLEBAR?$AA@ 10005198     flags.obj
 0001:000041ac       ??_C@_0BA@KPGMOBKI@EOPT_SHOWKEYBAR?$AA@ 100051ac     flags.obj
 0001:000041bc       ??_C@_0BD@EFCFEAD@EOPT_SHOWSCROLLBAR?$AA@ 100051bc     flags.obj
 0001:000041d0       ??_C@_0L@BJCBJJNB@BTYPE_NONE?$AA@ 100051d0     flags.obj
 0001:000041dc       ??_C@_0N@OPHHGFPF@BTYPE_STREAM?$AA@ 100051dc     flags.obj
 0001:000041ec       ??_C@_0N@EMEGNPLI@BTYPE_COLUMN?$AA@ 100051ec     flags.obj
 0001:000041fc       ??_C@_0BB@BNPDAPGB@ECSTATE_MODIFIED?$AA@ 100051fc     flags.obj
 0001:00004210       ??_C@_0O@GBBGHDFM@ECSTATE_SAVED?$AA@ 10005210     flags.obj
 0001:00004220       ??_C@_0P@BECIAJAM@ECSTATE_LOCKED?$AA@ 10005220     flags.obj
 0001:00004230       ??_C@_0P@DOBJCNIG@ECTYPE_CHANGED?$AA@ 10005230     flags.obj
 0001:00004240       ??_C@_0N@MDEFMEEA@ECTYPE_ADDED?$AA@ 10005240     flags.obj
 0001:00004250       ??_C@_0P@NMOJJPOB@ECTYPE_DELETED?$AA@ 10005250     flags.obj
 0001:00004260       ??_C@_08HHHKLJPB@PLT_PATH?$AA@ 10005260     flags.obj
 0001:0000426c       ??_C@_08KBAMIIFB@PFM_GUID?$AA@ 1000526c     flags.obj
 0001:00004278       ??_C@_0P@KKEMMPNI@PFM_MODULENAME?$AA@ 10005278     flags.obj
 0001:00004288       ??_C@_09BOODOHKD@FFT_PANEL?$AA@ 10005288     flags.obj
 0001:00004294       ??_C@_0N@GMEDAGNH@FFT_FINDFILE?$AA@ 10005294     flags.obj
 0001:000042a4       ??_C@_08KKCPIPGP@FFT_COPY?$AA@ 100052a4     flags.obj
 0001:000042b0       ??_C@_0L@EKPDMFDD@FFT_SELECT?$AA@ 100052b0     flags.obj
 0001:000042bc       ??_C@_0L@LGPEDLLD@FFT_CUSTOM?$AA@ 100052bc     flags.obj
 0001:000042c8       ??_C@_0M@OIOMMFOE@FST_UNKNOWN?$AA@ 100052c8     flags.obj
 0001:000042d4       ??_C@_0L@GGGOEGKJ@FST_SUBKEY?$AA@ 100052d4     flags.obj
 0001:000042e0       ??_C@_09LFEEAJIC@FST_QWORD?$AA@ 100052e0     flags.obj
 0001:000042ec       ??_C@_0L@LPMPBKDL@FST_STRING?$AA@ 100052ec     flags.obj
 0001:000042f8       ??_C@_08EJJJCLIG@FST_DATA?$AA@ 100052f8     flags.obj
 0001:00004304       ??_C@_09OBBBBFPE@FSSF_ROOT?$AA@ 10005304     flags.obj
 0001:00004310       ??_C@_0BB@HDKCPBIO@FSSF_HISTORY_CMD?$AA@ 10005310     flags.obj
 0001:00004324       ??_C@_0BE@BLPOFODL@FSSF_HISTORY_FOLDER?$AA@ 10005324     flags.obj
 0001:00004338       ??_C@_0BC@NJCJCCNH@FSSF_HISTORY_VIEW?$AA@ 10005338     flags.obj
 0001:0000434c       ??_C@_0BC@CODELNPP@FSSF_HISTORY_EDIT?$AA@ 1000534c     flags.obj
 0001:00004360       ??_C@_0BG@IFGEMJIF@FSSF_HISTORY_EXTERNAL?$AA@ 10005360     flags.obj
 0001:00004378       ??_C@_0BG@DGAKDKFK@FSSF_FOLDERSHORTCUT_0?$AA@ 10005378     flags.obj
 0001:00004390       ??_C@_0BG@CPBBALBL@FSSF_FOLDERSHORTCUT_1?$AA@ 10005390     flags.obj
 0001:000043a8       ??_C@_0BG@EDMFINI@FSSF_FOLDERSHORTCUT_2?$AA@ 100053a8     flags.obj
 0001:000043c0       ??_C@_0BG@BNCHGJJJ@FSSF_FOLDERSHORTCUT_3?$AA@ 100053c0     flags.obj
 0001:000043d8       ??_C@_0BG@FCGGPPFO@FSSF_FOLDERSHORTCUT_4?$AA@ 100053d8     flags.obj
 0001:000043f0       ??_C@_0BG@ELHNMOBP@FSSF_FOLDERSHORTCUT_5?$AA@ 100053f0     flags.obj
 0001:00004408       ??_C@_0BG@GAFAJNNM@FSSF_FOLDERSHORTCUT_6?$AA@ 10005408     flags.obj
 0001:00004420       ??_C@_0BG@HJELKMJN@FSSF_FOLDERSHORTCUT_7?$AA@ 10005420     flags.obj
 0001:00004438       ??_C@_0BG@PONDLAFC@FSSF_FOLDERSHORTCUT_8?$AA@ 10005438     flags.obj
 0001:00004450       ??_C@_0BG@OHMIIBBD@FSSF_FOLDERSHORTCUT_9?$AA@ 10005450     flags.obj
 0001:00004468       ??_C@_0BD@PBIEGEHP@FSSF_CONFIRMATIONS?$AA@ 10005468     flags.obj
 0001:0000447c       ??_C@_0M@PIGDMPJB@FSSF_SYSTEM?$AA@ 1000547c     flags.obj
 0001:00004488       ??_C@_0L@LBFNJGFB@FSSF_PANEL?$AA@ 10005488     flags.obj
 0001:00004494       ??_C@_0M@KJLIHDEL@FSSF_EDITOR?$AA@ 10005494     flags.obj
 0001:000044a0       ??_C@_0M@KEMGKEOF@FSSF_SCREEN?$AA@ 100054a0     flags.obj
 0001:000044ac       ??_C@_0M@CBDJLJIE@FSSF_DIALOG?$AA@ 100054ac     flags.obj
 0001:000044b8       ??_C@_0P@OCDADNBF@FSSF_INTERFACE?$AA@ 100054b8     flags.obj
 0001:000044c8       ??_C@_0BB@GBBEBNKE@FSSF_PANELLAYOUT?$AA@ 100054c8     flags.obj
 0001:000044dc       ??_C@_0M@JCGHGLJF@PSL_ROAMING?$AA@ 100054dc     flags.obj
 0001:000044e8       ??_C@_09EDBNDHCM@PSL_LOCAL?$AA@ 100054e8     flags.obj
 0001:000044f4       ??_C@_07BPEFOPGM@FCT_ANY?$AA@ 100054f4     flags.obj
 0001:000044fc       ??_C@_0L@CDAEILNM@FCT_STREAM?$AA@ 100054fc     flags.obj
 0001:00004508       ??_C@_0L@IADFDBJB@FCT_COLUMN?$AA@ 10005508     flags.obj
 0001:00004514       ??_C@_0O@KJFMBLFE@LINK_HARDLINK?$AA@ 10005514     flags.obj
 0001:00004524       ??_C@_0O@OOAFIIDA@LINK_JUNCTION?$AA@ 10005524     flags.obj
 0001:00004534       ??_C@_0O@FIAPLKLH@LINK_VOLMOUNT?$AA@ 10005534     flags.obj
 0001:00004544       ??_C@_0BB@JDBEPJDK@LINK_SYMLINKFILE?$AA@ 10005544     flags.obj
 0001:00004558       ??_C@_0BA@GFPIOFMG@LINK_SYMLINKDIR?$AA@ 10005558     flags.obj
 0001:00004568       ??_C@_0N@PJENIJFN@LINK_SYMLINK?$AA@ 10005568     flags.obj
 0001:00004578       ??_C@_08HNOHKPBK@CPM_FULL?$AA@ 10005578     flags.obj
 0001:00004584       ??_C@_08LAEGFKJE@CPM_REAL?$AA@ 10005584     flags.obj
 0001:00004590       ??_C@_0L@NPJNPCJM@CPM_NATIVE?$AA@ 10005590     flags.obj
 0001:0000459c       ??_C@_0L@NCFOENCC@VS_RELEASE?$AA@ 1000559c     flags.obj
 0001:000045a8       ??_C@_08BDGLHPMJ@VS_ALPHA?$AA@ 100055a8     flags.obj
 0001:000045b4       ??_C@_07OKFPMINB@VS_BETA?$AA@ 100055b4     flags.obj
 0001:000045bc       ??_C@_05MMFLPJEB@VS_RC?$AA@ 100055bc     flags.obj
 0001:000045c4       ??_C@_0BC@OOKLINPG@OPEN_LEFTDISKMENU?$AA@ 100055c4     flags.obj
 0001:000045d8       ??_C@_0BB@CEFDHHLF@OPEN_PLUGINSMENU?$AA@ 100055d8     flags.obj
 0001:000045ec       ??_C@_0O@IEJHJCNB@OPEN_FINDLIST?$AA@ 100055ec     flags.obj
 0001:000045fc       ??_C@_0O@OGDCDPNG@OPEN_SHORTCUT?$AA@ 100055fc     flags.obj
 0001:0000460c       ??_C@_0BB@JHCCMIPF@OPEN_COMMANDLINE?$AA@ 1000560c     flags.obj
 0001:00004620       ??_C@_0M@DMJLHMGM@OPEN_EDITOR?$AA@ 10005620     flags.obj
 0001:0000462c       ??_C@_0M@MOBCONI@OPEN_VIEWER?$AA@ 1000562c     flags.obj
 0001:00004638       ??_C@_0P@LCDNLGDE@OPEN_FILEPANEL?$AA@ 10005638     flags.obj
 0001:00004648       ??_C@_0M@LEBKLGKD@OPEN_DIALOG?$AA@ 10005648     flags.obj
 0001:00004654       ??_C@_0N@CBHPGAKB@OPEN_ANALYSE?$AA@ 10005654     flags.obj
 0001:00004664       ??_C@_0BD@NFNGGFHI@OPEN_RIGHTDISKMENU?$AA@ 10005664     flags.obj
 0001:00004678       ??_C@_0P@FOKOAMLC@OPEN_FROMMACRO?$AA@ 10005678     flags.obj
 0001:00004688       ??_C@_0O@NEDDJIHC@OPEN_LUAMACRO?$AA@ 10005688     flags.obj
 0001:00004698       ??_C@_0P@GBMLNMMI@MCT_MACROPARSE?$AA@ 10005698     flags.obj
 0001:000046a8       ??_C@_0P@GNPFPCF@MCT_LOADMACROS?$AA@ 100056a8     flags.obj
 0001:000046b8       ??_C@_0P@HMDDACMI@MCT_ENUMMACROS?$AA@ 100056b8     flags.obj
 0001:000046c8       ??_C@_0BA@MOCJHMJK@MCT_WRITEMACROS?$AA@ 100056c8     flags.obj
 0001:000046d8       ??_C@_0N@IGJGAHKE@MCT_GETMACRO?$AA@ 100056d8     flags.obj
 0001:000046e8       ??_C@_0BC@NFGGBILF@MCT_RECORDEDMACRO?$AA@ 100056e8     flags.obj
 0001:000046fc       ??_C@_0N@OLCKOJMI@MCT_DELMACRO?$AA@ 100056fc     flags.obj
 0001:0000470c       ??_C@_0BC@NALHIHJ@MCT_RUNSTARTMACRO?$AA@ 1000570c     flags.obj
 0001:00004720       ??_C@_0P@HOMHAEFB@MCT_EXECSTRING?$AA@ 10005720     flags.obj
 0001:00004730       ??_C@_0O@CDBDPKIC@MCT_PANELSORT?$AA@ 10005730     flags.obj
 0001:00004740       ??_C@_0BH@PKKJIOHM@MCT_GETCUSTOMSORTMODES?$AA@ 10005740     flags.obj
 0001:00004758       ??_C@_0N@FOPIOCHO@MCT_ADDMACRO?$AA@ 10005758     flags.obj
 0001:00004768       ??_C@_0N@BHFJFHA@MCT_KEYMACRO?$AA@ 10005768     flags.obj
 0001:00004778       ??_C@_0BB@LPDAOGB@MCT_CANPANELSORT?$AA@ 10005778     flags.obj
 0001:0000478c       ??_C@_0BC@IOECJI@MPRT_NORMALFINISH?$AA@ 1000578c     flags.obj
 0001:000047a0       ??_C@_0BB@PMCBIGCA@MPRT_ERRORFINISH?$AA@ 100057a0     flags.obj
 0001:000047b4       ??_C@_0BA@BCBAEEOI@MPRT_ERRORPARSE?$AA@ 100057b4     flags.obj
 0001:000047c4       ??_C@_09EJDAADCN@MPRT_KEYS?$AA@ 100057c4     flags.obj
 0001:000047d0       ??_C@_0L@GEHHCKFA@MPRT_PRINT?$AA@ 100057d0     flags.obj
 0001:000047dc       ??_C@_0BA@OBIDLEIM@MPRT_PLUGINCALL?$AA@ 100057dc     flags.obj
 0001:000047ec       ??_C@_0BA@EJFFOAMM@MPRT_PLUGINMENU?$AA@ 100057ec     flags.obj
 0001:000047fc       ??_C@_0BC@LEDOPMKI@MPRT_PLUGINCONFIG?$AA@ 100057fc     flags.obj
 0001:00004810       ??_C@_0BD@HHINMPPI@MPRT_PLUGINCOMMAND?$AA@ 10005810     flags.obj
 0001:00004824       ??_C@_0O@IEMNLPAB@MPRT_USERMENU?$AA@ 10005824     flags.obj
 0001:00004834       ??_C@_0BA@GEAFHJNF@MPRT_HASNOMACRO?$AA@ 10005834     flags.obj
 0001:00004844       ??_C@_0BC@PNCKAHJO@FE_CHANGEVIEWMODE?$AA@ 10005844     flags.obj
 0001:00004858       ??_C@_09DENIDBMJ@FE_REDRAW?$AA@ 10005858     flags.obj
 0001:00004864       ??_C@_07CLNPDBLG@FE_IDLE?$AA@ 10005864     flags.obj
 0001:0000486c       ??_C@_08DENCGKED@FE_CLOSE?$AA@ 1000586c     flags.obj
 0001:00004878       ??_C@_08MOMCCKPB@FE_BREAK?$AA@ 10005878     flags.obj
 0001:00004884       ??_C@_0L@LELAIPLL@FE_COMMAND?$AA@ 10005884     flags.obj
 0001:00004890       ??_C@_0M@FIECADDF@FE_GOTFOCUS?$AA@ 10005890     flags.obj
 0001:0000489c       ??_C@_0N@DGHFKMFL@FE_KILLFOCUS?$AA@ 1000589c     flags.obj
 0001:000048ac       ??_C@_0BE@PONEECEM@FE_CHANGESORTPARAMS?$AA@ 100058ac     flags.obj
 0001:000048c0       ??_C@_0M@HNDHDHHO@FCF_FG_4BIT?$AA@ 100058c0     flags.obj
 0001:000048cc       ??_C@_0M@PJHNDJIE@FCF_BG_4BIT?$AA@ 100058cc     flags.obj
 0001:000048d8       ??_C@_0N@HMKJBHOA@FCF_4BITMASK?$AA@ 100058d8     flags.obj
 0001:000048e8       ??_C@_0BB@PJFLJJLD@FCF_RAWATTR_MASK?$AA@ 100058e8     flags.obj
 0001:000048fc       ??_C@_0BC@NKBLNNIA@FCF_EXTENDEDFLAGS?$AA@ 100058fc     flags.obj
 0001:00004910       ??_C@_0M@LFMGCKHG@FCF_FG_BOLD?$AA@ 10005910     flags.obj
 0001:0000491c       ??_C@_0O@FAPDECBF@FCF_FG_ITALIC?$AA@ 1000591c     flags.obj
 0001:0000492c       ??_C@_0BB@NPEFGEGA@FCF_FG_UNDERLINE?$AA@ 1000592c     flags.obj
 0001:00004940       ??_C@_0O@LGBGBIGB@FCF_STYLEMASK?$AA@ 10005940     flags.obj
 0001:00004950       ??_C@_08BKNBBLHK@FCF_NONE?$AA@ 10005950     flags.obj
 0001:0000495c       ??_C@_08FKIDFHCM@CDF_NONE?$AA@ 1000595c     flags.obj
 0001:00004968       ??_C@_0N@ELMEMNDH@FMSG_WARNING?$AA@ 10005968     flags.obj
 0001:00004978       ??_C@_0P@HHIGLJAP@FMSG_ERRORTYPE?$AA@ 10005978     flags.obj
 0001:00004988       ??_C@_0BE@FHOOILPH@FMSG_KEEPBACKGROUND?$AA@ 10005988     flags.obj
 0001:0000499c       ??_C@_0P@KBEMNNEP@FMSG_LEFTALIGN?$AA@ 1000599c     flags.obj
 0001:000049ac       ??_C@_0O@FOIOKDHJ@FMSG_ALLINONE?$AA@ 100059ac     flags.obj
 0001:000049bc       ??_C@_0L@BGALGPOK@FMSG_MB_OK?$AA@ 100059bc     flags.obj
 0001:000049c8       ??_C@_0BB@JGAPGIEP@FMSG_MB_OKCANCEL?$AA@ 100059c8     flags.obj
 0001:000049dc       ??_C@_0BJ@BKJADAHA@FMSG_MB_ABORTRETRYIGNORE?$AA@ 100059dc     flags.obj
 0001:000049f8       ??_C@_0O@GPCAPHCL@FMSG_MB_YESNO?$AA@ 100059f8     flags.obj
 0001:00004a08       ??_C@_0BE@IBNOLCGP@FMSG_MB_YESNOCANCEL?$AA@ 10005a08     flags.obj
 0001:00004a1c       ??_C@_0BE@OCLAIENB@FMSG_MB_RETRYCANCEL?$AA@ 10005a1c     flags.obj
 0001:00004a30       ??_C@_09NEGPLEAH@FMSG_NONE?$AA@ 10005a30     flags.obj
 0001:00004a3c       ??_C@_0N@DHJCDIKM@DIF_BOXCOLOR?$AA@ 10005a3c     flags.obj
 0001:00004a4c       ??_C@_09IAEPIICA@DIF_GROUP?$AA@ 10005a4c     flags.obj
 0001:00004a58       ??_C@_0N@GCKJNBCM@DIF_LEFTTEXT?$AA@ 10005a58     flags.obj
 0001:00004a68       ??_C@_0P@BGPBEDHH@DIF_MOVESELECT?$AA@ 10005a68     flags.obj
 0001:00004a78       ??_C@_0BC@PDKFKKEI@DIF_SHOWAMPERSAND?$AA@ 10005a78     flags.obj
 0001:00004a8c       ??_C@_0BA@BLCOKAAO@DIF_CENTERGROUP?$AA@ 10005a8c     flags.obj
 0001:00004a9c       ??_C@_0P@MKFBJPOB@DIF_NOBRACKETS?$AA@ 10005a9c     flags.obj
 0001:00004aac       ??_C@_0BF@JBCDBJCL@DIF_MANUALADDHISTORY?$AA@ 10005aac     flags.obj
 0001:00004ac4       ??_C@_0O@JKNMBNLA@DIF_SEPARATOR?$AA@ 10005ac4     flags.obj
 0001:00004ad4       ??_C@_0P@CGILDLOA@DIF_SEPARATOR2?$AA@ 10005ad4     flags.obj
 0001:00004ae4       ??_C@_0L@NBPFNGLB@DIF_EDITOR?$AA@ 10005ae4     flags.obj
 0001:00004af0       ??_C@_0BE@PFICAGJF@DIF_LISTNOAMPERSAND?$AA@ 10005af0     flags.obj
 0001:00004b04       ??_C@_0O@FFJNBMAD@DIF_LISTNOBOX?$AA@ 10005b04     flags.obj
 0001:00004b14       ??_C@_0M@IPFBMFDN@DIF_HISTORY?$AA@ 10005b14     flags.obj
 0001:00004b20       ??_C@_0P@EGFAEEDC@DIF_BTNNOCLOSE?$AA@ 10005b20     flags.obj
 0001:00004b30       ??_C@_0P@KOJCCCGB@DIF_CENTERTEXT?$AA@ 10005b30     flags.obj
 0001:00004b40       ??_C@_0BC@ODEMBOPK@DIF_SEPARATORUSER?$AA@ 10005b40     flags.obj
 0001:00004b54       ??_C@_0O@IKJBMPOF@DIF_SETSHIELD?$AA@ 10005b54     flags.obj
 0001:00004b64       ??_C@_0P@EEJEDBLH@DIF_EDITEXPAND?$AA@ 10005b64     flags.obj
 0001:00004b74       ??_C@_0BB@EIMEKEFP@DIF_DROPDOWNLIST?$AA@ 10005b74     flags.obj
 0001:00004b88       ??_C@_0BD@MNGIOLFF@DIF_USELASTHISTORY?$AA@ 10005b88     flags.obj
 0001:00004b9c       ??_C@_0N@MOCGNIKC@DIF_MASKEDIT?$AA@ 10005b9c     flags.obj
 0001:00004bac       ??_C@_0BD@LPDHCLJI@DIF_LISTTRACKMOUSE?$AA@ 10005bac     flags.obj
 0001:00004bc0       ??_C@_0BK@LEFIBDOA@DIF_LISTTRACKMOUSEINFOCUS?$AA@ 10005bc0     flags.obj
 0001:00004bdc       ??_C@_0BC@JNLDMGBD@DIF_SELECTONENTRY?$AA@ 10005bdc     flags.obj
 0001:00004bf0       ??_C@_0L@KKNJDNBK@DIF_3STATE?$AA@ 10005bf0     flags.obj
 0001:00004bfc       ??_C@_0N@GBGHICKO@DIF_EDITPATH?$AA@ 10005bfc     flags.obj
 0001:00004c0c       ??_C@_0BB@NPNALIGO@DIF_LISTWRAPMODE?$AA@ 10005c0c     flags.obj
 0001:00004c20       ??_C@_0BD@MFOKKGGF@DIF_NOAUTOCOMPLETE?$AA@ 10005c20     flags.obj
 0001:00004c34       ??_C@_0BG@MONEJILE@DIF_LISTAUTOHIGHLIGHT?$AA@ 10005c34     flags.obj
 0001:00004c4c       ??_C@_0BA@JNOKLHOL@DIF_LISTNOCLOSE?$AA@ 10005c4c     flags.obj
 0001:00004c5c       ??_C@_0BB@GMKDKOOP@DIF_EDITPATHEXEC?$AA@ 10005c5c     flags.obj
 0001:00004c70       ??_C@_0L@EPNFOPAK@DIF_HIDDEN?$AA@ 10005c70     flags.obj
 0001:00004c7c       ??_C@_0N@KOGKCAKJ@DIF_READONLY?$AA@ 10005c7c     flags.obj
 0001:00004c8c       ??_C@_0M@NLLDINIM@DIF_NOFOCUS?$AA@ 10005c8c     flags.obj
 0001:00004c98       ??_C@_0M@HCFLMDHK@DIF_DISABLE?$AA@ 10005c98     flags.obj
 0001:00004ca4       ??_C@_0BC@CHAAKEJO@DIF_DEFAULTBUTTON?$AA@ 10005ca4     flags.obj
 0001:00004cb8       ??_C@_09LCJIOEMN@DIF_FOCUS?$AA@ 10005cb8     flags.obj
 0001:00004cc4       ??_C@_0O@KJADCBBN@DIF_RIGHTTEXT?$AA@ 10005cc4     flags.obj
 0001:00004cd4       ??_C@_0N@LAEOODAD@DIF_WORDWRAP?$AA@ 10005cd4     flags.obj
 0001:00004ce4       ??_C@_08KFOHCPDE@DIF_NONE?$AA@ 10005ce4     flags.obj
 0001:00004cf0       ??_C@_0N@EDHAFIIL@LIF_SELECTED?$AA@ 10005cf0     flags.obj
 0001:00004d00       ??_C@_0M@BMGIEAIL@LIF_CHECKED?$AA@ 10005d00     flags.obj
 0001:00004d0c       ??_C@_0O@KJIFADIG@LIF_SEPARATOR?$AA@ 10005d0c     flags.obj
 0001:00004d1c       ??_C@_0M@HEFHLFIE@LIF_DISABLE?$AA@ 10005d1c     flags.obj
 0001:00004d28       ??_C@_0L@PKDDGEEG@LIF_GRAYED?$AA@ 10005d28     flags.obj
 0001:00004d34       ??_C@_0L@PFBGAOEP@LIF_HIDDEN?$AA@ 10005d34     flags.obj
 0001:00004d40       ??_C@_0BD@HEPCOIEH@LIF_DELETEUSERDATA?$AA@ 10005d40     flags.obj
 0001:00004d54       ??_C@_08BODPINCM@LIF_NONE?$AA@ 10005d54     flags.obj
 0001:00004d60       ??_C@_0BC@BGAENNBJ@LIFIND_EXACTMATCH?$AA@ 10005d60     flags.obj
 0001:00004d74       ??_C@_0M@FPOGKIGO@LIFIND_NONE?$AA@ 10005d74     flags.obj
 0001:00004d80       ??_C@_0BA@OOIEKCFB@LINFO_SHOWNOBOX?$AA@ 10005d80     flags.obj
 0001:00004d90       ??_C@_0BE@DECCEGNO@LINFO_AUTOHIGHLIGHT?$AA@ 10005d90     flags.obj
 0001:00004da4       ??_C@_0BH@BADLEILJ@LINFO_REVERSEHIGHLIGHT?$AA@ 10005da4     flags.obj
 0001:00004dbc       ??_C@_0P@KLBMHNCG@LINFO_WRAPMODE?$AA@ 10005dbc     flags.obj
 0001:00004dcc       ??_C@_0BE@OHJCOKAE@LINFO_SHOWAMPERSAND?$AA@ 10005dcc     flags.obj
 0001:00004de0       ??_C@_0L@EPACPANF@LINFO_NONE?$AA@ 10005de0     flags.obj
 0001:00004dec       ??_C@_0N@OLGDMHKL@FDLG_WARNING?$AA@ 10005dec     flags.obj
 0001:00004dfc       ??_C@_0BB@DKMEBDJJ@FDLG_SMALLDIALOG?$AA@ 10005dfc     flags.obj
 0001:00004e10       ??_C@_0BC@ONGLDAJN@FDLG_NODRAWSHADOW?$AA@ 10005e10     flags.obj
 0001:00004e24       ??_C@_0BB@NPLEEAKK@FDLG_NODRAWPANEL?$AA@ 10005e24     flags.obj
 0001:00004e38       ??_C@_0BG@GHNOOENB@FDLG_KEEPCONSOLETITLE?$AA@ 10005e38     flags.obj
 0001:00004e50       ??_C@_0O@MKFABCNE@FDLG_NONMODAL?$AA@ 10005e50     flags.obj
 0001:00004e60       ??_C@_09NNFHCBNL@FDLG_NONE?$AA@ 10005e60     flags.obj
 0001:00004e6c       ??_C@_0N@JOOGIBAO@MIF_SELECTED?$AA@ 10005e6c     flags.obj
 0001:00004e7c       ??_C@_0M@IHMNAMOE@MIF_CHECKED?$AA@ 10005e7c     flags.obj
 0001:00004e88       ??_C@_0O@DEIKOCPA@MIF_SEPARATOR?$AA@ 10005e88     flags.obj
 0001:00004e98       ??_C@_0M@OPPCPJOL@MIF_DISABLE?$AA@ 10005e98     flags.obj
 0001:00004ea4       ??_C@_0L@DLLNLLIG@MIF_GRAYED?$AA@ 10005ea4     flags.obj
 0001:00004eb0       ??_C@_0L@DEJINBIP@MIF_HIDDEN?$AA@ 10005eb0     flags.obj
 0001:00004ebc       ??_C@_08JEEJJGP@MIF_NONE?$AA@ 10005ebc     flags.obj
 0001:00004ec8       ??_C@_0BE@FALMPPJK@FMENU_SHOWAMPERSAND?$AA@ 10005ec8     flags.obj
 0001:00004edc       ??_C@_0P@HICDNKDJ@FMENU_WRAPMODE?$AA@ 10005edc     flags.obj
 0001:00004eec       ??_C@_0BE@IDAMFDEA@FMENU_AUTOHIGHLIGHT?$AA@ 10005eec     flags.obj
 0001:00004f00       ??_C@_0BL@OKAIKPMN@FMENU_REVERSEAUTOHIGHLIGHT?$AA@ 10005f00     flags.obj
 0001:00004f1c       ??_C@_0BJ@FCEONOJC@FMENU_CHANGECONSOLETITLE?$AA@ 10005f1c     flags.obj
 0001:00004f38       ??_C@_0L@DGFIEOMD@FMENU_NONE?$AA@ 10005f38     flags.obj
 0001:00004f44       ??_C@_0O@JEAJLDHC@PPIF_SELECTED?$AA@ 10005f44     flags.obj
 0001:00004f54       ??_C@_0BC@LPBDBIOM@PPIF_PROCESSDESCR?$AA@ 10005f54     flags.obj
 0001:00004f68       ??_C@_09OIFMMGNJ@PPIF_NONE?$AA@ 10005f68     flags.obj
 0001:00004f74       ??_C@_0BC@BONLDOOD@PFLAGS_SHOWHIDDEN?$AA@ 10005f74     flags.obj
 0001:00004f88       ??_C@_0BB@BCAJEJEH@PFLAGS_HIGHLIGHT?$AA@ 10005f88     flags.obj
 0001:00004f9c       ??_C@_0BI@BFAFODJ@PFLAGS_REVERSESORTORDER?$AA@ 10005f9c     flags.obj
 0001:00004fb4       ??_C@_0BF@KJNCJPKN@PFLAGS_USESORTGROUPS?$AA@ 10005fb4     flags.obj
 0001:00004fcc       ??_C@_0BF@LBBAIOCD@PFLAGS_SELECTEDFIRST?$AA@ 10005fcc     flags.obj
 0001:00004fe4       ??_C@_0BB@KDANIJNM@PFLAGS_REALNAMES?$AA@ 10005fe4     flags.obj
 0001:00004ff8       ??_C@_0BB@ILEHDKFJ@PFLAGS_PANELLEFT?$AA@ 10005ff8     flags.obj
 0001:0000500c       ??_C@_0BI@EHHAJLOH@PFLAGS_DIRECTORIESFIRST?$AA@ 1000600c     flags.obj
 0001:00005024       ??_C@_0BA@KJEPHDOM@PFLAGS_USECRC32?$AA@ 10006024     flags.obj
 0001:00005034       ??_C@_0O@DBPJGING@PFLAGS_PLUGIN?$AA@ 10006034     flags.obj
 0001:00005044       ??_C@_0P@MLDEBNPK@PFLAGS_VISIBLE?$AA@ 10006044     flags.obj
 0001:00005054       ??_C@_0N@EOFAELOJ@PFLAGS_FOCUS?$AA@ 10006054     flags.obj
 0001:00005064       ??_C@_0BI@EOCCAHFA@PFLAGS_ALTERNATIVENAMES?$AA@ 10006064     flags.obj
 0001:0000507c       ??_C@_0BA@GHMDCHHI@PFLAGS_SHORTCUT?$AA@ 1000607c     flags.obj
 0001:0000508c       ??_C@_0M@NEMAHHGP@PFLAGS_NONE?$AA@ 1000608c     flags.obj
 0001:00005098       ??_C@_0M@IDNADAFL@VF_NONMODAL?$AA@ 10006098     flags.obj
 0001:000050a4       ??_C@_0BB@OCDDPIKL@VF_DELETEONCLOSE?$AA@ 100060a4     flags.obj
 0001:000050b8       ??_C@_0N@LDHALKKM@VF_ENABLE_F6?$AA@ 100060b8     flags.obj
 0001:000050c8       ??_C@_0BC@DLGKMECC@VF_DISABLEHISTORY?$AA@ 100060c8     flags.obj
 0001:000050dc       ??_C@_0BD@DHJCMLFI@VF_IMMEDIATERETURN?$AA@ 100060dc     flags.obj
 0001:000050f0       ??_C@_0BJ@OGNFHEJG@VF_DELETEONLYFILEONCLOSE?$AA@ 100060f0     flags.obj
 0001:0000510c       ??_C@_07CJJFHP@VF_NONE?$AA@ 1000610c     flags.obj
 0001:00005114       ??_C@_0M@PIFGAPFH@EF_NONMODAL?$AA@ 10006114     flags.obj
 0001:00005120       ??_C@_0N@DBHFPBEO@EF_CREATENEW?$AA@ 10006120     flags.obj
 0001:00005130       ??_C@_0N@LKLNHALI@EF_ENABLE_F6?$AA@ 10006130     flags.obj
 0001:00005140       ??_C@_0BC@PPEPEFFI@EF_DISABLEHISTORY?$AA@ 10006140     flags.obj
 0001:00005154       ??_C@_0BB@KGPIDKFC@EF_DELETEONCLOSE?$AA@ 10006154     flags.obj
 0001:00005168       ??_C@_0BD@IHIGHGPL@EF_IMMEDIATERETURN?$AA@ 10006168     flags.obj
 0001:0000517c       ??_C@_0BJ@ILCPOFKL@EF_DELETEONLYFILEONCLOSE?$AA@ 1000617c     flags.obj
 0001:00005198       ??_C@_09IJMPFPLB@EF_LOCKED?$AA@ 10006198     flags.obj
 0001:000051a4       ??_C@_0BC@GFHJGKD@EF_DISABLESAVEPOS?$AA@ 100061a4     flags.obj
 0001:000051b8       ??_C@_0BB@NILAHAFO@EF_OPENMODE_MASK?$AA@ 100061b8     flags.obj
 0001:000051cc       ??_C@_0BC@GAIDEJIA@EF_OPENMODE_QUERY?$AA@ 100061cc     flags.obj
 0001:000051e0       ??_C@_0BG@BFKJJBAG@EF_OPENMODE_NEWIFOPEN?$AA@ 100061e0     flags.obj
 0001:000051f8       ??_C@_0BI@KGOKGPEI@EF_OPENMODE_USEEXISTING?$AA@ 100061f8     flags.obj
 0001:00005210       ??_C@_0BI@EJBKKDJ@EF_OPENMODE_BREAKIFOPEN?$AA@ 10006210     flags.obj
 0001:00005228       ??_C@_0BJ@MOLGCBMH@EF_OPENMODE_RELOADIFOPEN?$AA@ 10006228     flags.obj
 0001:00005244       ??_C@_07MBPCONNA@EN_NONE?$AA@ 10006244     flags.obj
 0001:0000524c       ??_C@_0BC@HHNGCBAM@FHELP_NOSHOWERROR?$AA@ 1000624c     flags.obj
 0001:00005260       ??_C@_0P@GANNLHEJ@FHELP_SELFHELP?$AA@ 10006260     flags.obj
 0001:00005270       ??_C@_0O@FLGGLFLC@FHELP_FARHELP?$AA@ 10006270     flags.obj
 0001:00005280       ??_C@_0BB@KNKDPNI@FHELP_CUSTOMFILE?$AA@ 10006280     flags.obj
 0001:00005294       ??_C@_0BB@IHFFPJJA@FHELP_CUSTOMPATH?$AA@ 10006294     flags.obj
 0001:000052a8       ??_C@_0L@OOIMFPBD@FHELP_GUID?$AA@ 100062a8     flags.obj
 0001:000052b4       ??_C@_0BC@PNPOIHMG@FHELP_USECONTENTS?$AA@ 100062b4     flags.obj
 0001:000052c8       ??_C@_0L@MAGMKNFN@FHELP_NONE?$AA@ 100062c8     flags.obj
 0001:000052d4       ??_C@_0BE@GEGKIINM@KMFLAGS_SILENTCHECK?$AA@ 100062d4     flags.obj
 0001:000052e8       ??_C@_0BM@BBOPLPKC@KMFLAGS_NOSENDKEYSTOPLUGINS?$AA@ 100062e8     flags.obj
 0001:00005304       ??_C@_0BF@PHHPAAOK@KMFLAGS_ENABLEOUTPUT?$AA@ 10006304     flags.obj
 0001:0000531c       ??_C@_0BB@NCECNBPK@KMFLAGS_LANGMASK?$AA@ 1000631c     flags.obj
 0001:00005330       ??_C@_0M@HFBACHCP@KMFLAGS_LUA?$AA@ 10006330     flags.obj
 0001:0000533c       ??_C@_0BD@JHNPMIGP@KMFLAGS_MOONSCRIPT?$AA@ 1000633c     flags.obj
 0001:00005350       ??_C@_0N@GIJCDFJI@KMFLAGS_NONE?$AA@ 10006350     flags.obj
 0001:00005360       ??_C@_0O@GKOLBMFK@AKMFLAGS_NONE?$AA@ 10006360     flags.obj
 0001:00005370       ??_C@_0P@LMBMJIMF@FSETCLR_REDRAW?$AA@ 10006370     flags.obj
 0001:00005380       ??_C@_0N@LCOHPDHN@FSETCLR_NONE?$AA@ 10006380     flags.obj
 0001:00005390       ??_C@_0N@MLMCEKPH@WIF_MODIFIED?$AA@ 10006390     flags.obj
 0001:000053a0       ??_C@_0M@ICPAPCOF@WIF_CURRENT?$AA@ 100063a0     flags.obj
 0001:000053ac       ??_C@_09FPGEBDGO@WIF_MODAL?$AA@ 100063ac     flags.obj
 0001:000053b8       ??_C@_08DAKKFBIA@WIF_NONE?$AA@ 100063b8     flags.obj
 0001:000053c4       ??_C@_0BG@JMJAOELH@VOPT_SAVEFILEPOSITION?$AA@ 100063c4     flags.obj
 0001:000053dc       ??_C@_0BI@NCAHLEBN@VOPT_AUTODETECTCODEPAGE?$AA@ 100063dc     flags.obj
 0001:000053f4       ??_C@_0BC@FGLBHLDI@VOPT_SHOWTITLEBAR?$AA@ 100063f4     flags.obj
 0001:00005408       ??_C@_0BA@GAIDGLME@VOPT_SHOWKEYBAR?$AA@ 10006408     flags.obj
 0001:00005418       ??_C@_0BD@LEEGOJKA@VOPT_SHOWSCROLLBAR?$AA@ 10006418     flags.obj
 0001:0000542c       ??_C@_0P@NEIKPMJJ@VOPT_QUICKVIEW?$AA@ 1000642c     flags.obj
 0001:0000543c       ??_C@_09FIOJMNJ@VOPT_NONE?$AA@ 1000643c     flags.obj
 0001:00005448       ??_C@_0N@ILNDJNNO@VSMFL_REDRAW?$AA@ 10006448     flags.obj
 0001:00005458       ??_C@_0L@DLLCFLOD@VSMFL_NONE?$AA@ 10006458     flags.obj
 0001:00005464       ??_C@_0N@GHEHKHJN@VSP_NOREDRAW?$AA@ 10006464     flags.obj
 0001:00005474       ??_C@_0M@LHNGMHFO@VSP_PERCENT?$AA@ 10006474     flags.obj
 0001:00005480       ??_C@_0N@JGGGCNIP@VSP_RELATIVE?$AA@ 10006480     flags.obj
 0001:00005490       ??_C@_0BA@JKDMJLJG@VSP_NORETNEWPOS?$AA@ 10006490     flags.obj
 0001:000054a0       ??_C@_08MOKEMBNE@VSP_NONE?$AA@ 100064a0     flags.obj
 0001:000054ac       ??_C@_08FAPBJAKB@VMF_WRAP?$AA@ 100064ac     flags.obj
 0001:000054b8       ??_C@_0N@GHBDMLON@VMF_WORDWRAP?$AA@ 100064b8     flags.obj
 0001:000054c8       ??_C@_08KDJLELDJ@VMF_NONE?$AA@ 100064c8     flags.obj
 0001:000054d4       ??_C@_0BB@EDGIEBDF@ECF_TABMARKFIRST?$AA@ 100064d4     flags.obj
 0001:000054e8       ??_C@_0BD@DKGCCJNG@ECF_TABMARKCURRENT?$AA@ 100064e8     flags.obj
 0001:000054fc       ??_C@_0P@BAFEMBAJ@ECF_AUTODELETE?$AA@ 100064fc     flags.obj
 0001:0000550c       ??_C@_08CDFMCHLP@ECF_NONE?$AA@ 1000650c     flags.obj
 0001:00005518       ??_C@_0BA@KNNLMGCA@FIB_ENABLEEMPTY?$AA@ 10006518     flags.obj
 0001:00005528       ??_C@_0N@DLDJCGJI@FIB_PASSWORD?$AA@ 10006528     flags.obj
 0001:00005538       ??_C@_0O@DOHEGELC@FIB_EXPANDENV?$AA@ 10006538     flags.obj
 0001:00005548       ??_C@_0BF@CEMIHIOK@FIB_NOUSELASTHISTORY?$AA@ 10006548     flags.obj
 0001:00005560       ??_C@_0M@KJOJJDIM@FIB_BUTTONS?$AA@ 10006560     flags.obj
 0001:0000556c       ??_C@_0BA@COBBDHNL@FIB_NOAMPERSAND?$AA@ 1000656c     flags.obj
 0001:0000557c       ??_C@_0N@LBOCEEGH@FIB_EDITPATH?$AA@ 1000657c     flags.obj
 0001:0000558c       ??_C@_0BB@DCODFLEL@FIB_EDITPATHEXEC?$AA@ 1000658c     flags.obj
 0001:000055a0       ??_C@_08HPFOCDKB@FIB_NONE?$AA@ 100065a0     flags.obj
 0001:000055ac       ??_C@_0L@NMBLFMBN@FPF_LOADED?$AA@ 100065ac     flags.obj
 0001:000055b8       ??_C@_08GKECKCCJ@FPF_ANSI?$AA@ 100065b8     flags.obj
 0001:000055c4       ??_C@_08OIOFCNLC@FPF_NONE?$AA@ 100065c4     flags.obj
 0001:000055d0       ??_C@_0L@HODJIPGA@PN_CMPNAME?$AA@ 100065d0     flags.obj
 0001:000055dc       ??_C@_0P@KDEENAHJ@PN_CMPNAMELIST?$AA@ 100065dc     flags.obj
 0001:000055ec       ??_C@_0BA@BJCCEIOI@PN_GENERATENAME?$AA@ 100065ec     flags.obj
 0001:000055fc       ??_C@_0N@FEGPCCPJ@PN_CHECKMASK?$AA@ 100065fc     flags.obj
 0001:0000560c       ??_C@_0M@NOOLKEBH@PN_SKIPPATH?$AA@ 1000660c     flags.obj
 0001:00005618       ??_C@_0BE@OPDBOAAE@PN_SHOWERRORMESSAGE?$AA@ 10006618     flags.obj
 0001:0000562c       ??_C@_07PFKJNCJP@PN_NONE?$AA@ 1000662c     flags.obj
 0001:00005634       ??_C@_0BG@GOMJDMCK@XLAT_SWITCHKEYBLAYOUT?$AA@ 10006634     flags.obj
 0001:0000564c       ??_C@_0BE@KOIJDNLA@XLAT_SWITCHKEYBBEEP?$AA@ 1000664c     flags.obj
 0001:00005660       ??_C@_0BH@KBFAFPNA@XLAT_USEKEYBLAYOUTNAME?$AA@ 10006660     flags.obj
 0001:00005678       ??_C@_0BH@IANKLOAC@XLAT_CONVERTALLCMDLINE?$AA@ 10006678     flags.obj
 0001:00005690       ??_C@_09JCNLKBBK@XLAT_NONE?$AA@ 10006690     flags.obj
 0001:0000569c       ??_C@_0N@PJEDCNNJ@FRS_RETUPDIR?$AA@ 1000669c     flags.obj
 0001:000056ac       ??_C@_09GHEPLOHO@FRS_RECUR?$AA@ 100066ac     flags.obj
 0001:000056b8       ??_C@_0BA@JCPHOEAE@FRS_SCANSYMLINK?$AA@ 100066b8     flags.obj
 0001:000056c8       ??_C@_08JPCGJJKG@FRS_NONE?$AA@ 100066c8     flags.obj
 0001:000056d4       ??_C@_0P@LJPBHEIE@MLF_SHOWERRMSG?$AA@ 100066d4     flags.obj
 0001:000056e4       ??_C@_0BF@LMAGFLHF@MLF_DONOTUPDATEPANEL?$AA@ 100066e4     flags.obj
 0001:000056fc       ??_C@_0P@EPFBLPAE@MLF_HOLDTARGET?$AA@ 100066fc     flags.obj
 0001:0000570c       ??_C@_08EBKEJHAL@MLF_NONE?$AA@ 1000670c     flags.obj
 0001:00005718       ??_C@_0M@JDMKDBDH@FFFS_COMMAS?$AA@ 10006718     flags.obj
 0001:00005724       ??_C@_0P@JPMLNBKL@FFFS_FLOATSIZE?$AA@ 10006724     flags.obj
 0001:00005734       ??_C@_0BE@NPKCCEJ@FFFS_SHOWBYTESINDEX?$AA@ 10006734     flags.obj
 0001:00005748       ??_C@_0O@FPIOAIMC@FFFS_ECONOMIC?$AA@ 10006748     flags.obj
 0001:00005758       ??_C@_0O@HFIGPFIH@FFFS_THOUSAND?$AA@ 10006758     flags.obj
 0001:00005768       ??_C@_0BC@LLLANJJO@FFFS_MINSIZEINDEX?$AA@ 10006768     flags.obj
 0001:0000577c       ??_C@_0BH@PEGBPJKE@FFFS_MINSIZEINDEX_MASK?$AA@ 1000677c     flags.obj
 0001:00005794       ??_C@_09PBPAKNEI@FFFS_NONE?$AA@ 10006794     flags.obj
 0001:000057a0       ??_C@_0L@NHEJGKCF@PF_PRELOAD?$AA@ 100067a0     flags.obj
 0001:000057ac       ??_C@_0BB@GCINAIGN@PF_DISABLEPANELS?$AA@ 100067ac     flags.obj
 0001:000057c0       ??_C@_09OENCMPGE@PF_EDITOR?$AA@ 100067c0     flags.obj
 0001:000057cc       ??_C@_09NEKIJNNA@PF_VIEWER?$AA@ 100067cc     flags.obj
 0001:000057d8       ??_C@_0P@MBLBBCNK@PF_FULLCMDLINE?$AA@ 100067d8     flags.obj
 0001:000057e8       ??_C@_09GMFDAFKL@PF_DIALOG?$AA@ 100067e8     flags.obj
 0001:000057f4       ??_C@_07MGEGJMPI@PF_NONE?$AA@ 100067f4     flags.obj
 0001:000057fc       ??_C@_0BD@EGELEIIG@IPLFLAGS_SEPARATOR?$AA@ 100067fc     flags.obj
 0001:00005810       ??_C@_0O@JBNJFHHK@IPLFLAGS_NONE?$AA@ 10006810     flags.obj
 0001:00005820       ??_C@_0BD@KGHJOBGM@PMFLAGS_FULLSCREEN?$AA@ 10006820     flags.obj
 0001:00005834       ??_C@_0BH@GDAAKEMH@PMFLAGS_DETAILEDSTATUS?$AA@ 10006834     flags.obj
 0001:0000584c       ??_C@_0BI@BMHIBDMH@PMFLAGS_ALIGNEXTENSIONS?$AA@ 1000684c     flags.obj
 0001:00005864       ??_C@_0BH@KOFCBJBO@PMFLAGS_CASECONVERSION?$AA@ 10006864     flags.obj
 0001:0000587c       ??_C@_0N@DLFMCMOB@PMFLAGS_NONE?$AA@ 1000687c     flags.obj
 0001:0000588c       ??_C@_0BD@PBMGDJEM@OPIF_DISABLEFILTER?$AA@ 1000688c     flags.obj
 0001:000058a0       ??_C@_0BH@FHBKALPD@OPIF_DISABLESORTGROUPS?$AA@ 100068a0     flags.obj
 0001:000058b8       ??_C@_0BJ@NGLIANCL@OPIF_DISABLEHIGHLIGHTING?$AA@ 100068b8     flags.obj
 0001:000058d4       ??_C@_0N@JANKJMLP@OPIF_ADDDOTS?$AA@ 100068d4     flags.obj
 0001:000058e4       ??_C@_0BC@HOFHNJIG@OPIF_RAWSELECTION?$AA@ 100068e4     flags.obj
 0001:000058f8       ??_C@_0P@OFEDJCO@OPIF_REALNAMES?$AA@ 100068f8     flags.obj
 0001:00005908       ??_C@_0BD@FPGMNAPD@OPIF_SHOWNAMESONLY?$AA@ 10006908     flags.obj
 0001:0000591c       ??_C@_0BJ@NMIFAPJD@OPIF_SHOWRIGHTALIGNNAMES?$AA@ 1000691c     flags.obj
 0001:00005938       ??_C@_0BG@HGPMKHIE@OPIF_SHOWPRESERVECASE?$AA@ 10006938     flags.obj
 0001:00005950       ??_C@_0BE@GJEJHNKJ@OPIF_COMPAREFATTIME?$AA@ 10006950     flags.obj
 0001:00005964       ??_C@_0BB@PELHBPAM@OPIF_EXTERNALGET?$AA@ 10006964     flags.obj
 0001:00005978       ??_C@_0BB@CFFPNDFK@OPIF_EXTERNALPUT?$AA@ 10006978     flags.obj
 0001:0000598c       ??_C@_0BE@LKEMICNM@OPIF_EXTERNALDELETE?$AA@ 1000698c     flags.obj
 0001:000059a0       ??_C@_0BD@JIMJPFEP@OPIF_EXTERNALMKDIR?$AA@ 100069a0     flags.obj
 0001:000059b4       ??_C@_0BJ@CALDMPLF@OPIF_USEATTRHIGHLIGHTING?$AA@ 100069b4     flags.obj
 0001:000059d0       ??_C@_0O@JHHHMHIG@OPIF_USECRC32?$AA@ 100069d0     flags.obj
 0001:000059e0       ??_C@_0BB@PFDFAFHG@OPIF_USEFREESIZE?$AA@ 100069e0     flags.obj
 0001:000059f4       ??_C@_0O@FJPLJDBC@OPIF_SHORTCUT?$AA@ 100069f4     flags.obj
 0001:00005a04       ??_C@_09DOPJBMLM@OPIF_NONE?$AA@ 10006a04     flags.obj
 0001:00005a10       ??_C@_0L@GEHHKNBL@OPM_SILENT?$AA@ 10006a10     flags.obj
 0001:00005a1c       ??_C@_08EKEBOKEP@OPM_FIND?$AA@ 10006a1c     flags.obj
 0001:00005a28       ??_C@_08EHBLNDLO@OPM_VIEW?$AA@ 10006a28     flags.obj
 0001:00005a34       ??_C@_08LAAGEMJG@OPM_EDIT?$AA@ 10006a34     flags.obj
 0001:00005a40       ??_C@_0N@NDGKAFDM@OPM_TOPLEVEL?$AA@ 10006a40     flags.obj
 0001:00005a50       ??_C@_09EBKAPHPA@OPM_DESCR?$AA@ 10006a50     flags.obj
 0001:00005a5c       ??_C@_0O@OPDAGBBE@OPM_QUICKVIEW?$AA@ 10006a5c     flags.obj
 0001:00005a6c       ??_C@_08LCEGJCAC@OPM_PGDN?$AA@ 10006a6c     flags.obj
 0001:00005a78       ??_C@_0N@HKCLLJDG@OPM_COMMANDS?$AA@ 10006a78     flags.obj
 0001:00005a88       ??_C@_08EGEBMPBD@OPM_NONE?$AA@ 10006a88     flags.obj
 0001:00005a94       ??_C@_0M@MIGJPBPE@FOSF_ACTIVE?$AA@ 10006a94     flags.obj
 0001:00005aa0       ??_C@_09FMOOJHDF@FOSF_NONE?$AA@ 10006aa0     flags.obj
 0001:00005aac       ??_C@_09HNBBLIGN@PCIF_NONE?$AA@ 10006aac     flags.obj
 0001:00005ab8       ??_C@_0BA@MAEBFMHC@FOREGROUND_BLUE?$AA@ 10006ab8     flags.obj
 0001:00005ac8       ??_C@_0BB@PDFNMAI@FOREGROUND_GREEN?$AA@ 10006ac8     flags.obj
 0001:00005adc       ??_C@_0P@PBJHCFGA@FOREGROUND_RED?$AA@ 10006adc     flags.obj
 0001:00005aec       ??_C@_0BF@OOGEJCC@FOREGROUND_INTENSITY?$AA@ 10006aec     flags.obj
 0001:00005b04       ??_C@_0BA@PIFINJCK@BACKGROUND_BLUE?$AA@ 10006b04     flags.obj
 0001:00005b14       ??_C@_0BB@GKLNBMEL@BACKGROUND_GREEN?$AA@ 10006b14     flags.obj
 0001:00005b28       ??_C@_0P@DANALJMC@BACKGROUND_RED?$AA@ 10006b28     flags.obj
 0001:00005b38       ??_C@_0BF@NIGKKPCF@BACKGROUND_INTENSITY?$AA@ 10006b38     flags.obj
 0001:00005b50       ??_C@_0N@FEFOEFHG@CTRL_C_EVENT?$AA@ 10006b50     flags.obj
 0001:00005b60       ??_C@_0BB@ELEIIFAE@CTRL_BREAK_EVENT?$AA@ 10006b60     flags.obj
 0001:00005b74       ??_C@_0BB@KMPDMOKK@CTRL_CLOSE_EVENT?$AA@ 10006b74     flags.obj
 0001:00005b88       ??_C@_0BC@MCKCEPAL@CTRL_LOGOFF_EVENT?$AA@ 10006b88     flags.obj
 0001:00005b9c       ??_C@_0BE@BCNEFGKM@CTRL_SHUTDOWN_EVENT?$AA@ 10006b9c     flags.obj
 0001:00005bb0       ??_C@_0BC@BBOPHMOM@ENABLE_LINE_INPUT?$AA@ 10006bb0     flags.obj
 0001:00005bc4       ??_C@_0BC@JPFKLHOC@ENABLE_ECHO_INPUT?$AA@ 10006bc4     flags.obj
 0001:00005bd8       ??_C@_0BH@EHINFMOF@ENABLE_PROCESSED_INPUT?$AA@ 10006bd8     flags.obj
 0001:00005bf0       ??_C@_0BE@BLAHACNB@ENABLE_WINDOW_INPUT?$AA@ 10006bf0     flags.obj
 0001:00005c04       ??_C@_0BD@BJECBJPO@ENABLE_MOUSE_INPUT?$AA@ 10006c04     flags.obj
 0001:00005c18       ??_C@_0BD@KJBPOMPN@ENABLE_INSERT_MODE?$AA@ 10006c18     flags.obj
 0001:00005c2c       ??_C@_0BH@BJKMFKAO@ENABLE_QUICK_EDIT_MODE?$AA@ 10006c2c     flags.obj
 0001:00005c44       ??_C@_0BG@CBCHHIEH@ENABLE_EXTENDED_FLAGS?$AA@ 10006c44     flags.obj
 0001:00005c5c       ??_C@_0BF@PEBFEBKN@ENABLE_AUTO_POSITION?$AA@ 10006c5c     flags.obj
 0001:00005c74       ??_C@_0BI@MHKNPIFM@ENABLE_PROCESSED_OUTPUT?$AA@ 10006c74     flags.obj
 0001:00005c8c       ??_C@_0BK@CDKLKCHJ@ENABLE_WRAP_AT_EOL_OUTPUT?$AA@ 10006c8c     flags.obj
 0001:00005ca8       ??_C@_09JBABGNAE@KEY_EVENT?$AA@ 10006ca8     flags.obj
 0001:00005cb4       ??_C@_0M@CPILDGOO@MOUSE_EVENT?$AA@ 10006cb4     flags.obj
 0001:00005cc0       ??_C@_0BJ@OHDOHJKG@WINDOW_BUFFER_SIZE_EVENT?$AA@ 10006cc0     flags.obj
 0001:00005cdc       ??_C@_0L@MPODFLFH@MENU_EVENT?$AA@ 10006cdc     flags.obj
 0001:00005ce8       ??_C@_0M@LNGHCCGJ@FOCUS_EVENT?$AA@ 10006ce8     flags.obj
 0001:00005cf4       ??_C@_0M@MKBGBFGO@CAPSLOCK_ON?$AA@ 10006cf4     flags.obj
 0001:00005d00       ??_C@_0N@EMEOEKDA@ENHANCED_KEY?$AA@ 10006d00     flags.obj
 0001:00005d10       ??_C@_0BC@GDHABBAP@RIGHT_ALT_PRESSED?$AA@ 10006d10     flags.obj
 0001:00005d24       ??_C@_0BB@MCADLJJO@LEFT_ALT_PRESSED?$AA@ 10006d24     flags.obj
 0001:00005d38       ??_C@_0BD@NEHHNAHO@RIGHT_CTRL_PRESSED?$AA@ 10006d38     flags.obj
 0001:00005d4c       ??_C@_0BC@FDNOAAAE@LEFT_CTRL_PRESSED?$AA@ 10006d4c     flags.obj
 0001:00005d60       ??_C@_0O@OGDFJMBK@SHIFT_PRESSED?$AA@ 10006d60     flags.obj
 0001:00005d70       ??_C@_0L@IMGKKBIM@NUMLOCK_ON?$AA@ 10006d70     flags.obj
 0001:00005d7c       ??_C@_0O@LAHFNPLG@SCROLLLOCK_ON?$AA@ 10006d7c     flags.obj
 0001:00005d8c       ??_C@_0BN@HACKHGAB@FROM_LEFT_1ST_BUTTON_PRESSED?$AA@ 10006d8c     flags.obj
 0001:00005dac       ??_C@_0BJ@JECFAJNJ@RIGHTMOST_BUTTON_PRESSED?$AA@ 10006dac     flags.obj
 0001:00005dc8       ??_C@_0BN@BJCFPKCG@FROM_LEFT_2ND_BUTTON_PRESSED?$AA@ 10006dc8     flags.obj
 0001:00005de8       ??_C@_0BN@PMJNFPGM@FROM_LEFT_3RD_BUTTON_PRESSED?$AA@ 10006de8     flags.obj
 0001:00005e08       ??_C@_0BN@CNMHAAPD@FROM_LEFT_4TH_BUTTON_PRESSED?$AA@ 10006e08     flags.obj
 0001:00005e28       ??_C@_0M@KKBDEELB@MOUSE_MOVED?$AA@ 10006e28     flags.obj
 0001:00005e34       ??_C@_0N@EDCKBGJE@DOUBLE_CLICK?$AA@ 10006e34     flags.obj
 0001:00005e44       ??_C@_0O@GABDOPO@MOUSE_WHEELED?$AA@ 10006e44     flags.obj
 0001:00005e54       ??_C@_0BA@OOKCCMHH@KEY_WOW64_32KEY?$AA@ 10006e54     flags.obj
 0001:00005e64       ??_C@_0BA@DBCPEIGE@KEY_WOW64_64KEY?$AA@ 10006e64     flags.obj
 0001:00008144       ??_C@_06ICDCBJPI@Colors?$AA@ 10009144     keysandcolors.obj
 0001:0000814c       ??_C@_05GALAPKHH@Guids?$AA@ 1000914c     keysandcolors.obj
 0001:000089e0       ??_C@_01EEMJAFIK@?6?$AA@   100099e0     lflua.obj
 0001:000089e4       ??_C@_0BB@BJDGDOHH@cannot?5?$CFs?5?$CFs?3?5?$CFs?$AA@ 100099e4     lflua.obj
 0001:000089f8       ??_C@_03PKPBNCAL@?o?$LL?$LP?$AA@ 100099f8     lflua.obj
 0001:000089fc       ??_C@_06CCPPALKB@?$DNstdin?$AA@ 100099fc     lflua.obj
 0001:00008a04       ??_C@_01EOFPKCAF@?$EA?$AA@ 10009a04     lflua.obj
 0001:00008a08       ??_C@_04PMOCAHAA@open?$AA@ 10009a08     lflua.obj
 0001:00008a10       ??_C@_15JJPIMNBO@?$AAr?$AAb?$AA?$AA@ 10009a10     lflua.obj
 0001:00008a18       ??_C@_06IEGCHAII@reopen?$AA@ 10009a18     lflua.obj
 0001:00008a20       ??_C@_04POLDLDMI@read?$AA@ 10009a20     lflua.obj
 0001:00008a28       ??_C@_02LOCGON@?$AA?$AA?$AA@ 10009a28     lflua.obj
 0001:000092b8       _regex_methods             1000a2b8     lregex.obj
 0001:00009318       _regex_functions           1000a318     lregex.obj
 0001:00009378       ??_C@_04CKFJHKAP@find?$AA@ 1000a378     lregex.obj
 0001:00009380       ??_C@_04GOLEAPFD@gsub?$AA@ 1000a380     lregex.obj
 0001:00009388       ??_C@_05FNONLPDI@match?$AA@ 1000a388     lregex.obj
 0001:00009390       ??_C@_04MGEIEJAD@exec?$AA@ 1000a390     lregex.obj
 0001:00009398       ??_C@_05GFGPIPHI@findW?$AA@ 1000a398     lregex.obj
 0001:000093a0       ??_C@_05HPGHPNC@gsubW?$AA@ 1000a3a0     lregex.obj
 0001:000093a8       ??_C@_06NNKFJOLC@matchW?$AA@ 1000a3a8     lregex.obj
 0001:000093b0       ??_C@_05GMDFNCGA@execW?$AA@ 1000a3b0     lregex.obj
 0001:000093b8       ??_C@_0O@OJAOCNID@bracketscount?$AA@ 1000a3b8     lregex.obj
 0001:000093c8       ??_C@_04BDLIKKMN@__gc?$AA@ 1000a3c8     lregex.obj
 0001:000093d0       ??_C@_06DPFCLDIO@gmatch?$AA@ 1000a3d0     lregex.obj
 0001:000093d8       ??_C@_07PPMFDHAH@gmatchW?$AA@ 1000a3d8     lregex.obj
 0001:000093e0       ??_C@_09KIEPBIJC@far_regex?$AA@ 1000a3e0     lregex.obj
 0001:000093ec       ??_C@_0BO@PBOFMCLL@attempt?5to?5access?5freed?5regex?$AA@ 1000a3ec     lregex.obj
 0001:0000940c       ??_C@_07IHINEPFG@?$CFs?5?$CI?$CFp?$CJ?$AA@ 1000a40c     lregex.obj
 0001:00009414       ??_C@_01KMDKNFGN@?1?$AA@   1000a414     lregex.obj
 0001:00009418       ??_C@_0BE@BBBEAHLK@RECTL_CREATE?5failed?$AA@ 1000a418     lregex.obj
 0001:0000942c       ??_C@_0BL@HEFMPIBG@invalid?5regular?5expression?$AA@ 1000a42c     lregex.obj
 0001:00009448       ??_C@_0BK@JCLHPPNA@cannot?5add?5?$CFd?5stack?5slots?$AA@ 1000a448     lregex.obj
 0001:00009464       ??_C@_0BM@MOHHGMBK@string?5or?5table?5or?5function?$AA@ 1000a464     lregex.obj
 0001:00009480       ??_C@_0CG@IDFLGMFM@replace?5string?3?5invalid?5capture?5@ 1000a480     lregex.obj
 0001:000094a8       ??_C@_0BJ@IMAIDFKH@invalid?5replacement?5type?$AA@ 1000a4a8     lregex.obj
 0001:000094c4       ??_C@_0BE@KPDOHKBE@invalid?5return?5type?$AA@ 1000a4c4     lregex.obj
 0001:000094d8       ??_C@_07NHABFFHN@__index?$AA@ 1000a4d8     lregex.obj
 0001:000094e0       ??_C@_05FGAODPCE@regex?$AA@ 1000a4e0     lregex.obj
 0001:00009d80       ??_C@_0BC@PMGNICBE@MacroPluginReturn?$AA@ 1000ad80     luamacro.obj
 0001:00009d94       ??_C@_02JIEIHMJD@wl?$AA@   1000ad94     luamacro.obj
 0001:00009d98       ??_C@_15PMCGDJNJ@?$AAO?$AAK?$AA?$AA@ 1000ad98     luamacro.obj
 0001:00009da0       ??_C@_1BC@GBFPAMBP@?$AAL?$AAu?$AAa?$AAM?$AAa?$AAc?$AAr?$AAo?$AA?$AA@ 1000ada0     luamacro.obj
 0001:00009db8       ??_C@_1FA@DAFHIDEP@?$AAt?$AAo?$AAo?$AA?5?$AAm?$AAa?$AAn?$AAy?$AA?5?$AAv?$AAa?$AAl?$AAu?$AAe?$AAs?$AA?5?$AAt?$AAo?$AA?5?$AAp?$AAl?$AAa?$AAc?$AAe?$AA?5?$AAo?$AAn?$AAt?$AAo?$AA?5?$AAL?$AAu@ 1000adb8     luamacro.obj
 0001:00009e08       ??_C@_0BN@ICDOMFBB@invalid?5argument?5?$CD?$CFd?5to?5?8?$CFs?8?$AA@ 1000ae08     luamacro.obj
 0001:00009e28       ??_C@_0BB@FCMFBGOM@invalid?5argument?$AA@ 1000ae28     luamacro.obj
 0001:0000a6c0       _usercontrol_methods       1000b6c0     lusercontrol.obj
 0001:0000a6e8       _usercontrol_functions     1000b6e8     lusercontrol.obj
 0001:0000a6f8       ??_C@_05MNDELLDN@__len?$AA@ 1000b6f8     lusercontrol.obj
 0001:0000a700       ??_C@_0L@GADKNKH@__newindex?$AA@ 1000b700     lusercontrol.obj
 0001:0000a70c       ??_C@_0BC@KFJDHEIC@CreateUserControl?$AA@ 1000b70c     lusercontrol.obj
 0001:0000a720       ??_C@_0BA@MDNLMOMP@far_usercontrol?$AA@ 1000b720     lusercontrol.obj
 0001:0000a730       ??_C@_0BH@DOPNHMGD@bounds?5checking?5failed?$AA@ 1000b730     lusercontrol.obj
 0001:0000a748       ??_C@_09LDLEBFOB@rawhandle?$AA@ 1000b748     lusercontrol.obj
 0001:0000a754       ??_C@_04IMAAEPPE@Char?$AA@ 1000b754     lusercontrol.obj
 0001:0000a75c       ??_C@_0L@PLFFHFAH@Attributes?$AA@ 1000b75c     lusercontrol.obj
 0001:0000a768       ??_C@_0BD@BPIMECDH@X?5must?5be?5positive?$AA@ 1000b768     lusercontrol.obj
 0001:0000a77c       ??_C@_0BD@MIGOMCGP@Y?5must?5be?5positive?$AA@ 1000b77c     lusercontrol.obj
 0001:0000a790       _FarFileFilterType         1000b790     service.obj
 0001:0000a7a0       _FarTimerType              1000b7a0     service.obj
 0001:0000a7ac       _FarTimerQueueKey          1000b7ac     service.obj
 0001:0000a7bc       _FarDialogType             1000b7bc     service.obj
 0001:0000a7c8       _SettingsType              1000b7c8     service.obj
 0001:0000a7d4       _SettingsHandles           1000b7d4     service.obj
 0001:0000a7e8       _PluginHandleType          1000b7e8     service.obj
 0001:0000a7f8       _AddMacroDataType          1000b7f8     service.obj
 0001:0000a808       _SavedScreenType           1000b808     service.obj
 0001:0000a818       _FAR_VIRTUALKEYS           1000b818     service.obj
 0001:0000a828       _FAR_FLAGSTABLE            1000b828     service.obj
 0001:0000a834       _FAR_DN_STORAGE            1000b834     service.obj
 0001:0000b0f8       _timer_methods             1000c0f8     service.obj
 0001:0000b120       _filefilter_methods        1000c120     service.obj
 0001:0000b158       _dialog_methods            1000c158     service.obj
 0001:0000b180       _Settings_methods          1000c180     service.obj
 0001:0000b1d0       _editor_funcs              1000c1d0     service.obj
 0001:0000b318       _viewer_funcs              1000c318     service.obj
 0001:0000b368       _panel_funcs               1000c368     service.obj
 0001:0000b470       _far_funcs                 1000c470     service.obj
 0001:0000b6b8       _far_Dialog                1000c6b8     service.obj
 0001:0000b968       _api_functions             1000c968     service.obj
 0001:0000b9cc       ??_C@_07PHPIFDKI@LBUTTON?$AA@ 1000c9cc     service.obj
 0001:0000b9d4       ??_C@_07JOMJHALB@RBUTTON?$AA@ 1000c9d4     service.obj
 0001:0000b9dc       ??_C@_06JHILMIHF@CANCEL?$AA@ 1000c9dc     service.obj
 0001:0000b9e4       ??_C@_07DLFCFDDG@MBUTTON?$AA@ 1000c9e4     service.obj
 0001:0000b9ec       ??_C@_08OPILMHEG@XBUTTON1?$AA@ 1000c9ec     service.obj
 0001:0000b9f8       ??_C@_08MEKGJEIF@XBUTTON2?$AA@ 1000c9f8     service.obj
 0001:0000ba04       ??_C@_04FJBHJJME@BACK?$AA@ 1000ca04     service.obj
 0001:0000ba0c       ??_C@_03CJMDHCGG@TAB?$AA@  1000ca0c     service.obj
 0001:0000ba10       ??_C@_05PONODPI@CLEAR?$AA@ 1000ca10     service.obj
 0001:0000ba18       ??_C@_06LJMOENAO@RETURN?$AA@ 1000ca18     service.obj
 0001:0000ba20       ??_C@_05OAHIEJBI@SHIFT?$AA@ 1000ca20     service.obj
 0001:0000ba28       ??_C@_07DBEDOPMC@CONTROL?$AA@ 1000ca28     service.obj
 0001:0000ba30       ??_C@_04IILMDFMO@MENU?$AA@ 1000ca30     service.obj
 0001:0000ba38       ??_C@_05DIAHPDGL@PAUSE?$AA@ 1000ca38     service.obj
 0001:0000ba40       ??_C@_07OPCFNGJB@CAPITAL?$AA@ 1000ca40     service.obj
 0001:0000ba48       ??_C@_04KGDAIAGM@KANA?$AA@ 1000ca48     service.obj
 0001:0000ba50       ??_C@_05PPKJGOLB@JUNJA?$AA@ 1000ca50     service.obj
 0001:0000ba58       ??_C@_05JEIAEFOF@FINAL?$AA@ 1000ca58     service.obj
 0001:0000ba60       ??_C@_05CHABPOPI@HANJA?$AA@ 1000ca60     service.obj
 0001:0000ba68       ??_C@_06CDPDIIDH@ESCAPE?$AA@ 1000ca68     service.obj
 0001:0000ba70       ??_C@_0L@ODNCKDCK@NONCONVERT?$AA@ 1000ca70     service.obj
 0001:0000ba7c       ??_C@_06INBBKPI@ACCEPT?$AA@ 1000ca7c     service.obj
 0001:0000ba84       ??_C@_0L@HEHNEBED@MODECHANGE?$AA@ 1000ca84     service.obj
 0001:0000ba90       ??_C@_05CAEOFMEP@SPACE?$AA@ 1000ca90     service.obj
 0001:0000ba98       ??_C@_05BFDHCIJM@PRIOR?$AA@ 1000ca98     service.obj
 0001:0000baa0       ??_C@_04MOKMKBJN@NEXT?$AA@ 1000caa0     service.obj
 0001:0000baa8       ??_C@_03JMGAKCCH@END?$AA@  1000caa8     service.obj
 0001:0000baac       ??_C@_04GHGFPGNC@HOME?$AA@ 1000caac     service.obj
 0001:0000bab4       ??_C@_04KCNEHMIH@LEFT?$AA@ 1000cab4     service.obj
 0001:0000babc       ??_C@_02NAHCJHOC@UP?$AA@   1000cabc     service.obj
 0001:0000bac0       ??_C@_05PMAFOJDE@RIGHT?$AA@ 1000cac0     service.obj
 0001:0000bac8       ??_C@_04FANAOELO@DOWN?$AA@ 1000cac8     service.obj
 0001:0000bad0       ??_C@_06LCPJPOPK@SELECT?$AA@ 1000cad0     service.obj
 0001:0000bad8       ??_C@_05ECKPOFCN@PRINT?$AA@ 1000cad8     service.obj
 0001:0000bae0       ??_C@_07LBDEDADF@EXECUTE?$AA@ 1000cae0     service.obj
 0001:0000bae8       ??_C@_08EMOKHGD@SNAPSHOT?$AA@ 1000cae8     service.obj
 0001:0000baf4       ??_C@_06OEMEAEKN@INSERT?$AA@ 1000caf4     service.obj
 0001:0000bafc       ??_C@_06FKDAMKFP@DELETE?$AA@ 1000cafc     service.obj
 0001:0000bb04       ??_C@_04DOKPJKJF@HELP?$AA@ 1000cb04     service.obj
 0001:0000bb0c       ??_C@_01GBGANLPD@0?$AA@    1000cb0c     service.obj
 0001:0000bb10       ??_C@_01HIHLOKLC@1?$AA@    1000cb10     service.obj
 0001:0000bb14       ??_C@_01FDFGLJHB@2?$AA@    1000cb14     service.obj
 0001:0000bb18       ??_C@_01EKENIIDA@3?$AA@    1000cb18     service.obj
 0001:0000bb1c       ??_C@_01FAMBOPH@4?$AA@     1000cb1c     service.obj
 0001:0000bb20       ??_C@_01BMBHCPLG@5?$AA@    1000cb20     service.obj
 0001:0000bb24       ??_C@_01DHDKHMHF@6?$AA@    1000cb24     service.obj
 0001:0000bb28       ??_C@_01COCBENDE@7?$AA@    1000cb28     service.obj
 0001:0000bb2c       ??_C@_01KJLJFBPL@8?$AA@    1000cb2c     service.obj
 0001:0000bb30       ??_C@_01LAKCGALK@9?$AA@    1000cb30     service.obj
 0001:0000bb34       ??_C@_01FHEEJDEE@A?$AA@    1000cb34     service.obj
 0001:0000bb38       ??_C@_01HMGJMAIH@B?$AA@    1000cb38     service.obj
 0001:0000bb3c       ??_C@_01GFHCPBMG@C?$AA@    1000cb3c     service.obj
 0001:0000bb40       ??_C@_01CKDDGHAB@D?$AA@    1000cb40     service.obj
 0001:0000bb44       ??_C@_01DDCIFGEA@E?$AA@    1000cb44     service.obj
 0001:0000bb48       ??_C@_01BIAFAFID@F?$AA@    1000cb48     service.obj
 0001:0000bb4c       ??_C@_01BBODEMC@G?$AA@     1000cb4c     service.obj
 0001:0000bb50       ??_C@_01IGIGCIAN@H?$AA@    1000cb50     service.obj
 0001:0000bb54       ??_C@_01JPJNBJEM@I?$AA@    1000cb54     service.obj
 0001:0000bb58       ??_C@_01LELAEKIP@J?$AA@    1000cb58     service.obj
 0001:0000bb5c       ??_C@_01KNKLHLMO@K?$AA@    1000cb5c     service.obj
 0001:0000bb60       ??_C@_01OCOKONAJ@L?$AA@    1000cb60     service.obj
 0001:0000bb64       ??_C@_01PLPBNMEI@M?$AA@    1000cb64     service.obj
 0001:0000bb68       ??_C@_01NANMIPIL@N?$AA@    1000cb68     service.obj
 0001:0000bb6c       ??_C@_01MJMHLOMK@O?$AA@    1000cb6c     service.obj
 0001:0000bb70       ??_C@_01EJNLAFE@P?$AA@     1000cb70     service.obj
 0001:0000bb74       ??_C@_01BNIGIBBF@Q?$AA@    1000cb74     service.obj
 0001:0000bb78       ??_C@_01DGKLNCNG@R?$AA@    1000cb78     service.obj
 0001:0000bb7c       ??_C@_01CPLAODJH@S?$AA@    1000cb7c     service.obj
 0001:0000bb80       ??_C@_01GAPBHFFA@T?$AA@    1000cb80     service.obj
 0001:0000bb84       ??_C@_01HJOKEEBB@U?$AA@    1000cb84     service.obj
 0001:0000bb88       ??_C@_01FCMHBHNC@V?$AA@    1000cb88     service.obj
 0001:0000bb8c       ??_C@_01ELNMCGJD@W?$AA@    1000cb8c     service.obj
 0001:0000bb90       ??_C@_01MMEEDKFM@X?$AA@    1000cb90     service.obj
 0001:0000bb94       ??_C@_01NFFPALBN@Y?$AA@    1000cb94     service.obj
 0001:0000bb98       ??_C@_01POHCFINO@Z?$AA@    1000cb98     service.obj
 0001:0000bb9c       ??_C@_04ODLFFOHF@LWIN?$AA@ 1000cb9c     service.obj
 0001:0000bba4       ??_C@_04DMGFHHJG@RWIN?$AA@ 1000cba4     service.obj
 0001:0000bbac       ??_C@_04GKGJFGJO@APPS?$AA@ 1000cbac     service.obj
 0001:0000bbb4       ??_C@_05DJAECLDN@SLEEP?$AA@ 1000cbb4     service.obj
 0001:0000bbbc       ??_C@_07NHIPMMJH@NUMPAD0?$AA@ 1000cbbc     service.obj
 0001:0000bbc4       ??_C@_07MOJEPNNG@NUMPAD1?$AA@ 1000cbc4     service.obj
 0001:0000bbcc       ??_C@_07OFLJKOBF@NUMPAD2?$AA@ 1000cbcc     service.obj
 0001:0000bbd4       ??_C@_07PMKCJPFE@NUMPAD3?$AA@ 1000cbd4     service.obj
 0001:0000bbdc       ??_C@_07LDODAJJD@NUMPAD4?$AA@ 1000cbdc     service.obj
 0001:0000bbe4       ??_C@_07KKPIDINC@NUMPAD5?$AA@ 1000cbe4     service.obj
 0001:0000bbec       ??_C@_07IBNFGLBB@NUMPAD6?$AA@ 1000cbec     service.obj
 0001:0000bbf4       ??_C@_07JIMOFKFA@NUMPAD7?$AA@ 1000cbf4     service.obj
 0001:0000bbfc       ??_C@_07BPFGEGJP@NUMPAD8?$AA@ 1000cbfc     service.obj
 0001:0000bc04       ??_C@_07GENHHNO@NUMPAD9?$AA@ 1000cc04     service.obj
 0001:0000bc0c       ??_C@_08LDEOAAGM@MULTIPLY?$AA@ 1000cc0c     service.obj
 0001:0000bc18       ??_C@_03BOJFLAKG@ADD?$AA@  1000cc18     service.obj
 0001:0000bc1c       ??_C@_09POPINEFK@SEPARATOR?$AA@ 1000cc1c     service.obj
 0001:0000bc28       ??_C@_08MGBEENML@SUBTRACT?$AA@ 1000cc28     service.obj
 0001:0000bc34       ??_C@_07LJPMJDLL@DECIMAL?$AA@ 1000cc34     service.obj
 0001:0000bc3c       ??_C@_06FBFCJJMP@DIVIDE?$AA@ 1000cc3c     service.obj
 0001:0000bc44       ??_C@_02LCPENACN@F1?$AA@   1000cc44     service.obj
 0001:0000bc48       ??_C@_02JJNJIDOO@F2?$AA@   1000cc48     service.obj
 0001:0000bc4c       ??_C@_02IAMCLCKP@F3?$AA@   1000cc4c     service.obj
 0001:0000bc50       ??_C@_02MPIDCEGI@F4?$AA@   1000cc50     service.obj
 0001:0000bc54       ??_C@_02NGJIBFCJ@F5?$AA@   1000cc54     service.obj
 0001:0000bc58       ??_C@_02PNLFEGOK@F6?$AA@   1000cc58     service.obj
 0001:0000bc5c       ??_C@_02OEKOHHKL@F7?$AA@   1000cc5c     service.obj
 0001:0000bc60       ??_C@_02GDDGGLGE@F8?$AA@   1000cc60     service.obj
 0001:0000bc64       ??_C@_02HKCNFKCF@F9?$AA@   1000cc64     service.obj
 0001:0000bc68       ??_C@_03JKCLJOFG@F10?$AA@  1000cc68     service.obj
 0001:0000bc6c       ??_C@_03IDDAKPBH@F11?$AA@  1000cc6c     service.obj
 0001:0000bc70       ??_C@_03KIBNPMNE@F12?$AA@  1000cc70     service.obj
 0001:0000bc74       ??_C@_03LBAGMNJF@F13?$AA@  1000cc74     service.obj
 0001:0000bc78       ??_C@_03POEHFLFC@F14?$AA@  1000cc78     service.obj
 0001:0000bc7c       ??_C@_03OHFMGKBD@F15?$AA@  1000cc7c     service.obj
 0001:0000bc80       ??_C@_03MMHBDJNA@F16?$AA@  1000cc80     service.obj
 0001:0000bc84       ??_C@_03NFGKAIJB@F17?$AA@  1000cc84     service.obj
 0001:0000bc88       ??_C@_03FCPCBEFO@F18?$AA@  1000cc88     service.obj
 0001:0000bc8c       ??_C@_03ELOJCFBP@F19?$AA@  1000cc8c     service.obj
 0001:0000bc90       ??_C@_03JIGNCAAP@F20?$AA@  1000cc90     service.obj
 0001:0000bc94       ??_C@_03IBHGBBEO@F21?$AA@  1000cc94     service.obj
 0001:0000bc98       ??_C@_03KKFLECIN@F22?$AA@  1000cc98     service.obj
 0001:0000bc9c       ??_C@_03LDEAHDMM@F23?$AA@  1000cc9c     service.obj
 0001:0000bca0       ??_C@_03PMABOFAL@F24?$AA@  1000cca0     service.obj
 0001:0000bca4       ??_C@_07FLMEHHJP@NUMLOCK?$AA@ 1000cca4     service.obj
 0001:0000bcac       ??_C@_06FNIKALAE@SCROLL?$AA@ 1000ccac     service.obj
 0001:0000bcb4       ??_C@_0O@DBBJDALK@OEM_NEC_EQUAL?$AA@ 1000ccb4     service.obj
 0001:0000bcc4       ??_C@_0P@JKGCFGCD@OEM_FJ_MASSHOU?$AA@ 1000ccc4     service.obj
 0001:0000bcd4       ??_C@_0P@NIEOFNLG@OEM_FJ_TOUROKU?$AA@ 1000ccd4     service.obj
 0001:0000bce4       ??_C@_0M@IBEHGLCM@OEM_FJ_LOYA?$AA@ 1000cce4     service.obj
 0001:0000bcf0       ??_C@_0M@FOJHECMP@OEM_FJ_ROYA?$AA@ 1000ccf0     service.obj
 0001:0000bcfc       ??_C@_06EPHNCIMI@LSHIFT?$AA@ 1000ccfc     service.obj
 0001:0000bd04       ??_C@_06HIJMMPFL@RSHIFT?$AA@ 1000cd04     service.obj
 0001:0000bd0c       ??_C@_08IKMONEBG@LCONTROL?$AA@ 1000cd0c     service.obj
 0001:0000bd18       ??_C@_08OOMMENPF@RCONTROL?$AA@ 1000cd18     service.obj
 0001:0000bd24       ??_C@_05IHMGKJGH@LMENU?$AA@ 1000cd24     service.obj
 0001:0000bd2c       ??_C@_05LOBKMKIM@RMENU?$AA@ 1000cd2c     service.obj
 0001:0000bd34       ??_C@_0N@OAJIELLG@BROWSER_BACK?$AA@ 1000cd34     service.obj
 0001:0000bd44       ??_C@_0BA@ENOAJOGH@BROWSER_FORWARD?$AA@ 1000cd44     service.obj
 0001:0000bd54       ??_C@_0BA@GDNDIDGJ@BROWSER_REFRESH?$AA@ 1000cd54     service.obj
 0001:0000bd64       ??_C@_0N@HKPDGANH@BROWSER_STOP?$AA@ 1000cd64     service.obj
 0001:0000bd74       ??_C@_0P@BEAEBJDD@BROWSER_SEARCH?$AA@ 1000cd74     service.obj
 0001:0000bd84       ??_C@_0BC@BOMJIH@BROWSER_FAVORITES?$AA@ 1000cd84     service.obj
 0001:0000bd98       ??_C@_0N@NOOKCEKA@BROWSER_HOME?$AA@ 1000cd98     service.obj
 0001:0000bda8       ??_C@_0M@ENOHKBMG@VOLUME_MUTE?$AA@ 1000cda8     service.obj
 0001:0000bdb4       ??_C@_0M@JOOBBDNO@VOLUME_DOWN?$AA@ 1000cdb4     service.obj
 0001:0000bdc0       ??_C@_09MGPMNMJC@VOLUME_UP?$AA@ 1000cdc0     service.obj
 0001:0000bdcc       ??_C@_0BB@KLAENPA@MEDIA_NEXT_TRACK?$AA@ 1000cdcc     service.obj
 0001:0000bde0       ??_C@_0BB@CMOIJKPH@MEDIA_PREV_TRACK?$AA@ 1000cde0     service.obj
 0001:0000bdf4       ??_C@_0L@KBJOCDHK@MEDIA_STOP?$AA@ 1000cdf4     service.obj
 0001:0000be00       ??_C@_0BB@HAEMIJHO@MEDIA_PLAY_PAUSE?$AA@ 1000ce00     service.obj
 0001:0000be14       ??_C@_0M@GCIKMBID@LAUNCH_MAIL?$AA@ 1000ce14     service.obj
 0001:0000be20       ??_C@_0BE@FADJJAPM@LAUNCH_MEDIA_SELECT?$AA@ 1000ce20     service.obj
 0001:0000be34       ??_C@_0M@MGLJIDDM@LAUNCH_APP1?$AA@ 1000ce34     service.obj
 0001:0000be40       ??_C@_0M@ONJENAPP@LAUNCH_APP2?$AA@ 1000ce40     service.obj
 0001:0000be4c       ??_C@_05OIODNPAD@OEM_1?$AA@ 1000ce4c     service.obj
 0001:0000be54       ??_C@_08LDJEIPBH@OEM_PLUS?$AA@ 1000ce54     service.obj
 0001:0000be60       ??_C@_09CLPFJEOD@OEM_COMMA?$AA@ 1000ce60     service.obj
 0001:0000be6c       ??_C@_09OGMLCNMG@OEM_MINUS?$AA@ 1000ce6c     service.obj
 0001:0000be78       ??_C@_0L@DNNMNDGM@OEM_PERIOD?$AA@ 1000ce78     service.obj
 0001:0000be84       ??_C@_05MDMOIMMA@OEM_2?$AA@ 1000ce84     service.obj
 0001:0000be8c       ??_C@_05NKNFLNIB@OEM_3?$AA@ 1000ce8c     service.obj
 0001:0000be94       ??_C@_05JFJECLEG@OEM_4?$AA@ 1000ce94     service.obj
 0001:0000be9c       ??_C@_05IMIPBKAH@OEM_5?$AA@ 1000ce9c     service.obj
 0001:0000bea4       ??_C@_05KHKCEJME@OEM_6?$AA@ 1000cea4     service.obj
 0001:0000beac       ??_C@_05LOLJHIIF@OEM_7?$AA@ 1000ceac     service.obj
 0001:0000beb4       ??_C@_05DJCBGEEK@OEM_8?$AA@ 1000ceb4     service.obj
 0001:0000bebc       ??_C@_07PEFKMFIE@OEM_102?$AA@ 1000cebc     service.obj
 0001:0000bec4       ??_C@_0L@EFLJCPAM@PROCESSKEY?$AA@ 1000cec4     service.obj
 0001:0000bed0       ??_C@_06HOICDKCB@PACKET?$AA@ 1000ced0     service.obj
 0001:0000bed8       ??_C@_09CAKPMKHM@OEM_RESET?$AA@ 1000ced8     service.obj
 0001:0000bee4       ??_C@_08INMNLJCK@OEM_JUMP?$AA@ 1000cee4     service.obj
 0001:0000bef0       ??_C@_07JNOAEEG@OEM_PA1?$AA@ 1000cef0     service.obj
 0001:0000bef8       ??_C@_07CCPDFHIF@OEM_PA2?$AA@ 1000cef8     service.obj
 0001:0000bf00       ??_C@_07DLOIGGME@OEM_PA3?$AA@ 1000cf00     service.obj
 0001:0000bf08       ??_C@_0L@OCAIHDP@OEM_WSCTRL?$AA@ 1000cf08     service.obj
 0001:0000bf14       ??_C@_04BNGOAFAJ@ATTN?$AA@ 1000cf14     service.obj
 0001:0000bf1c       ??_C@_05HGAHFFFL@CRSEL?$AA@ 1000cf1c     service.obj
 0001:0000bf24       ??_C@_05OKOOKOOH@EXSEL?$AA@ 1000cf24     service.obj
 0001:0000bf2c       ??_C@_05CCFENDFJ@EREOF?$AA@ 1000cf2c     service.obj
 0001:0000bf34       ??_C@_04MKCNCBEG@PLAY?$AA@ 1000cf34     service.obj
 0001:0000bf3c       ??_C@_04LGBIGMFG@ZOOM?$AA@ 1000cf3c     service.obj
 0001:0000bf44       ??_C@_06LJIOOKLP@NONAME?$AA@ 1000cf44     service.obj
 0001:0000bf4c       ??_C@_03KCLDMPAE@PA1?$AA@  1000cf4c     service.obj
 0001:0000bf50       ??_C@_09MBBEHOCK@OEM_CLEAR?$AA@ 1000cf50     service.obj
 0001:0000bf5c       ??_C@_05LCLENNFI@table?$AA@ 1000cf5c     service.obj
 0001:0000bf64       ??_C@_06ICGJLFIM@string?$AA@ 1000cf64     service.obj
 0001:0000bf6c       ??_C@_0P@LKPINHLK@FreeFileFilter?$AA@ 1000cf6c     service.obj
 0001:0000bf7c       ??_C@_0BA@JGEOEAE@OpenFiltersMenu?$AA@ 1000cf7c     service.obj
 0001:0000bf8c       ??_C@_0BB@OPPOFOAK@StartingToFilter?$AA@ 1000cf8c     service.obj
 0001:0000bfa0       ??_C@_0P@JDMCHDIM@IsFileInFilter?$AA@ 1000cfa0     service.obj
 0001:0000bfb0       ??_C@_04MIIPNNEF@send?$AA@ 1000cfb0     service.obj
 0001:0000bfb8       ??_C@_06JBKGCNBB@Delete?$AA@ 1000cfb8     service.obj
 0001:0000bfc0       ??_C@_04PAFOOALK@Enum?$AA@ 1000cfc0     service.obj
 0001:0000bfc8       ??_C@_04HJMOFLDF@Free?$AA@ 1000cfc8     service.obj
 0001:0000bfd0       ??_C@_03NNDHPFFO@Get?$AA@  1000cfd0     service.obj
 0001:0000bfd4       ??_C@_03CEMDFJG@Set?$AA@   1000cfd4     service.obj
 0001:0000bfd8       ??_C@_0N@OELJMCEC@CreateSubkey?$AA@ 1000cfd8     service.obj
 0001:0000bfe8       ??_C@_0L@CPCKAMD@OpenSubkey?$AA@ 1000cfe8     service.obj
 0001:0000bff4       ??_C@_08EGJLHNCO@AddColor?$AA@ 1000cff4     service.obj
 0001:0000c000       ??_C@_0BD@DOFEEDDC@AddSessionBookmark?$AA@ 1000d000     service.obj
 0001:0000c014       ??_C@_0BG@IGFHDIIN@ClearSessionBookmarks?$AA@ 1000d014     service.obj
 0001:0000c02c       ??_C@_08PDEJHGJI@DelColor?$AA@ 1000d02c     service.obj
 0001:0000c038       ??_C@_0M@LPIECDD@DeleteBlock?$AA@ 1000d038     service.obj
 0001:0000c044       ??_C@_0L@BCLIBKOC@DeleteChar?$AA@ 1000d044     service.obj
 0001:0000c050       ??_C@_0BG@KOELEFCN@DeleteSessionBookmark?$AA@ 1000d050     service.obj
 0001:0000c068       ??_C@_0N@EKENACAE@DeleteString?$AA@ 1000d068     service.obj
 0001:0000c078       ??_C@_06MJDIICIN@Editor?$AA@ 1000d078     service.obj
 0001:0000c080       ??_C@_0L@HDLPOLMA@ExpandTabs?$AA@ 1000d080     service.obj
 0001:0000c08c       ??_C@_0N@MGAOADJN@GetBookmarks?$AA@ 1000d08c     service.obj
 0001:0000c09c       ??_C@_08JOPFJIPE@GetColor?$AA@ 1000d09c     service.obj
 0001:0000c0a8       ??_C@_0M@FECPLAMN@GetFileName?$AA@ 1000d0a8     service.obj
 0001:0000c0b4       ??_C@_07NAJNLNAF@GetInfo?$AA@ 1000d0b4     service.obj
 0001:0000c0bc       ??_C@_0N@KIILHCLH@GetSelection?$AA@ 1000d0bc     service.obj
 0001:0000c0cc       ??_C@_0BE@LBJJGOGD@GetSessionBookmarks?$AA@ 1000d0cc     service.obj
 0001:0000c0e0       ??_C@_09HBLKHMEA@GetString?$AA@ 1000d0e0     service.obj
 0001:0000c0ec       ??_C@_0L@IDFHDAHP@GetStringW?$AA@ 1000d0ec     service.obj
 0001:0000c0f8       ??_C@_0N@ICPGLOEG@InsertString?$AA@ 1000d0f8     service.obj
 0001:0000c108       ??_C@_0L@JMOIGJIA@InsertText?$AA@ 1000d108     service.obj
 0001:0000c114       ??_C@_0M@BINOKANK@InsertTextW?$AA@ 1000d114     service.obj
 0001:0000c120       ??_C@_0BE@CNGODNDI@NextSessionBookmark?$AA@ 1000d120     service.obj
 0001:0000c134       ??_C@_0BE@IEBIGOAP@PrevSessionBookmark?$AA@ 1000d134     service.obj
 0001:0000c148       ??_C@_0N@FNCEPAJJ@ProcessInput?$AA@ 1000d148     service.obj
 0001:0000c158       ??_C@_04GMBKPCGK@Quit?$AA@ 1000d158     service.obj
 0001:0000c160       ??_C@_09KINLOJJJ@ReadInput?$AA@ 1000d160     service.obj
 0001:0000c16c       ??_C@_09DBPLBJBJ@RealToTab?$AA@ 1000d16c     service.obj
 0001:0000c178       ??_C@_06KAPLBEK@Redraw?$AA@ 1000d178     service.obj
 0001:0000c180       ??_C@_08FBDDPFPJ@SaveFile?$AA@ 1000d180     service.obj
 0001:0000c18c       ??_C@_06HJGPBJLE@Select?$AA@ 1000d18c     service.obj
 0001:0000c194       ??_C@_09PPEOOGEC@SetKeyBar?$AA@ 1000d194     service.obj
 0001:0000c1a0       ??_C@_08CCKJEGOF@SetParam?$AA@ 1000d1a0     service.obj
 0001:0000c1ac       ??_C@_0M@GKIFPNAD@SetPosition?$AA@ 1000d1ac     service.obj
 0001:0000c1b8       ??_C@_09FPPPFNNC@SetString?$AA@ 1000d1b8     service.obj
 0001:0000c1c4       ??_C@_0L@JNHIIHDG@SetStringW?$AA@ 1000d1c4     service.obj
 0001:0000c1d0       ??_C@_08GMCCAJLF@SetTitle?$AA@ 1000d1d0     service.obj
 0001:0000c1dc       ??_C@_08JNAOBKMI@GetTitle?$AA@ 1000d1dc     service.obj
 0001:0000c1e8       ??_C@_0BF@LIMPGNED@SubscribeChangeEvent?$AA@ 1000d1e8     service.obj
 0001:0000c200       ??_C@_09JFBCONJH@TabToReal?$AA@ 1000d200     service.obj
 0001:0000c20c       ??_C@_08IBJJAHJG@UndoRedo?$AA@ 1000d20c     service.obj
 0001:0000c218       ??_C@_07JMDLHPJF@SetMode?$AA@ 1000d218     service.obj
 0001:0000c220       ??_C@_06PJECNADJ@Viewer?$AA@ 1000d220     service.obj
 0001:0000c228       ??_C@_0BB@PJGDGIKA@CheckPanelsExist?$AA@ 1000d228     service.obj
 0001:0000c23c       ??_C@_0P@DFBDDHFA@ClearSelection?$AA@ 1000d23c     service.obj
 0001:0000c24c       ??_C@_0L@KOHCMOPM@GetCmdLine?$AA@ 1000d24c     service.obj
 0001:0000c258       ??_C@_0O@NLDIMJEA@GetCmdLinePos?$AA@ 1000d258     service.obj
 0001:0000c268       ??_C@_0BE@CBPLLCEH@GetCmdLineSelection?$AA@ 1000d268     service.obj
 0001:0000c27c       ??_C@_0P@CMFANDFM@GetColumnTypes?$AA@ 1000d27c     service.obj
 0001:0000c28c       ??_C@_0BA@DJGLDCBG@GetColumnWidths?$AA@ 1000d28c     service.obj
 0001:0000c29c       ??_C@_0BE@JPAIJBCI@GetCurrentPanelItem?$AA@ 1000d29c     service.obj
 0001:0000c2b0       ??_C@_0BC@NGKPIKGL@GetPanelDirectory?$AA@ 1000d2b0     service.obj
 0001:0000c2c4       ??_C@_0P@GODLFFFJ@GetPanelFormat?$AA@ 1000d2c4     service.obj
 0001:0000c2d4       ??_C@_0BB@LCMBHPNI@GetPanelHostFile?$AA@ 1000d2d4     service.obj
 0001:0000c2e8       ??_C@_0N@HPIPGDFA@GetPanelInfo?$AA@ 1000d2e8     service.obj
 0001:0000c2f8       ??_C@_0N@HAFLAIHA@GetPanelItem?$AA@ 1000d2f8     service.obj
 0001:0000c308       ??_C@_0P@HCBKDPMP@GetPanelPrefix?$AA@ 1000d308     service.obj
 0001:0000c318       ??_C@_0BF@MEMFMMGB@GetSelectedPanelItem?$AA@ 1000d318     service.obj
 0001:0000c330       ??_C@_0O@HEGDGAJG@GetUserScreen?$AA@ 1000d330     service.obj
 0001:0000c340       ??_C@_0O@EHOCCHAL@InsertCmdLine?$AA@ 1000d340     service.obj
 0001:0000c350       ??_C@_0O@OMMHIHHH@IsActivePanel?$AA@ 1000d350     service.obj
 0001:0000c360       ??_C@_0M@LCEPDNPK@RedrawPanel?$AA@ 1000d360     service.obj
 0001:0000c36c       ??_C@_0P@OPKJJMLB@SetActivePanel?$AA@ 1000d36c     service.obj
 0001:0000c37c       ??_C@_0L@LAFNHJLF@SetCmdLine?$AA@ 1000d37c     service.obj
 0001:0000c388       ??_C@_0O@KECGHKDH@SetCmdLinePos?$AA@ 1000d388     service.obj
 0001:0000c398       ??_C@_0BE@IPNAPCDL@SetCmdLineSelection?$AA@ 1000d398     service.obj
 0001:0000c3ac       ??_C@_0BE@PAPEKLCP@SetDirectoriesFirst?$AA@ 1000d3ac     service.obj
 0001:0000c3c0       ??_C@_0BC@PDKEABHF@SetPanelDirectory?$AA@ 1000d3c0     service.obj
 0001:0000c3d4       ??_C@_0N@NMDFLOPL@SetSelection?$AA@ 1000d3d4     service.obj
 0001:0000c3e4       ??_C@_0M@CMMMGIDG@SetSortMode?$AA@ 1000d3e4     service.obj
 0001:0000c3f0       ??_C@_0N@HCHLALN@SetSortOrder?$AA@ 1000d3f0     service.obj
 0001:0000c400       ??_C@_0O@LHNNDOB@SetUserScreen?$AA@ 1000d400     service.obj
 0001:0000c410       ??_C@_0M@IENJPEBA@SetViewMode?$AA@ 1000d410     service.obj
 0001:0000c41c       ??_C@_0M@EICBHAOA@UpdatePanel?$AA@ 1000d41c     service.obj
 0001:0000c428       ??_C@_0BC@BIIKJLKB@PluginStartupInfo?$AA@ 1000d428     service.obj
 0001:0000c43c       ??_C@_0L@PJAHNOGM@DialogInit?$AA@ 1000d43c     service.obj
 0001:0000c448       ??_C@_09DBEDLMHB@DialogRun?$AA@ 1000d448     service.obj
 0001:0000c454       ??_C@_0L@DLFLHLOO@DialogFree?$AA@ 1000d454     service.obj
 0001:0000c460       ??_C@_0P@HLOFPDFP@SendDlgMessage?$AA@ 1000d460     service.obj
 0001:0000c470       ??_C@_0L@CKELNLCE@GetDlgItem?$AA@ 1000d470     service.obj
 0001:0000c47c       ??_C@_0L@DEGEGMGN@SetDlgItem?$AA@ 1000d47c     service.obj
 0001:0000c488       ??_C@_0BK@EBIPEKDH@SubscribeDialogDrawEvents?$AA@ 1000d488     service.obj
 0001:0000c4a4       ??_C@_0L@MCFABBED@GetDirList?$AA@ 1000d4a4     service.obj
 0001:0000c4b0       ??_C@_06KCCBBIBJ@GetMsg?$AA@ 1000d4b0     service.obj
 0001:0000c4b8       ??_C@_0BB@HIDBFOJJ@GetPluginDirList?$AA@ 1000d4b8     service.obj
 0001:0000c4cc       ??_C@_04IFEHPILC@Menu?$AA@ 1000d4cc     service.obj
 0001:0000c4d4       ??_C@_07BEIHKDLJ@Message?$AA@ 1000d4d4     service.obj
 0001:0000c4dc       ??_C@_0O@CGLFPNOD@RestoreScreen?$AA@ 1000d4dc     service.obj
 0001:0000c4ec       ??_C@_0L@PGGGPLFK@SaveScreen?$AA@ 1000d4ec     service.obj
 0001:0000c4f8       ??_C@_08DAHHHDJC@ShowHelp?$AA@ 1000d4f8     service.obj
 0001:0000c504       ??_C@_08IAADAJIH@InputBox?$AA@ 1000d504     service.obj
 0001:0000c510       ??_C@_0L@HHLOIHOP@AdvControl?$AA@ 1000d510     service.obj
 0001:0000c51c       ??_C@_0N@GHGEMEN@MacroLoadAll?$AA@ 1000d51c     service.obj
 0001:0000c52c       ??_C@_0N@NAGBAPAE@MacroSaveAll?$AA@ 1000d52c     service.obj
 0001:0000c53c       ??_C@_0O@KGHDMPAJ@MacroGetState?$AA@ 1000d53c     service.obj
 0001:0000c54c       ??_C@_0N@PNLHCOIE@MacroGetArea?$AA@ 1000d54c     service.obj
 0001:0000c55c       ??_C@_09KGKKBHMO@MacroPost?$AA@ 1000d55c     service.obj
 0001:0000c568       ??_C@_0L@KBAKOGFP@MacroCheck?$AA@ 1000d568     service.obj
 0001:0000c574       ??_C@_08KAFLEHAN@MacroAdd?$AA@ 1000d574     service.obj
 0001:0000c580       ??_C@_0M@KFMHCNNB@MacroDelete?$AA@ 1000d580     service.obj
 0001:0000c58c       ??_C@_0BC@MJDKBAPF@MacroGetLastError?$AA@ 1000d58c     service.obj
 0001:0000c5a0       ??_C@_0N@COEPENFH@MacroExecute?$AA@ 1000d5a0     service.obj
 0001:0000c5b0       ??_C@_0BB@BICELPOF@CreateFileFilter?$AA@ 1000d5b0     service.obj
 0001:0000c5c4       ??_C@_0L@CHJBHF@LoadPlugin?$AA@ 1000d5c4     service.obj
 0001:0000c5d0       ??_C@_0N@DHIONCLI@UnloadPlugin?$AA@ 1000d5d0     service.obj
 0001:0000c5e0       ??_C@_0BB@IJHIBGJA@ForcedLoadPlugin?$AA@ 1000d5e0     service.obj
 0001:0000c5f4       ??_C@_0L@DACPHGGH@FindPlugin?$AA@ 1000d5f4     service.obj
 0001:0000c600       ??_C@_0BF@KLOGLFMF@GetPluginInformation?$AA@ 1000d600     service.obj
 0001:0000c618       ??_C@_0L@JIDCIJHM@GetPlugins?$AA@ 1000d618     service.obj
 0001:0000c624       ??_C@_0P@IKAEEPOB@IsPluginLoaded?$AA@ 1000d624     service.obj
 0001:0000c634       ??_C@_0P@HMKEDHIE@CreateSettings?$AA@ 1000d634     service.obj
 0001:0000c644       ??_C@_0N@GOMOBHDB@FreeSettings?$AA@ 1000d644     service.obj
 0001:0000c654       ??_C@_0M@IFKFGKML@ColorDialog?$AA@ 1000d654     service.obj
 0001:0000c660       ??_C@_0BA@EOCNNPOG@CopyToClipboard?$AA@ 1000d660     service.obj
 0001:0000c670       ??_C@_0BD@PLIHDKFC@PasteFromClipboard?$AA@ 1000d670     service.obj
 0001:0000c684       ??_C@_0BC@FJDIKOMH@InputRecordToName?$AA@ 1000d684     service.obj
 0001:0000c698       ??_C@_0BC@FFNOIDFI@NameToInputRecord?$AA@ 1000d698     service.obj
 0001:0000c6ac       ??_C@_08HGLFNLMB@LStricmp?$AA@ 1000d6ac     service.obj
 0001:0000c6b8       ??_C@_09GALOFBAC@LStrnicmp?$AA@ 1000d6b8     service.obj
 0001:0000c6c4       ??_C@_0M@KPPMMAOL@ProcessName?$AA@ 1000d6c4     service.obj
 0001:0000c6d0       ??_C@_0M@KFCNKLDK@GetPathRoot?$AA@ 1000d6d0     service.obj
 0001:0000c6dc       ??_C@_0BE@EPGHGPJC@GetReparsePointInfo?$AA@ 1000d6dc     service.obj
 0001:0000c6f0       ??_C@_08DNJCLFF@LIsAlpha?$AA@ 1000d6f0     service.obj
 0001:0000c6fc       ??_C@_0M@LKJIEECA@LIsAlphanum?$AA@ 1000d6fc     service.obj
 0001:0000c708       ??_C@_08MAHKICD@LIsLower?$AA@ 1000d708     service.obj
 0001:0000c714       ??_C@_08FHLJMDJK@LIsUpper?$AA@ 1000d714     service.obj
 0001:0000c720       ??_C@_09LPKAHGM@LLowerBuf?$AA@ 1000d720     service.obj
 0001:0000c72c       ??_C@_09GLKFOOEP@LUpperBuf?$AA@ 1000d72c     service.obj
 0001:0000c738       ??_C@_06ILCHIEBO@MkTemp?$AA@ 1000d738     service.obj
 0001:0000c740       ??_C@_06DKBBJCCG@MkLink?$AA@ 1000d740     service.obj
 0001:0000c748       ??_C@_0N@CCDDAJK@TruncPathStr?$AA@ 1000d748     service.obj
 0001:0000c758       ??_C@_08BNEIIKEJ@TruncStr?$AA@ 1000d758     service.obj
 0001:0000c764       ??_C@_0BA@CLEHBIPM@RecursiveSearch?$AA@ 1000d764     service.obj
 0001:0000c774       ??_C@_0M@HKHGOOHG@ConvertPath?$AA@ 1000d774     service.obj
 0001:0000c780       ??_C@_04OCDKHGII@XLat?$AA@ 1000d780     service.obj
 0001:0000c788       ??_C@_0P@BGLLKGOI@FormatFileSize?$AA@ 1000d788     service.obj
 0001:0000c798       ??_C@_08KJBLDCDF@FarClock?$AA@ 1000d798     service.obj
 0001:0000c7a4       ??_C@_0BD@ELMHPHAC@CPluginStartupInfo?$AA@ 1000d7a4     service.obj
 0001:0000c7b8       ??_C@_0BE@DJLJEKBK@GetCurrentDirectory?$AA@ 1000d7b8     service.obj
 0001:0000c7cc       ??_C@_0N@MOMBJEKA@GetFileOwner?$AA@ 1000d7cc     service.obj
 0001:0000c7dc       ??_C@_0BB@JBNBALEM@GetNumberOfLinks?$AA@ 1000d7dc     service.obj
 0001:0000c7f0       ??_C@_0O@BJEAJNBH@MakeMenuItems?$AA@ 1000d7f0     service.obj
 0001:0000c800       ??_C@_0BB@HLFLDCHO@RunDefaultScript?$AA@ 1000d800     service.obj
 0001:0000c814       ??_C@_04JLAJABDJ@Show?$AA@ 1000d814     service.obj
 0001:0000c81c       ??_C@_05NHFJDMOA@Timer?$AA@ 1000d81c     service.obj
 0001:0000c824       ??_C@_02KFNNKBCK@io?$AA@   1000d824     service.obj
 0001:0000c828       ??_C@_02EHCHIAMF@os?$AA@   1000d828     service.obj
 0001:0000c82c       ??_C@_04CFDJAKFL@math?$AA@ 1000d82c     service.obj
 0001:0000c834       ??_C@_07GAJMMAJO@unicode?$AA@ 1000d834     service.obj
 0001:0000c83c       ??_C@_03JECLAOEA@win?$AA@  1000d83c     service.obj
 0001:0000c840       ??_C@_09GJGOMOL@lua51?4dll?$AA@ 1000d840     service.obj
 0001:0000c84c       ??_C@_0M@PLOBHAKE@luaopen_bit?$AA@ 1000d84c     service.obj
 0001:0000c858       ??_C@_0M@IALDMMNC@luaopen_ffi?$AA@ 1000d858     service.obj
 0001:0000c864       ??_C@_0M@DOFFFIEL@luaopen_jit?$AA@ 1000d864     service.obj
 0001:0000c870       ??_C@_0BE@OEPKKAAB@integer?5or?5userdata?$AA@ 1000d870     service.obj
 0001:0000c884       ??_C@_0BD@PNJHLBDA@invalid?5flag?3?5?$CC?$CFs?$CC?$AA@ 1000d884     service.obj
 0001:0000c898       ??_C@_0N@JJLBBDOC@invalid?5flag?$AA@ 1000d898     service.obj
 0001:0000c8a8       ??_C@_0BJ@MIKGPOKL@invalid?5flag?5combination?$AA@ 1000d8a8     service.obj
 0001:0000c8c4       ??_C@_0P@EANMLDOP@MousePositionX?$AA@ 1000d8c4     service.obj
 0001:0000c8d4       ??_C@_0P@FJMHICKO@MousePositionY?$AA@ 1000d8d4     service.obj
 0001:0000c8e4       ??_C@_0M@BJAICPIE@ButtonState?$AA@ 1000d8e4     service.obj
 0001:0000c8f0       ??_C@_0L@EMFBJIPA@EventFlags?$AA@ 1000d8f0     service.obj
 0001:0000c8fc       ??_C@_07EEJLMCNH@CurLine?$AA@ 1000d8fc     service.obj
 0001:0000c904       ??_C@_06EDBJMJDC@CurPos?$AA@ 1000d904     service.obj
 0001:0000c90c       ??_C@_09EGONKHKB@CurTabPos?$AA@ 1000d90c     service.obj
 0001:0000c918       ??_C@_0O@OKGGHEJK@TopScreenLine?$AA@ 1000d918     service.obj
 0001:0000c928       ??_C@_07GDAKJHLE@LeftPos?$AA@ 1000d928     service.obj
 0001:0000c930       ??_C@_08LLJICOLD@Overtype?$AA@ 1000d930     service.obj
 0001:0000c93c       ??_C@_0L@GEIEADPN@ModuleName?$AA@ 1000d93c     service.obj
 0001:0000c948       ??_C@_09HOIHBHIM@ModuleDir?$AA@ 1000d948     service.obj
 0001:0000c954       ??_C@_0L@JLHCLFBG@PluginGuid?$AA@ 1000d954     service.obj
 0001:0000c960       ??_C@_08GGMFPBHM@EditorID?$AA@ 1000d960     service.obj
 0001:0000c96c       ??_C@_0M@CPDBGLHN@WindowSizeX?$AA@ 1000d96c     service.obj
 0001:0000c978       ??_C@_0M@DGCKFKDM@WindowSizeY?$AA@ 1000d978     service.obj
 0001:0000c984       ??_C@_0L@PMKENHMA@TotalLines?$AA@ 1000d984     service.obj
 0001:0000c990       ??_C@_09HKBEFIPN@BlockType?$AA@ 1000d990     service.obj
 0001:0000c99c       ??_C@_0P@GAEEHNHE@BlockStartLine?$AA@ 1000d99c     service.obj
 0001:0000c9ac       ??_C@_07KHIHFBFN@Options?$AA@ 1000d9ac     service.obj
 0001:0000c9b4       ??_C@_07FLDNELFM@TabSize?$AA@ 1000d9b4     service.obj
 0001:0000c9bc       ??_C@_0O@EBLDFOPH@BookmarkCount?$AA@ 1000d9bc     service.obj
 0001:0000c9cc       ??_C@_0BF@ODFKBFAK@SessionBookmarkCount?$AA@ 1000d9cc     service.obj
 0001:0000c9e4       ??_C@_08CPAOHJDL@CurState?$AA@ 1000d9e4     service.obj
 0001:0000c9f0       ??_C@_0N@DAJMJAE@StringLength?$AA@ 1000d9f0     service.obj
 0001:0000ca00       ??_C@_08JPMALCFA@SelStart?$AA@ 1000da00     service.obj
 0001:0000ca0c       ??_C@_06JLEHDHII@SelEnd?$AA@ 1000da0c     service.obj
 0001:0000ca14       ??_C@_0L@IFNFGDGN@StringText?$AA@ 1000da14     service.obj
 0001:0000ca20       ??_C@_09IBGOAAEM@StringEOL?$AA@ 1000da20     service.obj
 0001:0000ca2c       ??_C@_01LOCGONAA@?$AA?$AA@ 1000da2c     service.obj
 0001:0000ca30       ??_C@_06MFLCIING@redraw?$AA@ 1000da30     service.obj
 0001:0000ca38       ??_C@_07HICINA@restore?$AA@ 1000da38     service.obj
 0001:0000ca40       ??_C@_0CG@LAKEGANL@must?5be?5?8redraw?8?0?5?8restore?8?0?5or?5@ 1000da40     service.obj
 0001:0000ca68       ??_C@_04LIDDHMOL@Line?$AA@ 1000da68     service.obj
 0001:0000ca70       ??_C@_06OIIFPIKD@Cursor?$AA@ 1000da70     service.obj
 0001:0000ca78       ??_C@_0L@GDDEHGKI@ScreenLine?$AA@ 1000da78     service.obj
 0001:0000ca84       ??_C@_0O@CIAFMMMB@BlockStartPos?$AA@ 1000da84     service.obj
 0001:0000ca94       ??_C@_0L@EKLJJHPF@BlockWidth?$AA@ 1000da94     service.obj
 0001:0000caa0       ??_C@_0M@NKKGBDGK@BlockHeight?$AA@ 1000daa0     service.obj
 0001:0000caac       ??_C@_09JFPCGCOC@StartLine?$AA@ 1000daac     service.obj
 0001:0000cab8       ??_C@_08JBNOANJG@StartPos?$AA@ 1000dab8     service.obj
 0001:0000cac4       ??_C@_07DCKCOCOC@EndLine?$AA@ 1000dac4     service.obj
 0001:0000cacc       ??_C@_06KGHIGMHC@EndPos?$AA@ 1000dacc     service.obj
 0001:0000cad4       ??_C@_0BA@HNIJJEO@ForegroundColor?$AA@ 1000dad4     service.obj
 0001:0000cae4       ??_C@_0BA@DPMBBMBG@BackgroundColor?$AA@ 1000dae4     service.obj
 0001:0000caf4       ??_C@_0O@NHKEGDJF@GUID?5required?$AA@ 1000daf4     service.obj
 0001:0000cb04       ??_C@_0BJ@BMOGHFAN@table?5or?5number?5expected?$AA@ 1000db04     service.obj
 0001:0000cb20       ??_C@_08KGEIBGG@Priority?$AA@ 1000db20     service.obj
 0001:0000cb2c       ??_C@_05PDOBBJNA@Color?$AA@ 1000db2c     service.obj
 0001:0000cb34       ??_C@_09KDLBEGCN@EventType?$AA@ 1000db34     service.obj
 0001:0000cb40       ??_C@_07HPHPOAEG@KeyDown?$AA@ 1000db40     service.obj
 0001:0000cb48       ??_C@_0M@FGGHEADP@RepeatCount?$AA@ 1000db48     service.obj
 0001:0000cb54       ??_C@_0BA@KCCLHPM@VirtualScanCode?$AA@ 1000db54     service.obj
 0001:0000cb64       ??_C@_0M@PBJKDIHH@UnicodeChar?$AA@ 1000db64     service.obj
 0001:0000cb70       ??_C@_05GIPJKPFG@SizeX?$AA@ 1000db70     service.obj
 0001:0000cb78       ??_C@_05HBOCJOBH@SizeY?$AA@ 1000db78     service.obj
 0001:0000cb80       ??_C@_09GEJJJAHL@CommandId?$AA@ 1000db80     service.obj
 0001:0000cb8c       ??_C@_08GPNNBNIL@SetFocus?$AA@ 1000db8c     service.obj
 0001:0000cb98       ??_C@_0M@BEDENHPD@invalid?5key?$AA@ 1000db98     service.obj
 0001:0000cba4       ??_C@_19IBCFILMC@?$AAM?$AAe?$AAn?$AAu?$AA?$AA@ 1000dba4     service.obj
 0001:0000cbb0       ??_C@_0BN@JBAMKCCJ@must?5be?5table?0?5string?5or?5nil?$AA@ 1000dbb0     service.obj
 0001:0000cbd0       ??_C@_09FDAFFNEA@MaxHeight?$AA@ 1000dbd0     service.obj
 0001:0000cbdc       ??_C@_06DDHCBBGN@Bottom?$AA@ 1000dbdc     service.obj
 0001:0000cbe4       ??_C@_09CFELDMD@HelpTopic?$AA@ 1000dbe4     service.obj
 0001:0000cbf0       ??_C@_0M@GGMLPAIK@SelectIndex?$AA@ 1000dbf0     service.obj
 0001:0000cbfc       ??_C@_02HOGEDOAB@Id?$AA@   1000dbfc     service.obj
 0001:0000cc00       ??_C@_07FJOBMBFC@checked?$AA@ 1000dc00     service.obj
 0001:0000cc08       ??_C@_09MOAJOJKN@separator?$AA@ 1000dc08     service.obj
 0001:0000cc14       ??_C@_07DBNODEFN@disable?$AA@ 1000dc14     service.obj
 0001:0000cc1c       ??_C@_06JHIAOIKD@grayed?$AA@ 1000dc1c     service.obj
 0001:0000cc24       ??_C@_06JIKFICKK@hidden?$AA@ 1000dc24     service.obj
 0001:0000cc2c       ??_C@_08CJLOJPNI@selected?$AA@ 1000dc2c     service.obj
 0001:0000cc38       ??_C@_08MMCKBNNI@AccelKey?$AA@ 1000dc38     service.obj
 0001:0000cc44       ??_C@_08PNHLLJE@BreakKey?$AA@ 1000dc44     service.obj
 0001:0000cc50       ??_C@_15FMBEJGOH@?$AAO?$AAk?$AA?$AA@ 1000dc50     service.obj
 0001:0000cc58       ??_C@_1BC@IBCAPFAE@?$AAO?$AAk?$AAC?$AAa?$AAn?$AAc?$AAe?$AAl?$AA?$AA@ 1000dc58     service.obj
 0001:0000cc6c       ??_C@_1CC@HODOHOHB@?$AAA?$AAb?$AAo?$AAr?$AAt?$AAR?$AAe?$AAt?$AAr?$AAy?$AAI?$AAg?$AAn?$AAo?$AAr?$AAe?$AA?$AA@ 1000dc6c     service.obj
 0001:0000cc90       ??_C@_1M@GGPOIMAD@?$AAY?$AAe?$AAs?$AAN?$AAo?$AA?$AA@ 1000dc90     service.obj
 0001:0000cc9c       ??_C@_1BI@BNDFIGCI@?$AAY?$AAe?$AAs?$AAN?$AAo?$AAC?$AAa?$AAn?$AAc?$AAe?$AAl?$AA?$AA@ 1000dc9c     service.obj
 0001:0000ccb4       ??_C@_1BI@KMMIHPHF@?$AAR?$AAe?$AAt?$AAr?$AAy?$AAC?$AAa?$AAn?$AAc?$AAe?$AAl?$AA?$AA@ 1000dcb4     service.obj
 0001:0000cccc       ??_C@_1DG@LMKDDADI@?$AA?$DM?$AAn?$AAo?$AAn?$AA?9?$AAs?$AAt?$AAr?$AAi?$AAn?$AAg?$AA?5?$AAe?$AAr?$AAr?$AAo?$AAr?$AA?5?$AAm?$AAe?$AAs?$AAs?$AAa?$AAg?$AAe?$AA?$DO?$AA?$AA@ 1000dccc     service.obj
 0001:0000cd04       ??_C@_15IEGBJKPD@?$AA?3?$AA?6?$AA?$AA@ 1000dd04     service.obj
 0001:0000cd0c       ??_C@_19FFLPMPBO@?$AA?6?$AA?5?$AA?5?$AA?5?$AA?$AA@ 1000dd0c     service.obj
 0001:0000cd18       ??_C@_15JCKODCLA@?$AA?6?$AA?7?$AA?$AA@ 1000dd18     service.obj
 0001:0000cd20       ??_C@_1M@ILHOPKA@?$AAE?$AAr?$AAr?$AAo?$AAr?$AA?$AA@ 1000dd20     service.obj
 0001:0000cd2c       ??_C@_08FNIIFOJC@tostring?$AA@ 1000dd2c     service.obj
 0001:0000cd38       ??_C@_0BJ@JOELOGM@cannot?5convert?5to?5string?$AA@ 1000dd38     service.obj
 0001:0000cd54       ??_C@_1BA@HHOMBECE@?$AAM?$AAe?$AAs?$AAs?$AAa?$AAg?$AAe?$AA?$AA@ 1000dd54     service.obj
 0001:0000cd64       ??_C@_17PAGBAIDI@?$AA?$DL?$AAO?$AAK?$AA?$AA@ 1000dd64     service.obj
 0001:0000cd6c       ??_C@_09ENKGJCEC@OwnerGuid?$AA@ 1000dd6c     service.obj
 0001:0000cd78       ??_C@_0N@CCPLCIHE@PluginHandle?$AA@ 1000dd78     service.obj
 0001:0000cd88       ??_C@_0N@HEHBMBNM@PluginObject?$AA@ 1000dd88     service.obj
 0001:0000cd98       ??_C@_09BKHPOLGD@PanelType?$AA@ 1000dd98     service.obj
 0001:0000cda4       ??_C@_04GOOOJOPP@left?$AA@ 1000dda4     service.obj
 0001:0000cdac       ??_C@_03FGFCOCMD@top?$AA@  1000ddac     service.obj
 0001:0000cdb0       ??_C@_05DHJDAOHK@right?$AA@ 1000ddb0     service.obj
 0001:0000cdb8       ??_C@_06PMMPCIPB@bottom?$AA@ 1000ddb8     service.obj
 0001:0000cdc0       ??_C@_09MCEJMINN@PanelRect?$AA@ 1000ddc0     service.obj
 0001:0000cdcc       ??_C@_0M@DDGFKGKJ@ItemsNumber?$AA@ 1000ddcc     service.obj
 0001:0000cdd8       ??_C@_0BE@EOBAHHNK@SelectedItemsNumber?$AA@ 1000ddd8     service.obj
 0001:0000cdec       ??_C@_0M@JMILNLLF@CurrentItem?$AA@ 1000ddec     service.obj
 0001:0000cdf8       ??_C@_0N@CDHIFJIH@TopPanelItem?$AA@ 1000ddf8     service.obj
 0001:0000ce08       ??_C@_08IMMBLBLF@ViewMode?$AA@ 1000de08     service.obj
 0001:0000ce14       ??_C@_08CENECNJD@SortMode?$AA@ 1000de14     service.obj
 0001:0000ce20       ??_C@_04FABLJDN@Name?$AA@  1000de20     service.obj
 0001:0000ce28       ??_C@_05LOJBNELM@Param?$AA@ 1000de28     service.obj
 0001:0000ce30       ??_C@_04PBAHLACE@File?$AA@ 1000de30     service.obj
 0001:0000ce38       ??_C@_08HGEAFCFN@PluginId?$AA@ 1000de38     service.obj
 0001:0000ce44       ??_C@_0BA@MLHECKCE@table?5or?5string?$AA@ 1000de44     service.obj
 0001:0000ce54       ??_C@_0BD@CKJHMJBG@non?9positive?5index?$AA@ 1000de54     service.obj
 0001:0000ce68       ??_C@_0BA@GNKNKKDM@number?5or?5table?$AA@ 1000de68     service.obj
 0001:0000ce78       ??_C@_0CI@DDAJHJKO@?$CFs?5?9?5unsupported?5type?5in?5dialog?5@ 1000de78     service.obj
 0001:0000cea0       ??_C@_0CD@JIANOKII@unsupported?5flag?5in?5dialog?5item?5@ 1000dea0     service.obj
 0001:0000cec4       ??_C@_0CB@EOGFCCCC@value?5at?5index?5?$CFd?5is?5not?5a?5table@ 1000dec4     service.obj
 0001:0000cee8       ??_C@_0O@FEBHKEHB@closed?5dialog?$AA@ 1000dee8     service.obj
 0001:0000cef8       ??_C@_0BK@NEMPGLFN@operation?5not?5implemented?$AA@ 1000def8     service.obj
 0001:0000cf14       ??_C@_04KPCPLBPL@Left?$AA@ 1000df14     service.obj
 0001:0000cf1c       ??_C@_03PGGAENPN@Top?$AA@  1000df1c     service.obj
 0001:0000cf20       ??_C@_05DADPALEM@Right?$AA@ 1000df20     service.obj
 0001:0000cf28       ??_C@_0CK@JHNDGJBB@element?5?$CD?$CFd?5in?5argument?5?$CD4?5is?5no@ 1000df28     service.obj
 0001:0000cf54       ??_C@_0L@CECHCPAP@StartIndex?$AA@ 1000df54     service.obj
 0001:0000cf60       ??_C@_05IJGIMMHE@Count?$AA@ 1000df60     service.obj
 0001:0000cf68       ??_C@_07NOCIGAPP@Pattern?$AA@ 1000df68     service.obj
 0001:0000cf70       ??_C@_09IMOCKOO@SelectPos?$AA@ 1000df70     service.obj
 0001:0000cf7c       ??_C@_06DJONBJOP@TopPos?$AA@ 1000df7c     service.obj
 0001:0000cf84       ??_C@_09OGCBKCAK@MaxLength?$AA@ 1000df84     service.obj
 0001:0000cf90       ??_C@_05FNNGFGLF@Index?$AA@ 1000df90     service.obj
 0001:0000cf98       ??_C@_07GHGHLGFI@GetType?$AA@ 1000df98     service.obj
 0001:0000cfa0       ??_C@_07MMLMCDAI@ValType?$AA@ 1000dfa0     service.obj
 0001:0000cfa8       ??_C@_05LPIJGKJ@Value?$AA@ 1000dfa8     service.obj
 0001:0000cfb0       ??_C@_0L@LPFMIAHH@helpstring?$AA@ 1000dfb0     service.obj
 0001:0000cfbc       ??_C@_0P@NABDHFON@getvaluestring?$AA@ 1000dfbc     service.obj
 0001:0000cfcc       ??_C@_0BJ@IINAPFDG@Items?$FL?$CFd?$FN?5is?5not?5a?5table?$AA@ 1000dfcc     service.obj
 0001:0000cfe8       ??_C@_0CC@GBOJFNBI@error?5occured?5in?5dialog?5procedur@ 1000dfe8     service.obj
 0001:0000d00c       ??_C@_0M@EHMONPJO@?$CFs?5?$CIclosed?$CJ?$AA@ 1000e00c     service.obj
 0001:0000d018       ??_C@_08GDAJJKGC@ViewerID?$AA@ 1000e018     service.obj
 0001:0000d024       ??_C@_07MJHBHMFM@FilePos?$AA@ 1000e024     service.obj
 0001:0000d02c       ??_C@_07FBAHDBGN@CurMode?$AA@ 1000e02c     service.obj
 0001:0000d034       ??_C@_06IMBBKDFH@iParam?$AA@ 1000e034     service.obj
 0001:0000d03c       ??_C@_1BE@CGKCNEEP@?$AAI?$AAn?$AAp?$AAu?$AAt?$AA?5?$AAB?$AAo?$AAx?$AA?$AA@ 1000e03c     service.obj
 0001:0000d050       ??_C@_1CA@PCDNIBFH@?$AAE?$AAn?$AAt?$AAe?$AAr?$AA?5?$AAt?$AAh?$AAe?$AA?5?$AAt?$AAe?$AAx?$AAt?$AA?3?$AA?$AA@ 1000e050     service.obj
 0001:0000d070       ??_C@_0BG@GAFLOAPP@command?5not?5supported?$AA@ 1000e070     service.obj
 0001:0000d088       ??_C@_09MIJAKHKB@Completed?$AA@ 1000e088     service.obj
 0001:0000d094       ??_C@_05KGEAEGFG@Total?$AA@ 1000e094     service.obj
 0001:0000d09c       ??_C@_0P@DJOANNIK@?$CFd?4?$CFd?4?$CFd?4?$CFd?4?$CFd?$AA@ 1000e09c     service.obj
 0001:0000d0ac       ??_C@_03FCCPIJGJ@Pos?$AA@  1000e0ac     service.obj
 0001:0000d0b0       ??_C@_08NNKIOIN@TypeName?$AA@ 1000e0b0     service.obj
 0001:0000d0bc       ??_C@_07ONPPLIAF@ErrCode?$AA@ 1000e0bc     service.obj
 0001:0000d0c4       ??_C@_07LJDOKIBM@ErrPosX?$AA@ 1000e0c4     service.obj
 0001:0000d0cc       ??_C@_07KACFJJFN@ErrPosY?$AA@ 1000e0cc     service.obj
 0001:0000d0d4       ??_C@_06HBEFEBCM@ErrSrc?$AA@ 1000e0d4     service.obj
 0001:0000d0dc       ??_C@_06LDIMCHFC@?$CF?$CKs?$CFs?5?$AA@ 1000e0dc     service.obj
 0001:0000d0e4       ??_C@_09HNJDNMKK@?$CF?$CF?$CFdd?$CF?$CFs?5?$AA@ 1000e0e4     service.obj
 0001:0000d0f0       ??_C@_0CC@JIGPFMKG@global?5?$GAtostring?8?5is?5not?5functio@ 1000e0f0     service.obj
 0001:0000d114       ??_C@_0CH@OINAPBOJ@tostring?$CI?$CJ?5returned?5a?5non?9string@ 1000e114     service.obj
 0001:0000d13c       ??_C@_04CIMGMMMG@text?$AA@ 1000e13c     service.obj
 0001:0000d144       ??_C@_03CAOIPBNL@arg?$AA@  1000e144     service.obj
 0001:0000d148       ??_C@_0ME@JDKAEDFJ@local?5items?0n?$DN?4?4?4?6local?5bottom?$DNn@ 1000e148     service.obj
 0001:0000d20c       ??_C@_0CG@FGNNCNLL@attempt?5to?5access?5invalid?5file?5f@ 1000e20c     service.obj
 0001:0000d234       ??_C@_07BJOIOONN@Strings?$AA@ 1000e234     service.obj
 0001:0000d23c       ??_C@_08FGAFMHLF@DiskMenu?$AA@ 1000e23c     service.obj
 0001:0000d248       ??_C@_0L@NHENMPLN@PluginMenu?$AA@ 1000e248     service.obj
 0001:0000d254       ??_C@_0N@IEACHFBM@PluginConfig?$AA@ 1000e254     service.obj
 0001:0000d264       ??_C@_05GCJGCMFJ@PInfo?$AA@ 1000e264     service.obj
 0001:0000d26c       ??_C@_05HMEFBOHK@GInfo?$AA@ 1000e26c     service.obj
 0001:0000d274       ??_C@_0N@GAMEMCEE@invalid?5GUID?$AA@ 1000e274     service.obj
 0001:0000d284       ??_C@_0BP@NJEEOHDB@attempt?5to?5access?5closed?5timer?$AA@ 1000e284     service.obj
 0001:0000d2a4       ??_C@_05LGELBCGM@Close?$AA@ 1000e2a4     service.obj
 0001:0000d2ac       ??_C@_07DOAOMMKG@Enabled?$AA@ 1000e2ac     service.obj
 0001:0000d2b4       ??_C@_08KDKDEPAG@Interval?$AA@ 1000e2b4     service.obj
 0001:0000d2c0       ??_C@_07CIINKFND@OnTimer?$AA@ 1000e2c0     service.obj
 0001:0000d2c8       ??_C@_06EFCDMIMC@Closed?$AA@ 1000e2c8     service.obj
 0001:0000d2d0       ??_C@_0CE@LHJCBGGH@attempt?5to?5call?5non?9existent?5met@ 1000e2d0     service.obj
 0001:0000d2f4       ??_C@_0BO@PNFLEJKN@attempt?5to?5access?5a?5closed?5?$CFs?$AA@ 1000e2f4     service.obj
 0001:0000d314       ??_C@_04OKOFBOPB@Time?$AA@ 1000e314     service.obj
 0001:0000d31c       ??_C@_04LADJNOK@Lock?$AA@  1000e31c     service.obj
 0001:0000d324       ??_C@_0N@ECMJOJJG@MacroCallFar?$AA@ 1000e324     service.obj
 0001:0000d334       ??_C@_0BC@JJHHFNMP@FarMacroCallToLua?$AA@ 1000e334     service.obj
 0001:0000d348       ??_C@_06GIFLLBB@editor?$AA@ 1000e348     service.obj
 0001:0000d350       ??_C@_06DGPPOJKF@viewer?$AA@ 1000e350     service.obj
 0001:0000d358       ??_C@_01DICPFPGM@k?$AA@    1000e358     service.obj
 0001:0000d35c       ??_C@_06BPGFKLEK@__mode?$AA@ 1000e35c     service.obj
 0001:0000d364       ??_C@_1CC@OPOAGCKN@?$AA?2?$AAl?$AAu?$AAa?$AAf?$AAa?$AAr?$AA_?$AAi?$AAn?$AAi?$AAt?$AA?4?$AAl?$AAu?$AAa?$AA?$AA@ 1000e364     service.obj
 0001:0000d388       ??_C@_1BG@BDOBMIBP@?$AAF?$AAA?$AAR?$AAP?$AAR?$AAO?$AAF?$AAI?$AAL?$AAE?$AA?$AA@ 1000e388     service.obj
 0001:0000d3a0       ??_C@_04LHHHFLPP@utf8?$AA@ 1000e3a0     service.obj
 0001:0000d3a8       ??_C@_03EDMBFDDG@bit?$AA@  1000e3a8     service.obj
 0001:0000d3ac       ??_C@_03IGHFHLNJ@jit?$AA@  1000e3ac     service.obj
 0001:0000d3b0       ??_C@_08LBNNGFKE@_PRELOAD?$AA@ 1000e3b0     service.obj
 0001:0000d3bc       ??_C@_03DIJDOPEA@ffi?$AA@  1000e3bc     service.obj
 0001:0000d3c0       ??_C@_06ONNDGCDK@dofile?$AA@ 1000e3c0     service.obj
 0001:0000d3c8       ??_C@_08BNNFLGCJ@loadfile?$AA@ 1000e3c8     service.obj
 0001:0000d3d4       ??_C@_03OFAPEBGM@?$CFs?6?$AA@ 1000e3d4     service.obj
 0001:0000d3d8       __real@3ff0000000000000    1000e3d8     service.obj
 0001:0000d3e0       __real@4059000000000000    1000e3e0     service.obj
 0001:0000d3e8       __real@41e0000000000000    1000e3e8     service.obj
 0001:0000d3f0       __real@41f0000000000000    1000e3f0     service.obj
 0001:0000d480       ??_C@_04IHGKJMLH@byte?$AA@ 1000e480     slnunico.obj
 0001:0000d488       ??_C@_04ENMBGAPA@char?$AA@ 1000e488     slnunico.obj
 0001:0000d490       ??_C@_04GGLOKIEE@dump?$AA@ 1000e490     slnunico.obj
 0001:0000d498       ??_C@_06DLEPGFEF@format?$AA@ 1000e498     slnunico.obj
 0001:0000d4a0       ??_C@_05EIEIBDFD@gfind?$AA@ 1000e4a0     slnunico.obj
 0001:0000d4a8       ??_C@_03BKCJCHLK@len?$AA@  1000e4a8     slnunico.obj
 0001:0000d4ac       ??_C@_05IPJEPLHL@lower?$AA@ 1000e4ac     slnunico.obj
 0001:0000d4b4       ??_C@_03HOKODIMJ@rep?$AA@  1000e4b4     slnunico.obj
 0001:0000d4b8       ??_C@_07KOIEOCCE@reverse?$AA@ 1000e4b8     slnunico.obj
 0001:0000d4c0       ??_C@_05NECKJAMC@upper?$AA@ 1000e4c0     slnunico.obj
 0001:0000d4c8       ??_C@_09GCBMKPBD@utf8valid?$AA@ 1000e4c8     slnunico.obj
 0001:0000d4d4       ??_C@_04GMGOKAFF@mode?$AA@ 1000e4d4     slnunico.obj
 0001:0000d4dc       ??_C@_0BG@DFAIEAEC@string?5slice?5too?5long?$AA@ 1000e4dc     slnunico.obj
 0001:0000d4f4       ??_C@_0O@EAJJMEEM@invalid?5value?$AA@ 1000e4f4     slnunico.obj
 0001:0000d504       ??_C@_0BO@BNLBHKJN@unable?5to?5dump?5given?5function?$AA@ 1000e504     slnunico.obj
 0001:0000d524       ??_C@_0BG@LEHNKOGD@invalid?5capture?5index?$AA@ 1000e524     slnunico.obj
 0001:0000d53c       ??_C@_0BI@ECNPHIBF@invalid?5pattern?5capture?$AA@ 1000e53c     slnunico.obj
 0001:0000d554       ??_C@_0CD@PLJBIEHA@malformed?5pattern?5?$CIends?5with?5?8?$CF?$CF@ 1000e554     slnunico.obj
 0001:0000d578       ??_C@_0CA@CFGACOGB@malformed?5pattern?5?$CImissing?5?8?$FN?8?$CJ?$AA@ 1000e578     slnunico.obj
 0001:0000d598       ??_C@_0BD@NGJIMPLI@unbalanced?5pattern?$AA@ 1000e598     slnunico.obj
 0001:0000d5ac       ??_C@_0BC@IMEAEJPD@too?5many?5captures?$AA@ 1000e5ac     slnunico.obj
 0001:0000d5c0       ??_C@_0BD@BFKNEALP@unfinished?5capture?$AA@ 1000e5c0     slnunico.obj
 0001:0000d5d4       ??_C@_0L@NLFJOONJ@?$FO$?$CK?$CL?$DP?4?$CI?$FL?$CF?9?$AA@ 1000e5d4     slnunico.obj
 0001:0000d5e0       ??_C@_0CO@MAGJPEI@?8string?4gfind?8?5was?5renamed?5to?5?8s@ 1000e5e0     slnunico.obj
 0001:0000d610       ??_C@_0BP@PPPOBACA@string?1function?1table?5expected?$AA@ 1000e610     slnunico.obj
 0001:0000d630       ??_C@_0CB@LPDIHGGA@invalid?5replacement?5value?5?$CIa?5?$CFs?$CJ@ 1000e630     slnunico.obj
 0001:0000d654       ??_C@_02HIBBOKEN@?2r?$AA@  1000e654     slnunico.obj
 0001:0000d658       ??_C@_04MPDIABOK@?2000?$AA@ 1000e658     slnunico.obj
 0001:0000d660       ??_C@_05GGBDHNF@?9?$CL?5?$CD0?$AA@ 1000e660     slnunico.obj
 0001:0000d668       ??_C@_0CA@COOMGCAO@invalid?5format?5?$CIrepeated?5flags?$CJ?$AA@ 1000e668     slnunico.obj
 0001:0000d688       ??_C@_0CN@KALFEKPN@invalid?5format?5?$CIwidth?5or?5precisi@ 1000e688     slnunico.obj
 0001:0000d6b8       ??_C@_0CC@KIPBEOBI@invalid?5option?5?8?$CF?$CF?$CFc?8?5to?5?8format@ 1000e6b8     slnunico.obj
 0001:0000d6dc       ??_C@_0O@EJMKHGFJ@unicode?4ascii?$AA@ 1000e6dc     slnunico.obj
 0001:0000d6ec       ??_C@_0P@CMOFLLND@unicode?4latin1?$AA@ 1000e6ec     slnunico.obj
 0001:0000d6fc       ??_C@_0BB@EFCDCNG@unicode?4grapheme?$AA@ 1000e6fc     slnunico.obj
 0001:0000d710       ??_C@_0N@DKIDGKBP@unicode?4utf8?$AA@ 1000e710     slnunico.obj
 0001:0000d818       ??_C@_05DFJCHPDH@input?$AA@ 1000e818     uliolib51.obj
 0001:0000d820       ??_C@_06DKIGHACF@output?$AA@ 1000e820     uliolib51.obj
 0001:0000d828       ??_C@_03KCHOJKKI@set?$AA@  1000e828     uliolib51.obj
 0001:0000d82c       ??_C@_03LIBLMJMB@cur?$AA@  1000e82c     uliolib51.obj
 0001:0000d830       ??_C@_03JBJLGPFL@end?$AA@  1000e830     uliolib51.obj
 0001:0000d834       ??_C@_02KAJCLHKP@no?$AA@   1000e834     uliolib51.obj
 0001:0000d838       ??_C@_04PLMLMMEO@full?$AA@ 1000e838     uliolib51.obj
 0001:0000d840       ??_C@_04HJPCFDOP@line?$AA@ 1000e840     uliolib51.obj
 0001:0000d848       ??_C@_05LBOHBHFK@close?$AA@ 1000e848     uliolib51.obj
 0001:0000d850       ??_C@_05GLCAEPFP@flush?$AA@ 1000e850     uliolib51.obj
 0001:0000d858       ??_C@_05DENOCHIP@lines?$AA@ 1000e858     uliolib51.obj
 0001:0000d860       ??_C@_05IACAFMHP@popen?$AA@ 1000e860     uliolib51.obj
 0001:0000d868       ??_C@_07FKJPAINK@tmpfile?$AA@ 1000e868     uliolib51.obj
 0001:0000d870       ??_C@_05NGFEDHGN@write?$AA@ 1000e870     uliolib51.obj
 0001:0000d878       ??_C@_04EDECCOGL@seek?$AA@ 1000e878     uliolib51.obj
 0001:0000d880       ??_C@_07HHBPNGAN@setvbuf?$AA@ 1000e880     uliolib51.obj
 0001:0000d888       ??_C@_06DJHOIPC@?$CFs?3?5?$CFs?$AA@ 1000e888     uliolib51.obj
 0001:0000d890       ??_C@_02DKCKIIND@?$CFs?$AA@ 1000e890     uliolib51.obj
 0001:0000d894       ??_C@_05KCHOJJD@FILE?$CK?$AA@ 1000e894     uliolib51.obj
 0001:0000d89c       ??_C@_0M@IBKPHHKH@closed?5file?$AA@ 1000e89c     uliolib51.obj
 0001:0000d8a8       ??_C@_04DAMGJPCA@file?$AA@ 1000e8a8     uliolib51.obj
 0001:0000d8b0       ??_C@_0BN@LPOOHAOM@attempt?5to?5use?5a?5closed?5file?$AA@ 1000e8b0     uliolib51.obj
 0001:0000d8d0       ??_C@_0BL@PEFGCPAG@cannot?5close?5standard?5file?$AA@ 1000e8d0     uliolib51.obj
 0001:0000d8ec       ??_C@_07DMJMBBKE@__close?$AA@ 1000e8ec     uliolib51.obj
 0001:0000d8f4       ??_C@_0O@PLFAPHPG@file?5?$CIclosed?$CJ?$AA@ 1000e8f4     uliolib51.obj
 0001:0000d904       ??_C@_09BPMAMLLD@file?5?$CI?$CFp?$CJ?$AA@ 1000e904     uliolib51.obj
 0001:0000d910       ??_C@_17OBBFBLGE@?$AAr?$AAw?$AAa?$AA?$AA@ 1000e910     uliolib51.obj
 0001:0000d918       ??_C@_0CP@DHGANCPP@invalid?5mode?5?8?$CFs?8?5?$CIshould?5match?5@ 1000e918     uliolib51.obj
 0001:0000d948       ??_C@_0BL@JMNLNGCA@standard?5?$CFs?5file?5is?5closed?$AA@ 1000e948     uliolib51.obj
 0001:0000d964       ??_C@_13CIFDLIMG@?$AAw?$AA?$AA@ 1000e964     uliolib51.obj
 0001:0000d968       ??_C@_03DLDNIBIK@?$CFlf?$AA@ 1000e968     uliolib51.obj
 0001:0000d96c       ??_C@_0BD@IOJAAODF@too?5many?5arguments?$AA@ 1000e96c     uliolib51.obj
 0001:0000d980       ??_C@_0P@PJFAGLMH@invalid?5option?$AA@ 1000e980     uliolib51.obj
 0001:0000d990       ??_C@_0P@CENJCLHM@invalid?5format?$AA@ 1000e990     uliolib51.obj
 0001:0000d9a0       ??_C@_0BH@PBGIDLEF@file?5is?5already?5closed?$AA@ 1000e9a0     uliolib51.obj
 0001:0000d9b8       ??_C@_05CGOEHEFE@?$CF?414g?$AA@ 1000e9b8     uliolib51.obj
 0001:0000d9c0       ??_C@_0DB@KKADAMFH@rawhandle?5is?5only?5available?5in?5G@ 1000e9c0     uliolib51.obj
 0001:0000d9f4       ??_C@_05MHOFLBOO@stdin?$AA@ 1000e9f4     uliolib51.obj
 0001:0000d9fc       ??_C@_06DJDOIFHB@stdout?$AA@ 1000e9fc     uliolib51.obj
 0001:0000da04       ??_C@_06FJGNEBG@stderr?$AA@ 1000ea04     uliolib51.obj
 0001:0000da54       ??_C@_07KOEABFCN@loadlib?$AA@ 1000ea54     uloadlib51.obj
 0001:0000da5c       ??_C@_06LNOHAKGK@seeall?$AA@ 1000ea5c     uloadlib51.obj
 0001:0000da64       ??_C@_06BIEEJMKO@module?$AA@ 1000ea64     uloadlib51.obj
 0001:0000da6c       ??_C@_07FFLLPPLH@require?$AA@ 1000ea6c     uloadlib51.obj
 0001:0000da74       ??_C@_0BN@GMPFCLAN@unable?5to?5get?5ModuleFileName?$AA@ 1000ea74     uloadlib51.obj
 0001:0000da94       ??_C@_13MGDFOILI@?$AA?$CB?$AA?$AA@ 1000ea94     uloadlib51.obj
 0001:0000da98       ??_C@_09GMLHALBF@LOADLIB?3?5?$AA@ 1000ea98     uloadlib51.obj
 0001:0000daa4       ??_C@_04HDOCAJNK@?$CFs?$CFs?$AA@ 1000eaa4     uloadlib51.obj
 0001:0000daac       ??_C@_08HNNNOMMJ@_LOADLIB?$AA@ 1000eaac     uloadlib51.obj
 0001:0000dab8       ??_C@_04HKFDNBLD@init?$AA@ 1000eab8     uloadlib51.obj
 0001:0000dac0       ??_C@_13FPGAJAPJ@?$AA?2?$AA?$AA@ 1000eac0     uloadlib51.obj
 0001:0000dac4       ??_C@_13JOFGPIOO@?$AA?4?$AA?$AA@ 1000eac4     uloadlib51.obj
 0001:0000dac8       ??_C@_0BO@COFCKCAL@?8package?4?$CFs?8?5must?5be?5a?5string?$AA@ 1000eac8     uloadlib51.obj
 0001:0000dae8       ??_C@_0CE@EPEHLLIH@?8package?4?$CFs?8?5contains?5invalid?5UT@ 1000eae8     uloadlib51.obj
 0001:0000db0c       ??_C@_13HGPDMIBE@?$AA?$DP?$AA?$AA@ 1000eb0c     uloadlib51.obj
 0001:0000db10       ??_C@_0P@NEBKIMDC@?6?7no?5file?5?8?$CFs?8?$AA@ 1000eb10     uloadlib51.obj
 0001:0000db20       ??_C@_0CO@KHMIPLKM@error?5loading?5module?5?8?$CFs?8?5from?5f@ 1000eb20     uloadlib51.obj
 0001:0000db50       ??_C@_04LNEJFJGI@path?$AA@ 1000eb50     uloadlib51.obj
 0001:0000db58       ??_C@_01IDAFKMJL@_?$AA@    1000eb58     uloadlib51.obj
 0001:0000db5c       ??_C@_01LFCBOECM@?4?$AA@   1000eb5c     uloadlib51.obj
 0001:0000db60       ??_C@_0L@KHKMBFOE@luaopen_?$CFs?$AA@ 1000eb60     uloadlib51.obj
 0001:0000db6c       ??_C@_05EEMJHCCC@cpath?$AA@ 1000eb6c     uloadlib51.obj
 0001:0000db74       ??_C@_0BO@KOILFIGK@?6?7no?5module?5?8?$CFs?8?5in?5file?5?8?$CFs?8?$AA@ 1000eb74     uloadlib51.obj
 0001:0000db94       ??_C@_0CC@CCJHFBLH@?8package?4preload?8?5must?5be?5a?5tabl@ 1000eb94     uloadlib51.obj
 0001:0000dbb8       ??_C@_0CB@NPNABMBF@?6?7no?5field?5package?4preload?$FL?8?$CFs?8?$FN@ 1000ebb8     uloadlib51.obj
 0001:0000dbdc       ??_C@_07PINPBNPB@_LOADED?$AA@ 1000ebdc     uloadlib51.obj
 0001:0000dbe4       ??_C@_0CL@DIEJCPFH@loop?5or?5previous?5error?5loading?5m@ 1000ebe4     uloadlib51.obj
 0001:0000dc10       ??_C@_07JAOCDFCG@loaders?$AA@ 1000ec10     uloadlib51.obj
 0001:0000dc18       ??_C@_0CC@IGEJMOFI@?8package?4loaders?8?5must?5be?5a?5tabl@ 1000ec18     uloadlib51.obj
 0001:0000dc3c       ??_C@_0BJ@HFHHABH@module?5?8?$CFs?8?5not?5found?3?$CFs?$AA@ 1000ec3c     uloadlib51.obj
 0001:0000dc58       ??_C@_01INIBCBCB@f?$AA@    1000ec58     uloadlib51.obj
 0001:0000dc5c       ??_C@_0CI@GKOMOAFD@?8module?8?5not?5called?5from?5a?5Lua?5f@ 1000ec5c     uloadlib51.obj
 0001:0000dc84       ??_C@_02CCIJHOCI@_M?$AA@   1000ec84     uloadlib51.obj
 0001:0000dc88       ??_C@_05ICMCJINN@_NAME?$AA@ 1000ec88     uloadlib51.obj
 0001:0000dc90       ??_C@_08HONLOGDK@_PACKAGE?$AA@ 1000ec90     uloadlib51.obj
 0001:0000dc9c       ??_C@_0BO@CBJIAGLF@name?5conflict?5for?5module?5?8?$CFs?8?$AA@ 1000ec9c     uloadlib51.obj
 0001:0000dcbc       ??_C@_17KOAMMDLI@?$AA?$DL?$AA?$AB?$AA?$DL?$AA?$AA@ 1000ecbc     uloadlib51.obj
 0001:0000dcc4       ??_C@_15HKKNGJC@?$AA?$DL?$AA?$DL?$AA?$AA@ 1000ecc4     uloadlib51.obj
 0001:0000dccc       ??_C@_13GGAHEHIG@?$AA?$AB?$AA?$AA@ 1000eccc     uloadlib51.obj
 0001:0000dcd0       ??_C@_1HE@JLDBNBHO@?$AA?4?$AA?2?$AA?$DP?$AA?4?$AAl?$AAu?$AAa?$AA?$DL?$AA?$CB?$AA?2?$AAl?$AAu?$AAa?$AA?2?$AA?$DP?$AA?4?$AAl?$AAu?$AAa?$AA?$DL?$AA?$CB?$AA?2?$AAl?$AAu?$AAa?$AA?2?$AA?$DP?$AA?2?$AAi?$AAn?$AAi?$AAt@ 1000ecd0     uloadlib51.obj
 0001:0000dd44       ??_C@_1BC@ILFFIBFI@?$AAL?$AAU?$AAA?$AA_?$AAP?$AAA?$AAT?$AAH?$AA?$AA@ 1000ed44     uloadlib51.obj
 0001:0000dd58       ??_C@_1DM@FGPGEDD@?$AA?4?$AA?2?$AA?$DP?$AA?4?$AAd?$AAl?$AAl?$AA?$DL?$AA?$CB?$AA?2?$AA?$DP?$AA?4?$AAd?$AAl?$AAl?$AA?$DL?$AA?$CB?$AA?2?$AAl?$AAo?$AAa?$AAd?$AAa?$AAl?$AAl?$AA?4?$AAd?$AAl?$AAl?$AA?$AA@ 1000ed58     uloadlib51.obj
 0001:0000dd94       ??_C@_1BE@EFNILHBI@?$AAL?$AAU?$AAA?$AA_?$AAC?$AAP?$AAA?$AAT?$AAH?$AA?$AA@ 1000ed94     uloadlib51.obj
 0001:0000dda8       ??_C@_1BE@CKNDCMBB@?$AA?2?$AA?6?$AA?$DL?$AA?6?$AA?$DP?$AA?6?$AA?$CB?$AA?6?$AA?9?$AA?$AA@ 1000eda8     uloadlib51.obj
 0001:0000ddbc       ??_C@_06HEJKKHEK@config?$AA@ 1000edbc     uloadlib51.obj
 0001:0000ddc4       ??_C@_06IILMCCFO@loaded?$AA@ 1000edc4     uloadlib51.obj
 0001:0000ddd0       _ustring_funcs             1000edd0     ustring.obj
 0001:0000dec8       ??_C@_0BE@DEHGONAH@EnumSystemCodePages?$AA@ 1000eec8     ustring.obj
 0001:0000dedc       ??_C@_06FMJLOCAF@GetACP?$AA@ 1000eedc     ustring.obj
 0001:0000dee4       ??_C@_09HLFMNDA@GetCPInfo?$AA@ 1000eee4     ustring.obj
 0001:0000def0       ??_C@_0O@PIBBCLJF@GetCurrentDir?$AA@ 1000eef0     ustring.obj
 0001:0000df00       ??_C@_0N@IIBOJKJ@GetDriveType?$AA@ 1000ef00     ustring.obj
 0001:0000df10       ??_C@_0M@KHMMJMNI@GetFileAttr?$AA@ 1000ef10     ustring.obj
 0001:0000df1c       ??_C@_0M@ONGMCNNE@GetKeyState?$AA@ 1000ef1c     ustring.obj
 0001:0000df28       ??_C@_0BH@KKAFOIJJ@GetLogicalDriveStrings?$AA@ 1000ef28     ustring.obj
 0001:0000df40       ??_C@_08OMCNFONF@GetOEMCP?$AA@ 1000ef40     ustring.obj
 0001:0000df4c       ??_C@_0N@EBDGNADB@GetConsoleCP?$AA@ 1000ef4c     ustring.obj
 0001:0000df5c       ??_C@_0N@DFIIBMHN@SetConsoleCP?$AA@ 1000ef5c     ustring.obj
 0001:0000df6c       ??_C@_0BD@LLGELLLN@GetConsoleOutputCP?$AA@ 1000ef6c     ustring.obj
 0001:0000df80       ??_C@_0BD@EBEOINFF@SetConsoleOutputCP?$AA@ 1000ef80     ustring.obj
 0001:0000df94       ??_C@_0BD@IHIHPGDL@GlobalMemoryStatus?$AA@ 1000ef94     ustring.obj
 0001:0000dfa8       ??_C@_0BE@HCIKGJGE@MultiByteToWideChar?$AA@ 1000efa8     ustring.obj
 0001:0000dfbc       ??_C@_09EPINLGBH@OemToUtf8?$AA@ 1000efbc     ustring.obj
 0001:0000dfc8       ??_C@_0BC@NFCPMJFM@OutputDebugString?$AA@ 1000efc8     ustring.obj
 0001:0000dfdc       ??_C@_0BA@MNJFBAJH@SHGetFolderPath?$AA@ 1000efdc     ustring.obj
 0001:0000dfec       ??_C@_0L@PMCLJMMJ@SearchPath?$AA@ 1000efec     ustring.obj
 0001:0000dff8       ??_C@_0O@IHAPJIOC@SetCurrentDir?$AA@ 1000eff8     ustring.obj
 0001:0000e008       ??_C@_0M@KINCEKFL@SetFileAttr?$AA@ 1000f008     ustring.obj
 0001:0000e014       ??_C@_05PFDOMJEF@Sleep?$AA@ 1000f014     ustring.obj
 0001:0000e01c       ??_C@_0M@KJELMDJD@Utf16ToUtf8?$AA@ 1000f01c     ustring.obj
 0001:0000e028       ??_C@_09LCEKPEGC@Utf8ToOem?$AA@ 1000f028     ustring.obj
 0001:0000e034       ??_C@_0M@GJGCILHG@Utf8ToUtf16?$AA@ 1000f034     ustring.obj
 0001:0000e040       ??_C@_04NDFIEGPL@Uuid?$AA@ 1000f040     ustring.obj
 0001:0000e048       ??_C@_0BE@LJADKLBD@WideCharToMultiByte?$AA@ 1000f048     ustring.obj
 0001:0000e05c       ??_C@_04GFOHBGIO@subW?$AA@ 1000f05c     ustring.obj
 0001:0000e064       ??_C@_06FHFOAHML@system?$AA@ 1000f064     ustring.obj
 0001:0000e06c       ??_C@_04NOFELICG@lenW?$AA@ 1000f06c     ustring.obj
 0001:0000e074       ??_C@_0BB@BLJKPILH@system?5error?5?$CFd?6?$AA@ 1000f074     ustring.obj
 0001:0000e088       ??_C@_0BJ@MEAJDMDL@invalid?5multibyte?5string?$AA@ 1000f088     ustring.obj
 0001:0000e0a4       ??_C@_0BG@ELIKBHAO@invalid?5UTF?916?5string?$AA@ 1000f0a4     ustring.obj
 0001:0000e0bc       ??_C@_0M@KJGJBDLL@MaxCharSize?$AA@ 1000f0bc     ustring.obj
 0001:0000e0c8       ??_C@_0M@IMOFNPBB@DefaultChar?$AA@ 1000f0c8     ustring.obj
 0001:0000e0d4       ??_C@_08HIIJAENB@LeadByte?$AA@ 1000f0d4     ustring.obj
 0001:0000e0e0       ??_C@_0BD@CBNPFFPH@UnicodeDefaultChar?$AA@ 1000f0e0     ustring.obj
 0001:0000e0f4       ??_C@_0N@DJCOCBOB@CodePageName?$AA@ 1000f0f4     ustring.obj
 0001:0000e104       ??_C@_0N@IFJMFGJK@unknown?5type?$AA@ 1000f104     ustring.obj
 0001:0000e114       ??_C@_0BC@GPFCFLGN@no?5root?5directory?$AA@ 1000f114     ustring.obj
 0001:0000e128       ??_C@_09HPGMKNKO@removable?$AA@ 1000f128     ustring.obj
 0001:0000e134       ??_C@_05OFLEIIDM@fixed?$AA@ 1000f134     ustring.obj
 0001:0000e13c       ??_C@_06IMIHEKN@remote?$AA@ 1000f13c     ustring.obj
 0001:0000e144       ??_C@_05POABADMF@cdrom?$AA@ 1000f144     ustring.obj
 0001:0000e14c       ??_C@_07BHCBOAMP@ramdisk?$AA@ 1000f14c     ustring.obj
 0001:0000e154       ??_C@_0L@PLJFMBIJ@MemoryLoad?$AA@ 1000f154     ustring.obj
 0001:0000e160       ??_C@_09MMAOIBBJ@TotalPhys?$AA@ 1000f160     ustring.obj
 0001:0000e16c       ??_C@_09KFOEOLH@AvailPhys?$AA@ 1000f16c     ustring.obj
 0001:0000e178       ??_C@_0O@PEEMGPEP@TotalPageFile?$AA@ 1000f178     ustring.obj
 0001:0000e188       ??_C@_0O@LLHOKNF@AvailPageFile?$AA@ 1000f188     ustring.obj
 0001:0000e198       ??_C@_0N@LCJEOHMM@TotalVirtual?$AA@ 1000f198     ustring.obj
 0001:0000e1a8       ??_C@_0N@EGHLANBF@AvailVirtual?$AA@ 1000f1a8     ustring.obj
 0001:0000e1b8       ??_C@_0BF@KKNLCGDE@AvailExtendedVirtual?$AA@ 1000f1b8     ustring.obj
 0001:0000e1d0       ??_C@_0P@KJDDGAFH@FileAttributes?$AA@ 1000f1d0     ustring.obj
 0001:0000e1e0       ??_C@_07JOJHCKGP@ustring?$AA@ 1000f1e0     ustring.obj
 0001:0000ea68       ??_C@_0DJ@KKHMCMAP@bad?5field?5?$FL?$CFd?$FN?5in?5table?5stackpos@ 1000fa68     util.obj
 0001:0000eaa4       ??_C@_0DJ@PFHHGAMM@bad?5field?5?8?$CFs?8?5in?5table?5stackpos@ 1000faa4     util.obj
 0001:0000eae0       ??_C@_06EBGNBFIA@number?$AA@ 1000fae0     util.obj
 0001:0000f368       _win_funcs                 10010368     win.obj
 0001:0000f448       ??_C@_0O@CFPMOCDP@CompareString?$AA@ 10010448     win.obj
 0001:0000f458       ??_C@_08PPLNFCGA@CopyFile?$AA@ 10010458     win.obj
 0001:0000f464       ??_C@_09INHPLKKM@CreateDir?$AA@ 10010464     win.obj
 0001:0000f470       ??_C@_0L@GPLPOFDC@DeleteFile?$AA@ 10010470     win.obj
 0001:0000f47c       ??_C@_0N@FOJPHHPH@DeleteRegKey?$AA@ 1001047c     win.obj
 0001:0000f48c       ??_C@_0P@PCCDOIAL@DeleteRegValue?$AA@ 1001048c     win.obj
 0001:0000f49c       ??_C@_0L@DGAGCFOP@EnumRegKey?$AA@ 1001049c     win.obj
 0001:0000f4a8       ??_C@_0N@PFFNCIBD@EnumRegValue?$AA@ 100104a8     win.obj
 0001:0000f4b8       ??_C@_0L@MGMEFCAE@ExtractKey?$AA@ 100104b8     win.obj
 0001:0000f4c4       ??_C@_0N@HALOIPMN@ExtractKeyEx?$AA@ 100104c4     win.obj
 0001:0000f4d4       ??_C@_0BI@EKFDIGHI@FileTimeToLocalFileTime?$AA@ 100104d4     win.obj
 0001:0000f4ec       ??_C@_0BF@KPJNHALE@FileTimeToSystemTime?$AA@ 100104ec     win.obj
 0001:0000f504       ??_C@_0BL@NAIJNMLL@GetConsoleScreenBufferInfo?$AA@ 10010504     win.obj
 0001:0000f520       ??_C@_06CALCCDMF@GetEnv?$AA@ 10010520     win.obj
 0001:0000f528       ??_C@_0M@EINGHLOA@GetFileInfo?$AA@ 10010528     win.obj
 0001:0000f534       ??_C@_09GFGIAJLD@GetRegKey?$AA@ 10010534     win.obj
 0001:0000f540       ??_C@_0BI@ENMDHCMK@GetSystemTimeAsFileTime?$AA@ 10010540     win.obj
 0001:0000f558       ??_C@_0P@GGGHOPAD@GetVirtualKeys?$AA@ 10010558     win.obj
 0001:0000f568       ??_C@_0P@MIPPOCAO@IsProcess64bit?$AA@ 10010568     win.obj
 0001:0000f578       ??_C@_08CALLHOCI@MoveFile?$AA@ 10010578     win.obj
 0001:0000f584       ??_C@_09EDKALOCB@RemoveDir?$AA@ 10010584     win.obj
 0001:0000f590       ??_C@_0L@HBAGBENL@RenameFile?$AA@ 10010590     win.obj
 0001:0000f59c       ??_C@_06LDCDJLBI@SetEnv?$AA@ 1001059c     win.obj
 0001:0000f5a4       ??_C@_09ELCNCICB@SetRegKey?$AA@ 100105a4     win.obj
 0001:0000f5b0       ??_C@_0N@BFFIJKHB@ShellExecute?$AA@ 100105b0     win.obj
 0001:0000f5c0       ??_C@_0BF@HBHGIPOG@SystemTimeToFileTime?$AA@ 100105c0     win.obj
 0001:0000f5d8       ??_C@_06DNONFAKH@wcscmp?$AA@ 100105d8     win.obj
 0001:0000f5e0       ??_C@_04CBBMIBLK@HKLM?$AA@ 100105e0     win.obj
 0001:0000f5e8       ??_C@_04LEMDOLAJ@HKCC?$AA@ 100105e8     win.obj
 0001:0000f5f0       ??_C@_04OHBKMIBJ@HKCR?$AA@ 100105f0     win.obj
 0001:0000f5f8       ??_C@_04KIFLFONO@HKCU?$AA@ 100105f8     win.obj
 0001:0000f600       ??_C@_03DLBIJLAB@HKU?$AA@  10010600     win.obj
 0001:0000f604       ??_C@_0DA@DKALLFDI@must?5be?5?8HKLM?8?0?5?8HKCC?8?0?5?8HKCR?8?0?5@ 10010604     win.obj
 0001:0000f634       ??_C@_05KDALNKAH@dword?$AA@ 10010634     win.obj
 0001:0000f63c       ??_C@_06FNFBAEBE@binary?$AA@ 1001063c     win.obj
 0001:0000f644       ??_C@_0N@CBOMHLPN@expandstring?$AA@ 10010644     win.obj
 0001:0000f654       ??_C@_0M@PEGIPCHN@multistring?$AA@ 10010654     win.obj
 0001:0000f660       ??_C@_0BH@NOJOGNJM@unsupported?5value?5type?$AA@ 10010660     win.obj
 0001:0000f678       ??_C@_0BD@MJODDCFG@OpenRegKey?5failed?4?$AA@ 10010678     win.obj
 0001:0000f68c       ??_C@_0BI@COLHBIIE@RegQueryValueEx?5failed?4?$AA@ 1001068c     win.obj
 0001:0000f6a4       ??_C@_1BK@BIGILECK@?$AAA?$AAd?$AAv?$AAa?$AAp?$AAi?$AA3?$AA2?$AA?4?$AAd?$AAl?$AAl?$AA?$AA@ 100106a4     win.obj
 0001:0000f6c0       ??_C@_0BA@LILAPHGE@RegDeleteKeyExW?$AA@ 100106c0     win.obj
 0001:0000f6d0       ??_C@_0BG@HHFHBIKG@RegOpenKeyExW?5failed?4?$AA@ 100106d0     win.obj
 0001:0000f6e8       ??_C@_05DFPNHDMN@wYear?$AA@ 100106e8     win.obj
 0001:0000f6f0       ??_C@_06MGNNJGBJ@wMonth?$AA@ 100106f0     win.obj
 0001:0000f6f8       ??_C@_0L@OAHPHHP@wDayOfWeek?$AA@ 100106f8     win.obj
 0001:0000f704       ??_C@_04NBLBJIPP@wDay?$AA@ 10010704     win.obj
 0001:0000f70c       ??_C@_05BMOPCGDH@wHour?$AA@ 1001070c     win.obj
 0001:0000f714       ??_C@_07HPODENI@wMinute?$AA@ 10010714     win.obj
 0001:0000f71c       ??_C@_07IIEDHHJN@wSecond?$AA@ 1001071c     win.obj
 0001:0000f724       ??_C@_0O@HBAPEOKP@wMilliseconds?$AA@ 10010724     win.obj
 0001:0000f734       ??_C@_01LKDEMHDF@s?$AA@    10010734     win.obj
 0001:0000f738       ??_C@_0BA@IAFODGNM@CursorPositionX?$AA@ 10010738     win.obj
 0001:0000f748       ??_C@_0BA@JJEFAHJN@CursorPositionY?$AA@ 10010748     win.obj
 0001:0000f758       ??_C@_0L@NFCEOFBF@WindowLeft?$AA@ 10010758     win.obj
 0001:0000f764       ??_C@_09JHGOALHG@WindowTop?$AA@ 10010764     win.obj
 0001:0000f770       ??_C@_0M@HHPHMPGH@WindowRight?$AA@ 10010770     win.obj
 0001:0000f77c       ??_C@_0N@JPIJCAOJ@WindowBottom?$AA@ 1001077c     win.obj
 0001:0000f78c       ??_C@_0BD@DOLDEII@MaximumWindowSizeX?$AA@ 1001078c     win.obj
 0001:0000f7a0       ??_C@_0BD@BKPAAFMJ@MaximumWindowSizeY?$AA@ 100107a0     win.obj
 0001:0000f7b4       ??_C@_01PFHFFBPC@t?$AA@    100107b4     win.obj
 0001:0000f7b8       ??_C@_0BJ@LPJMBJJL@directory?5already?5exists?$AA@ 100107b8     win.obj
 0001:0000f7e0       __imp__EncodePointer@4     100107e0     vc_crt_fix.obj
 0001:0000f7e4       __imp__DecodePointer@4     100107e4     vc_crt_fix.obj
 0001:0000f7e8       __imp__GetModuleHandleExW@12 100107e8     vc_crt_fix.obj
 0001:0000f7ec       __imp__InitializeSListHead@4 100107ec     vc_crt_fix.obj
 0001:0000f7f0       __imp__InterlockedFlushSList@4 100107f0     vc_crt_fix.obj
 0001:0000f7f4       __imp__InterlockedPopEntrySList@4 100107f4     vc_crt_fix.obj
 0001:0000f7f8       __imp__InterlockedPushEntrySList@8 100107f8     vc_crt_fix.obj
 0001:0000f7fc       __imp__InterlockedPushListSListEx@16 100107fc     vc_crt_fix.obj
 0001:0000f800       __imp__RtlFirstEntrySList@4 10010800     vc_crt_fix.obj
 0001:0000f804       __imp__QueryDepthSList@4   10010804     vc_crt_fix.obj
 0001:0000f808       __imp__GetNumaHighestNodeNumber@4 10010808     vc_crt_fix.obj
 0001:0000f80c       __imp__GetLogicalProcessorInformation@8 1001080c     vc_crt_fix.obj
 0001:0000f824       ??_C@_0O@NLDKAIKN@EncodePointer?$AA@ 10010824     vc_crt_fix_impl.obj
 0001:0000f834       ??_C@_0O@KBPMFGHI@DecodePointer?$AA@ 10010834     vc_crt_fix_impl.obj
 0001:0000f844       ??_C@_0BD@GIGEJCNH@GetModuleHandleExW?$AA@ 10010844     vc_crt_fix_impl.obj
 0001:0000f858       ??_C@_0BE@NBEJPEJA@InitializeSListHead?$AA@ 10010858     vc_crt_fix_impl.obj
 0001:0000f86c       ??_C@_0BG@PLLPFLHB@InterlockedFlushSList?$AA@ 1001086c     vc_crt_fix_impl.obj
 0001:0000f884       ??_C@_0BJ@PNEEKDOK@InterlockedPopEntrySList?$AA@ 10010884     vc_crt_fix_impl.obj
 0001:0000f8a0       ??_C@_0BK@JFGGAIOA@InterlockedPushEntrySList?$AA@ 100108a0     vc_crt_fix_impl.obj
 0001:0000f8bc       ??_C@_0BL@FOECAEGO@InterlockedPushListSListEx?$AA@ 100108bc     vc_crt_fix_impl.obj
 0001:0000f8d8       ??_C@_0BD@FHMMIGCI@RtlFirstEntrySList?$AA@ 100108d8     vc_crt_fix_impl.obj
 0001:0000f8ec       ??_C@_0BA@FGPHPMJB@QueryDepthSList?$AA@ 100108ec     vc_crt_fix_impl.obj
 0001:0000f8fc       ??_C@_0BJ@NLNFLAMA@GetNumaHighestNodeNumber?$AA@ 100108fc     vc_crt_fix_impl.obj
 0001:0000f918       ??_C@_0BP@KHGALBC@GetLogicalProcessorInformation?$AA@ 10010918     vc_crt_fix_impl.obj
 0001:0000f938       __pDefaultRawDllMain       10010938     LIBCMT:dll_dllmain.obj
 0001:0000f938       __pRawDllMain              10010938     LIBCMT:dll_dllmain.obj
 0001:0000f950       ??_C@_1DM@KHCHBNEB@?$AAa?$AAp?$AAi?$AA?9?$AAm?$AAs?$AA?9?$AAw?$AAi?$AAn?$AA?9?$AAc?$AAo?$AAr?$AAe?$AA?9?$AAf?$AAi?$AAb?$AAe?$AAr?$AAs?$AA?9?$AAl?$AA1?$AA?9?$AA1?$AA?9?$AA1?$AA?$AA@ 10010950     libvcruntime:winapi_downlevel.obj
 0001:0000f98c       ??_C@_1DK@LPPGFMPP@?$AAa?$AAp?$AAi?$AA?9?$AAm?$AAs?$AA?9?$AAw?$AAi?$AAn?$AA?9?$AAc?$AAo?$AAr?$AAe?$AA?9?$AAs?$AAy?$AAn?$AAc?$AAh?$AA?9?$AAl?$AA1?$AA?9?$AA2?$AA?9?$AA0?$AA?$AA@ 1001098c     libvcruntime:winapi_downlevel.obj
 0001:0000f9c8       ??_C@_1BC@GDMECMAK@?$AAk?$AAe?$AAr?$AAn?$AAe?$AAl?$AA3?$AA2?$AA?$AA@ 100109c8     libvcruntime:winapi_downlevel.obj
 0001:0000f9dc       ??_C@_1BA@PFFKHIOG@?$AAa?$AAp?$AAi?$AA?9?$AAm?$AAs?$AA?9?$AA?$AA@ 100109dc     libvcruntime:winapi_downlevel.obj
 0001:0000f9ec       ??_C@_1BA@IAIFMGEF@?$AAe?$AAx?$AAt?$AA?9?$AAm?$AAs?$AA?9?$AA?$AA@ 100109ec     libvcruntime:winapi_downlevel.obj
 0001:0000fa04       ??_C@_08KNHFBNJ@FlsAlloc?$AA@ 10010a04     libvcruntime:winapi_downlevel.obj
 0001:0000fa18       ??_C@_07PEJMOBNF@FlsFree?$AA@ 10010a18     libvcruntime:winapi_downlevel.obj
 0001:0000fa28       ??_C@_0M@GDNOONDI@FlsGetValue?$AA@ 10010a28     libvcruntime:winapi_downlevel.obj
 0001:0000fa3c       ??_C@_0M@JCPCPOEF@FlsSetValue?$AA@ 10010a3c     libvcruntime:winapi_downlevel.obj
 0001:0000fa50       ??_C@_0BM@HCFOFFN@InitializeCriticalSectionEx?$AA@ 10010a50     libvcruntime:winapi_downlevel.obj
 0001:0000fc08       ??_C@_08EHJDFFNH@__based?$CI?$AA@ 10010c08     libvcruntime:undname.obj
 0001:0000fc14       ??_C@_07KOLFKCDI@__cdecl?$AA@ 10010c14     libvcruntime:undname.obj
 0001:0000fc1c       ??_C@_08GHMPAG@__pascal?$AA@ 10010c1c     libvcruntime:undname.obj
 0001:0000fc28       ??_C@_09IFJBGAPI@__stdcall?$AA@ 10010c28     libvcruntime:undname.obj
 0001:0000fc34       ??_C@_0L@NPHFGOKO@__thiscall?$AA@ 10010c34     libvcruntime:undname.obj
 0001:0000fc40       ??_C@_0L@JMKHOMEK@__fastcall?$AA@ 10010c40     libvcruntime:undname.obj
 0001:0000fc4c       ??_C@_0N@BCKKPABJ@__vectorcall?$AA@ 10010c4c     libvcruntime:undname.obj
 0001:0000fc5c       ??_C@_09HIJEGCPM@__clrcall?$AA@ 10010c5c     libvcruntime:undname.obj
 0001:0000fc68       ??_C@_06GHPCKEAG@__eabi?$AA@ 10010c68     libvcruntime:undname.obj
 0001:0000fc70       ??_C@_07EECFKIPL@__swift?$AA@ 10010c70     libvcruntime:undname.obj
 0001:0000fc78       ??_C@_07JOMMBBKO@__ptr64?$AA@ 10010c78     libvcruntime:undname.obj
 0001:0000fc80       ??_C@_0L@PILCLIHE@__restrict?$AA@ 10010c80     libvcruntime:undname.obj
 0001:0000fc8c       ??_C@_0M@GFIIJFMG@__unaligned?$AA@ 10010c8c     libvcruntime:undname.obj
 0001:0000fc98       ??_C@_09DHDLOLLB@restrict?$CI?$AA@ 10010c98     libvcruntime:undname.obj
 0001:0000fca4       ??_C@_04NIHEBCM@?5new?$AA@ 10010ca4     libvcruntime:undname.obj
 0001:0000fcac       ??_C@_07FPCDHGMM@?5delete?$AA@ 10010cac     libvcruntime:undname.obj
 0001:0000fcb4       ??_C@_01NEMOKFLO@?$DN?$AA@ 10010cb4     libvcruntime:undname.obj
 0001:0000fcb8       ??_C@_02GPIOPFAK@?$DO?$DO?$AA@ 10010cb8     libvcruntime:undname.obj
 0001:0000fcbc       ??_C@_02FODMEDOG@?$DM?$DM?$AA@ 10010cbc     libvcruntime:undname.obj
 0001:0000fcc0       ??_C@_01DCLJPIOD@?$CB?$AA@ 10010cc0     libvcruntime:undname.obj
 0001:0000fcc4       ??_C@_02EGOFBIJA@?$DN?$DN?$AA@ 10010cc4     libvcruntime:undname.obj
 0001:0000fcc8       ??_C@_02FDNJECIE@?$CB?$DN?$AA@ 10010cc8     libvcruntime:undname.obj
 0001:0000fccc       ??_C@_02GPECMEKF@?$FL?$FN?$AA@ 10010ccc     libvcruntime:undname.obj
 0001:0000fcd0       ??_C@_08LHJFAFGD@operator?$AA@ 10010cd0     libvcruntime:undname.obj
 0001:0000fcdc       ??_C@_02HBOOOICD@?9?$DO?$AA@ 10010cdc     libvcruntime:undname.obj
 0001:0000fce0       ??_C@_01NBENCBCI@?$CK?$AA@ 10010ce0     libvcruntime:undname.obj
 0001:0000fce4       ??_C@_02ECNGHCIF@?$CL?$CL?$AA@ 10010ce4     libvcruntime:undname.obj
 0001:0000fce8       ??_C@_02BAABKJLB@?9?9?$AA@ 10010ce8     libvcruntime:undname.obj
 0001:0000fcec       ??_C@_01JOAMLHOP@?9?$AA@   10010cec     libvcruntime:undname.obj
 0001:0000fcf0       ??_C@_01MIFGBAGJ@?$CL?$AA@ 10010cf0     libvcruntime:undname.obj
 0001:0000fcf4       ??_C@_01HNPIGOCE@?$CG?$AA@ 10010cf4     libvcruntime:undname.obj
 0001:0000fcf8       ??_C@_03MNHNFDLC@?9?$DO?$CK?$AA@ 10010cf8     libvcruntime:undname.obj
 0001:0000fcfc       ??_C@_01FGNFDNOH@?$CF?$AA@ 10010cfc     libvcruntime:undname.obj
 0001:0000fd00       ??_C@_01MNNFJEPP@?$DM?$AA@ 10010d00     libvcruntime:undname.obj
 0001:0000fd04       ??_C@_02EHCHHCKH@?$DM?$DN?$AA@ 10010d04     libvcruntime:undname.obj
 0001:0000fd08       ??_C@_01PPODPGHN@?$DO?$AA@ 10010d08     libvcruntime:undname.obj
 0001:0000fd0c       ??_C@_02EEKDKGMJ@?$DO?$DN?$AA@ 10010d0c     libvcruntime:undname.obj
 0001:0000fd10       ??_C@_01IHBHIGKO@?0?$AA@   10010d10     libvcruntime:undname.obj
 0001:0000fd14       ??_C@_02HCKGKOFO@?$CI?$CJ?$AA@ 10010d14     libvcruntime:undname.obj
 0001:0000fd18       ??_C@_01PJKLJHI@?$HO?$AA@  10010d18     libvcruntime:undname.obj
 0001:0000fd1c       ??_C@_01JKBOJNNK@?$FO?$AA@ 10010d1c     libvcruntime:undname.obj
 0001:0000fd20       ??_C@_01DNKMNLPK@?$HM?$AA@ 10010d20     libvcruntime:undname.obj
 0001:0000fd24       ??_C@_02PPKAJPJL@?$CG?$CG?$AA@ 10010d24     libvcruntime:undname.obj
 0001:0000fd28       ??_C@_02NONPIBCD@?$HM?$HM?$AA@ 10010d28     libvcruntime:undname.obj
 0001:0000fd2c       ??_C@_02FPIMKNGF@?$CK?$DN?$AA@ 10010d2c     libvcruntime:undname.obj
 0001:0000fd30       ??_C@_02FOEOMHFC@?$CL?$DN?$AA@ 10010d30     libvcruntime:undname.obj
 0001:0000fd34       ??_C@_02FKMDLLOA@?9?$DN?$AA@ 10010d34     libvcruntime:undname.obj
 0001:0000fd38       ??_C@_02FJEHGPIO@?1?$DN?$AA@ 10010d38     libvcruntime:undname.obj
 0001:0000fd3c       ??_C@_02FENAOKFI@?$CF?$DN?$AA@ 10010d3c     libvcruntime:undname.obj
 0001:0000fd40       ??_C@_03IKFCCPFF@?$DO?$DO?$DN?$AA@ 10010d40     libvcruntime:undname.obj
 0001:0000fd44       ??_C@_03CDNPDDLA@?$DM?$DM?$DN?$AA@ 10010d44     libvcruntime:undname.obj
 0001:0000fd48       ??_C@_02FGJGFEAB@?$CG?$DN?$AA@ 10010d48     libvcruntime:undname.obj
 0001:0000fd4c       ??_C@_02DHLNPPGH@?$HM?$DN?$AA@ 10010d4c     libvcruntime:undname.obj
 0001:0000fd50       ??_C@_02MHEGNOJ@?$FO?$DN?$AA@ 10010d50     libvcruntime:undname.obj
 0001:0000fd54       ??_C@_09IFPLHPGF@?$GAvftable?8?$AA@ 10010d54     libvcruntime:undname.obj
 0001:0000fd60       ??_C@_09BLBHBJP@?$GAvbtable?8?$AA@ 10010d60     libvcruntime:undname.obj
 0001:0000fd6c       ??_C@_07FEEIOKP@?$GAvcall?8?$AA@ 10010d6c     libvcruntime:undname.obj
 0001:0000fd74       ??_C@_08LLFFHHDJ@?$GAtypeof?8?$AA@ 10010d74     libvcruntime:undname.obj
 0001:0000fd80       ??_C@_0BF@KDPPACIK@?$GAlocal?5static?5guard?8?$AA@ 10010d80     libvcruntime:undname.obj
 0001:0000fd98       ??_C@_08OBABFOLI@?$GAstring?8?$AA@ 10010d98     libvcruntime:undname.obj
 0001:0000fda4       ??_C@_0BD@JDLKDPAB@?$GAvbase?5destructor?8?$AA@ 10010da4     libvcruntime:undname.obj
 0001:0000fdb8       ??_C@_0BN@DEGPLNFK@?$GAvector?5deleting?5destructor?8?$AA@ 10010db8     libvcruntime:undname.obj
 0001:0000fdd8       ??_C@_0BO@OBMKPJIG@?$GAdefault?5constructor?5closure?8?$AA@ 10010dd8     libvcruntime:undname.obj
 0001:0000fdf8       ??_C@_0BN@IMDCHIKM@?$GAscalar?5deleting?5destructor?8?$AA@ 10010df8     libvcruntime:undname.obj
 0001:0000fe18       ??_C@_0BO@PFGOCPJJ@?$GAvector?5constructor?5iterator?8?$AA@ 10010e18     libvcruntime:undname.obj
 0001:0000fe38       ??_C@_0BN@LFPFMEDL@?$GAvector?5destructor?5iterator?8?$AA@ 10010e38     libvcruntime:undname.obj
 0001:0000fe58       ??_C@_0CE@IKBNEHA@?$GAvector?5vbase?5constructor?5iterat@ 10010e58     libvcruntime:undname.obj
 0001:0000fe7c       ??_C@_0BL@NILFHHPC@?$GAvirtual?5displacement?5map?8?$AA@ 10010e7c     libvcruntime:undname.obj
 0001:0000fe98       ??_C@_0CB@JONCMFFK@?$GAeh?5vector?5constructor?5iterator?8@ 10010e98     libvcruntime:undname.obj
 0001:0000febc       ??_C@_0CA@GCEOPDGL@?$GAeh?5vector?5destructor?5iterator?8?$AA@ 10010ebc     libvcruntime:undname.obj
 0001:0000fedc       ??_C@_0CH@OOJPLCPH@?$GAeh?5vector?5vbase?5constructor?5ite@ 10010edc     libvcruntime:undname.obj
 0001:0000ff04       ??_C@_0BL@LLKPOHJI@?$GAcopy?5constructor?5closure?8?$AA@ 10010f04     libvcruntime:undname.obj
 0001:0000ff20       ??_C@_0BA@KBCDOMBN@?$GAudt?5returning?8?$AA@ 10010f20     libvcruntime:undname.obj
 0001:0000ff30       ??_C@_03KLGMFNMG@?$GAEH?$AA@ 10010f30     libvcruntime:undname.obj
 0001:0000ff34       ??_C@_05KHLCHHI@?$GARTTI?$AA@ 10010f34     libvcruntime:undname.obj
 0001:0000ff3c       ??_C@_0BA@KKLDJDLB@?$GAlocal?5vftable?8?$AA@ 10010f3c     libvcruntime:undname.obj
 0001:0000ff4c       ??_C@_0CE@IIHCMGGL@?$GAlocal?5vftable?5constructor?5closu@ 10010f4c     libvcruntime:undname.obj
 0001:0000ff70       ??_C@_06FHBGPFGH@?5new?$FL?$FN?$AA@ 10010f70     libvcruntime:undname.obj
 0001:0000ff78       ??_C@_09LBNFPBCA@?5delete?$FL?$FN?$AA@ 10010f78     libvcruntime:undname.obj
 0001:0000ff84       ??_C@_0P@HJKNJFNN@?$GAomni?5callsig?8?$AA@ 10010f84     libvcruntime:undname.obj
 0001:0000ff94       ??_C@_0BL@CNOONJFP@?$GAplacement?5delete?5closure?8?$AA@ 10010f94     libvcruntime:undname.obj
 0001:0000ffb0       ??_C@_0BN@CKNJLHMB@?$GAplacement?5delete?$FL?$FN?5closure?8?$AA@ 10010fb0     libvcruntime:undname.obj
 0001:0000ffd0       ??_C@_0CG@CFDHKGGD@?$GAmanaged?5vector?5constructor?5iter@ 10010fd0     libvcruntime:undname.obj
 0001:0000fff8       ??_C@_0CF@IMGKMJNO@?$GAmanaged?5vector?5destructor?5itera@ 10010ff8     libvcruntime:undname.obj
 0001:00010020       ??_C@_0CG@HLDDJMAG@?$GAeh?5vector?5copy?5constructor?5iter@ 10011020     libvcruntime:undname.obj
 0001:00010048       ??_C@_0CM@FCBBDIGB@?$GAeh?5vector?5vbase?5copy?5constructo@ 10011048     libvcruntime:undname.obj
 0001:00010074       ??_C@_0BL@CLIPGLGB@?$GAdynamic?5initializer?5for?5?8?$AA@ 10011074     libvcruntime:undname.obj
 0001:00010090       ??_C@_0CB@PDBIFEP@?$GAdynamic?5atexit?5destructor?5for?5?8@ 10011090     libvcruntime:undname.obj
 0001:000100b4       ??_C@_0CD@CGAJBKEJ@?$GAvector?5copy?5constructor?5iterato@ 100110b4     libvcruntime:undname.obj
 0001:000100d8       ??_C@_0CJ@GJELGAMM@?$GAvector?5vbase?5copy?5constructor?5i@ 100110d8     libvcruntime:undname.obj
 0001:00010104       ??_C@_0CL@FGIJHLCE@?$GAmanaged?5vector?5copy?5constructor@ 10011104     libvcruntime:undname.obj
 0001:00010130       ??_C@_0BM@PMGGMLDN@?$GAlocal?5static?5thread?5guard?8?$AA@ 10011130     libvcruntime:undname.obj
 0001:0001014c       ??_C@_0N@BDNMDMOL@operator?5?$CC?$CC?5?$AA@ 1001114c     libvcruntime:undname.obj
 0001:0001015c       ??_C@_0BC@GGEBGALA@operator?5co_await?$AA@ 1001115c     libvcruntime:undname.obj
 0001:00010170       ??_C@_0BC@DAFEJGAK@?5Type?5Descriptor?8?$AA@ 10011170     libvcruntime:undname.obj
 0001:00010184       ??_C@_0BM@LDKODKLH@?5Base?5Class?5Descriptor?5at?5?$CI?$AA@ 10011184     libvcruntime:undname.obj
 0001:000101a0       ??_C@_0BD@LGICGFMM@?5Base?5Class?5Array?8?$AA@ 100111a0     libvcruntime:undname.obj
 0001:000101b4       ??_C@_0BN@MECKDCOJ@?5Class?5Hierarchy?5Descriptor?8?$AA@ 100111b4     libvcruntime:undname.obj
 0001:000101d4       ??_C@_0BK@CFCOFLF@?5Complete?5Object?5Locator?8?$AA@ 100111d4     libvcruntime:undname.obj
 0001:000101f0       __pDestructExceptionObject 100111f0     libvcruntime:ehhelpers.obj
 0001:000101f8       _standard_lookup_table     100111f8     libucrt:output.obj
 0001:00010254       ??_C@_1O@CEDCILHN@?$AA?$CI?$AAn?$AAu?$AAl?$AAl?$AA?$CJ?$AA?$AA@ 10011254     libucrt:output.obj
 0001:00010264       ??_C@_06OJHGLDPL@?$CInull?$CJ?$AA@ 10011264     libucrt:output.obj
 0001:000103d0       ??_C@_0EA@FCLIIPNN@Visual?5C?$CL?$CL?5CRT?3?5Not?5enough?5memor@ 100113d0     libucrt:strerror.obj
 0001:00010450       ?large_power_data@?1??multiply_by_power_of_ten@__crt_strtox@@YA_NAAUbig_integer@2@I@Z@4QBIB 10011450     libucrt:input.obj
 0001:00010d58       ?large_power_indices@?1??multiply_by_power_of_ten@__crt_strtox@@YA_NAAUbig_integer@2@I@Z@4QBUunpack_index@?1??12@YA_N0I@Z@B 10011d58     libucrt:input.obj
 0001:00010df0       ?small_powers_of_ten@?1??multiply_by_power_of_ten@__crt_strtox@@YA_NAAUbig_integer@2@I@Z@4QBIB 10011df0     libucrt:input.obj
 0001:00010e18       ??_C@_1GE@DPGDJKLM@?$AAm?$AAi?$AAn?$AAk?$AAe?$AAr?$AAn?$AAe?$AAl?$AA?2?$AAc?$AAr?$AAt?$AAs?$AA?2?$AAu?$AAc?$AAr?$AAt?$AA?2?$AAi?$AAn?$AAc?$AA?2?$AAc?$AAo?$AAr?$AAe?$AAc?$AAr?$AAt?$AA_@ 10011e18     libucrt:input.obj
 0001:00010e80       ??_C@_1FM@FELNCOBF@?$AA_?$AA_?$AAc?$AAr?$AAt?$AA_?$AAs?$AAt?$AAr?$AAt?$AAo?$AAx?$AA?3?$AA?3?$AAf?$AAl?$AAo?$AAa?$AAt?$AAi?$AAn?$AAg?$AA_?$AAp?$AAo?$AAi?$AAn?$AAt?$AA_?$AAv?$AAa?$AAl@ 10011e80     libucrt:input.obj
 0001:00010edc       ??_C@_1BG@GEMHBGAF@?$AA_?$AAi?$AAs?$AA_?$AAd?$AAo?$AAu?$AAb?$AAl?$AAe?$AA?$AA@ 10011edc     libucrt:input.obj
 0001:00010ef8       ??_C@_1FK@JOJELFFO@?$AA_?$AA_?$AAc?$AAr?$AAt?$AA_?$AAs?$AAt?$AAr?$AAt?$AAo?$AAx?$AA?3?$AA?3?$AAf?$AAl?$AAo?$AAa?$AAt?$AAi?$AAn?$AAg?$AA_?$AAp?$AAo?$AAi?$AAn?$AAt?$AA_?$AAv?$AAa?$AAl@ 10011ef8     libucrt:input.obj
 0001:00010f54       ??_C@_1BI@BANMPGJI@?$AA?$CB?$AA_?$AAi?$AAs?$AA_?$AAd?$AAo?$AAu?$AAb?$AAl?$AAe?$AA?$AA@ 10011f54     libucrt:input.obj
 0001:00010f70       ?constraints@?1??is_length_valid@__crt_stdio_input@@YA_NW4conversion_mode@2@W4length_modifier@2@@Z@4QAY0M@$$CBEA 10011f70     libucrt:input.obj
 0001:00010fe8       ?inf_uppercase@?1???$parse_floating_point_possible_infinity@DV?$input_adapter_character_source@V?$stream_input_adapter@D@__crt_stdio_input@@@__crt_strtox@@_K@__crt_strtox@@YA?AW4floating_point_parse_result@1@AADAAV?$input_adapter_character_source@V?$stream_input_adapter@D@__crt_stdio_input@@@1@_K@Z@4QBDB 10011fe8     libucrt:input.obj
 0001:00010fec       ?inf_lowercase@?1???$parse_floating_point_possible_infinity@DV?$input_adapter_character_source@V?$stream_input_adapter@D@__crt_stdio_input@@@__crt_strtox@@_K@__crt_strtox@@YA?AW4floating_point_parse_result@1@AADAAV?$input_adapter_character_source@V?$stream_input_adapter@D@__crt_stdio_input@@@1@_K@Z@4QBDB 10011fec     libucrt:input.obj
 0001:00010ff0       ?inity_uppercase@?1???$parse_floating_point_possible_infinity@DV?$input_adapter_character_source@V?$stream_input_adapter@D@__crt_stdio_input@@@__crt_strtox@@_K@__crt_strtox@@YA?AW4floating_point_parse_result@1@AADAAV?$input_adapter_character_source@V?$stream_input_adapter@D@__crt_stdio_input@@@1@_K@Z@4QBDB 10011ff0     libucrt:input.obj
 0001:00010ff8       ?inity_lowercase@?1???$parse_floating_point_possible_infinity@DV?$input_adapter_character_source@V?$stream_input_adapter@D@__crt_stdio_input@@@__crt_strtox@@_K@__crt_strtox@@YA?AW4floating_point_parse_result@1@AADAAV?$input_adapter_character_source@V?$stream_input_adapter@D@__crt_stdio_input@@@1@_K@Z@4QBDB 10011ff8     libucrt:input.obj
 0001:00011000       ?uppercase@?1???$parse_floating_point_possible_nan@DV?$input_adapter_character_source@V?$stream_input_adapter@D@__crt_stdio_input@@@__crt_strtox@@_K@__crt_strtox@@YA?AW4floating_point_parse_result@1@AADAAV?$input_adapter_character_source@V?$stream_input_adapter@D@__crt_stdio_input@@@1@_K@Z@4QBDB 10012000     libucrt:input.obj
 0001:00011004       ?lowercase@?1???$parse_floating_point_possible_nan@DV?$input_adapter_character_source@V?$stream_input_adapter@D@__crt_stdio_input@@@__crt_strtox@@_K@__crt_strtox@@YA?AW4floating_point_parse_result@1@AADAAV?$input_adapter_character_source@V?$stream_input_adapter@D@__crt_stdio_input@@@1@_K@Z@4QBDB 10012004     libucrt:input.obj
 0001:00011008       ?uppercase@?1???$parse_floating_point_possible_nan_is_snan@DV?$input_adapter_character_source@V?$stream_input_adapter@D@__crt_stdio_input@@@__crt_strtox@@@__crt_strtox@@YA_NAADAAV?$input_adapter_character_source@V?$stream_input_adapter@D@__crt_stdio_input@@@1@@Z@4QBDB 10012008     libucrt:input.obj
 0001:00011010       ?lowercase@?1???$parse_floating_point_possible_nan_is_snan@DV?$input_adapter_character_source@V?$stream_input_adapter@D@__crt_stdio_input@@@__crt_strtox@@@__crt_strtox@@YA_NAADAAV?$input_adapter_character_source@V?$stream_input_adapter@D@__crt_stdio_input@@@1@@Z@4QBDB 10012010     libucrt:input.obj
 0001:00011018       ?uppercase@?1???$parse_floating_point_possible_nan_is_ind@DV?$input_adapter_character_source@V?$stream_input_adapter@D@__crt_stdio_input@@@__crt_strtox@@@__crt_strtox@@YA_NAADAAV?$input_adapter_character_source@V?$stream_input_adapter@D@__crt_stdio_input@@@1@@Z@4QBDB 10012018     libucrt:input.obj
 0001:0001101c       ?lowercase@?1???$parse_floating_point_possible_nan_is_ind@DV?$input_adapter_character_source@V?$stream_input_adapter@D@__crt_stdio_input@@@__crt_strtox@@@__crt_strtox@@YA_NAADAAV?$input_adapter_character_source@V?$stream_input_adapter@D@__crt_stdio_input@@@1@@Z@4QBDB 1001201c     libucrt:input.obj
 0001:00011048       ___acrt_exception_action_table 10012048     libucrt:exception_filter.obj
 0001:000110d8       ___acrt_signal_action_table_count 100120d8     libucrt:exception_filter.obj
 0001:000110dc       ___acrt_signal_action_first_fpe_index 100120dc     libucrt:exception_filter.obj
 0001:000110e0       ___acrt_signal_action_fpe_count 100120e0     libucrt:exception_filter.obj
 0001:000110e4       ??_C@_1BI@BGOHAHKC@?$AAm?$AAs?$AAc?$AAo?$AAr?$AAe?$AAe?$AA?4?$AAd?$AAl?$AAl?$AA?$AA@ 100120e4     libucrt:exit.obj
 0001:000110fc       ??_C@_0P@MIGLKIOC@CorExitProcess?$AA@ 100120fc     libucrt:exit.obj
 0001:00011190       ??_C@_03OEIAHPBN@INF?$AA@  10012190     libucrt:cvt.obj
 0001:00011194       ??_C@_03OJHLLCGB@inf?$AA@  10012194     libucrt:cvt.obj
 0001:00011198       ??_C@_03LKNCIKJB@NAN?$AA@  10012198     libucrt:cvt.obj
 0001:0001119c       ??_C@_03LHCJEHON@nan?$AA@  1001219c     libucrt:cvt.obj
 0001:000111a0       ??_C@_09OFJJIMPC@NAN?$CISNAN?$CJ?$AA@ 100121a0     libucrt:cvt.obj
 0001:000111ac       ??_C@_09IPFBKMDL@nan?$CIsnan?$CJ?$AA@ 100121ac     libucrt:cvt.obj
 0001:000111b8       ??_C@_08IKHNHAJ@NAN?$CIIND?$CJ?$AA@ 100121b8     libucrt:cvt.obj
 0001:000111c4       ??_C@_08OFCDMILK@nan?$CIind?$CJ?$AA@ 100121c4     libucrt:cvt.obj
 0001:000111d0       ??_C@_05KLBDPFGC@e?$CL000?$AA@ 100121d0     libucrt:cvt.obj
 0001:000111d8       ??_C@_03KOEHGMDN@Sun?$AA@  100121d8     libucrt:nlsdata.obj
 0001:000111dc       ??_C@_03PDAGKDH@Mon?$AA@   100121dc     libucrt:nlsdata.obj
 0001:000111e0       ??_C@_03NAGEINEP@Tue?$AA@  100121e0     libucrt:nlsdata.obj
 0001:000111e4       ??_C@_03MHOMLAJA@Wed?$AA@  100121e4     libucrt:nlsdata.obj
 0001:000111e8       ??_C@_03IOFIKPDN@Thu?$AA@  100121e8     libucrt:nlsdata.obj
 0001:000111ec       ??_C@_03IDIOELNC@Fri?$AA@  100121ec     libucrt:nlsdata.obj
 0001:000111f0       ??_C@_03FEFJNEK@Sat?$AA@   100121f0     libucrt:nlsdata.obj
 0001:000111f4       ??_C@_06OOPIFAJ@Sunday?$AA@ 100121f4     libucrt:nlsdata.obj
 0001:000111fc       ??_C@_06JLEDEDGH@Monday?$AA@ 100121fc     libucrt:nlsdata.obj
 0001:00011204       ??_C@_07BAAGCFCM@Tuesday?$AA@ 10012204     libucrt:nlsdata.obj
 0001:0001120c       ??_C@_09DLIGFAKA@Wednesday?$AA@ 1001220c     libucrt:nlsdata.obj
 0001:00011218       ??_C@_08HACCIKIA@Thursday?$AA@ 10012218     libucrt:nlsdata.obj
 0001:00011224       ??_C@_06JECMNKMI@Friday?$AA@ 10012224     libucrt:nlsdata.obj
 0001:0001122c       ??_C@_08INBOOONO@Saturday?$AA@ 1001222c     libucrt:nlsdata.obj
 0001:00011238       ??_C@_03JIHJHPIE@Jan?$AA@  10012238     libucrt:nlsdata.obj
 0001:0001123c       ??_C@_03HJBDCHOM@Feb?$AA@  1001223c     libucrt:nlsdata.obj
 0001:00011240       ??_C@_03ODNJBKGA@Mar?$AA@  10012240     libucrt:nlsdata.obj
 0001:00011244       ??_C@_03LEOLGMJP@Apr?$AA@  10012244     libucrt:nlsdata.obj
 0001:00011248       ??_C@_03CNMDKL@May?$AA@    10012248     libucrt:nlsdata.obj
 0001:0001124c       ??_C@_03IDFGHECI@Jun?$AA@  1001224c     libucrt:nlsdata.obj
 0001:00011250       ??_C@_03LBGABGKK@Jul?$AA@  10012250     libucrt:nlsdata.obj
 0001:00011254       ??_C@_03IFJFEIGA@Aug?$AA@  10012254     libucrt:nlsdata.obj
 0001:00011258       ??_C@_03GGCAPAJC@Sep?$AA@  10012258     libucrt:nlsdata.obj
 0001:0001125c       ??_C@_03BMAOKBAD@Oct?$AA@  1001225c     libucrt:nlsdata.obj
 0001:00011260       ??_C@_03JPJOFNIA@Nov?$AA@  10012260     libucrt:nlsdata.obj
 0001:00011264       ??_C@_03MKABNOCG@Dec?$AA@  10012264     libucrt:nlsdata.obj
 0001:00011268       ??_C@_07CGJPFGJA@January?$AA@ 10012268     libucrt:nlsdata.obj
 0001:00011270       ??_C@_08GNJGEPFN@February?$AA@ 10012270     libucrt:nlsdata.obj
 0001:0001127c       ??_C@_05HPCKOFNC@March?$AA@ 1001227c     libucrt:nlsdata.obj
 0001:00011284       ??_C@_05DMJDNLEJ@April?$AA@ 10012284     libucrt:nlsdata.obj
 0001:0001128c       ??_C@_04CNLMGBGM@June?$AA@ 1001228c     libucrt:nlsdata.obj
 0001:00011294       ??_C@_04MIEPOIFP@July?$AA@ 10012294     libucrt:nlsdata.obj
 0001:0001129c       ??_C@_06LBBHFDDG@August?$AA@ 1001229c     libucrt:nlsdata.obj
 0001:000112a4       ??_C@_09BHHEALKD@September?$AA@ 100122a4     libucrt:nlsdata.obj
 0001:000112b0       ??_C@_07JJNFCEND@October?$AA@ 100122b0     libucrt:nlsdata.obj
 0001:000112b8       ??_C@_08HCHEGEOA@November?$AA@ 100122b8     libucrt:nlsdata.obj
 0001:000112c4       ??_C@_08EDHMEBNP@December?$AA@ 100122c4     libucrt:nlsdata.obj
 0001:000112d0       ??_C@_02DEDBPAFC@AM?$AA@   100122d0     libucrt:nlsdata.obj
 0001:000112d4       ??_C@_02CJNFDJBF@PM?$AA@   100122d4     libucrt:nlsdata.obj
 0001:000112d8       ??_C@_08BPBNCDIB@MM?1dd?1yy?$AA@ 100122d8     libucrt:nlsdata.obj
 0001:000112e4       ??_C@_0BE@CKGJFCPC@dddd?0?5MMMM?5dd?0?5yyyy?$AA@ 100122e4     libucrt:nlsdata.obj
 0001:000112f8       ??_C@_08JCCMCCIL@HH?3mm?3ss?$AA@ 100122f8     libucrt:nlsdata.obj
 0001:00011304       ??_C@_17MBGCMIPB@?$AAS?$AAu?$AAn?$AA?$AA@ 10012304     libucrt:nlsdata.obj
 0001:0001130c       ??_C@_17KBOMKBF@?$AAM?$AAo?$AAn?$AA?$AA@ 1001230c     libucrt:nlsdata.obj
 0001:00011314       ??_C@_17BMKGEGOJ@?$AAT?$AAu?$AAe?$AA?$AA@ 10012314     libucrt:nlsdata.obj
 0001:0001131c       ??_C@_17CJEDCEPE@?$AAW?$AAe?$AAd?$AA?$AA@ 1001231c     libucrt:nlsdata.obj
 0001:00011324       ??_C@_17PDPHAADD@?$AAT?$AAh?$AAu?$AA?$AA@ 10012324     libucrt:nlsdata.obj
 0001:0001132c       ??_C@_17HFOLPPLP@?$AAF?$AAr?$AAi?$AA?$AA@ 1001232c     libucrt:nlsdata.obj
 0001:00011334       ??_C@_17GGIBDPIH@?$AAS?$AAa?$AAt?$AA?$AA@ 10012334     libucrt:nlsdata.obj
 0001:0001133c       ??_C@_1O@IHNHDHPB@?$AAS?$AAu?$AAn?$AAd?$AAa?$AAy?$AA?$AA@ 1001233c     libucrt:nlsdata.obj
 0001:0001134c       ??_C@_1O@MMNBFLIA@?$AAM?$AAo?$AAn?$AAd?$AAa?$AAy?$AA?$AA@ 1001234c     libucrt:nlsdata.obj
 0001:0001135c       ??_C@_1BA@ENFBFFEK@?$AAT?$AAu?$AAe?$AAs?$AAd?$AAa?$AAy?$AA?$AA@ 1001235c     libucrt:nlsdata.obj
 0001:0001136c       ??_C@_1BE@EBOGMDOH@?$AAW?$AAe?$AAd?$AAn?$AAe?$AAs?$AAd?$AAa?$AAy?$AA?$AA@ 1001236c     libucrt:nlsdata.obj
 0001:00011380       ??_C@_1BC@HHMNLIHE@?$AAT?$AAh?$AAu?$AAr?$AAs?$AAd?$AAa?$AAy?$AA?$AA@ 10012380     libucrt:nlsdata.obj
 0001:00011394       ??_C@_1O@PDICJHAG@?$AAF?$AAr?$AAi?$AAd?$AAa?$AAy?$AA?$AA@ 10012394     libucrt:nlsdata.obj
 0001:000113a4       ??_C@_1BC@ENMNNPAJ@?$AAS?$AAa?$AAt?$AAu?$AAr?$AAd?$AAa?$AAy?$AA?$AA@ 100123a4     libucrt:nlsdata.obj
 0001:000113b8       ??_C@_17DKNBKCHM@?$AAJ?$AAa?$AAn?$AA?$AA@ 100123b8     libucrt:nlsdata.obj
 0001:000113c0       ??_C@_17LMDJEKJN@?$AAF?$AAe?$AAb?$AA?$AA@ 100123c0     libucrt:nlsdata.obj
 0001:000113c8       ??_C@_17CKNLEDEC@?$AAM?$AAa?$AAr?$AA?$AA@ 100123c8     libucrt:nlsdata.obj
 0001:000113d0       ??_C@_17LFPOIHDD@?$AAA?$AAp?$AAr?$AA?$AA@ 100123d0     libucrt:nlsdata.obj
 0001:000113d8       ??_C@_17PNNKMEED@?$AAM?$AAa?$AAy?$AA?$AA@ 100123d8     libucrt:nlsdata.obj
 0001:000113e0       ??_C@_17KCJGOCPB@?$AAJ?$AAu?$AAn?$AA?$AA@ 100123e0     libucrt:nlsdata.obj
 0001:000113e8       ??_C@_17IJPCKHK@?$AAJ?$AAu?$AAl?$AA?$AA@ 100123e8     libucrt:nlsdata.obj
 0001:000113f0       ??_C@_17ICPELBCN@?$AAA?$AAu?$AAg?$AA?$AA@ 100123f0     libucrt:nlsdata.obj
 0001:000113f8       ??_C@_17HCHCOKMG@?$AAS?$AAe?$AAp?$AA?$AA@ 100123f8     libucrt:nlsdata.obj
 0001:00011400       ??_C@_17FNLKOI@?$AAO?$AAc?$AAt?$AA?$AA@ 10012400     libucrt:nlsdata.obj
 0001:00011408       ??_C@_17BBDMLCIG@?$AAN?$AAo?$AAv?$AA?$AA@ 10012408     libucrt:nlsdata.obj
 0001:00011410       ??_C@_17EGKACKIF@?$AAD?$AAe?$AAc?$AA?$AA@ 10012410     libucrt:nlsdata.obj
 0001:00011418       ??_C@_1BA@EFMEIEBA@?$AAJ?$AAa?$AAn?$AAu?$AAa?$AAr?$AAy?$AA?$AA@ 10012418     libucrt:nlsdata.obj
 0001:00011428       ??_C@_1BC@JGDDFFAM@?$AAF?$AAe?$AAb?$AAr?$AAu?$AAa?$AAr?$AAy?$AA?$AA@ 10012428     libucrt:nlsdata.obj
 0001:0001143c       ??_C@_1M@IKEENEDF@?$AAM?$AAa?$AAr?$AAc?$AAh?$AA?$AA@ 1001243c     libucrt:nlsdata.obj
 0001:00011448       ??_C@_1M@GJNLMHFD@?$AAA?$AAp?$AAr?$AAi?$AAl?$AA?$AA@ 10012448     libucrt:nlsdata.obj
 0001:00011454       ??_C@_19EPFLPGAP@?$AAJ?$AAu?$AAn?$AAe?$AA?$AA@ 10012454     libucrt:nlsdata.obj
 0001:00011460       ??_C@_19BIFMLPCD@?$AAJ?$AAu?$AAl?$AAy?$AA?$AA@ 10012460     libucrt:nlsdata.obj
 0001:0001146c       ??_C@_1O@PAHLKOAC@?$AAA?$AAu?$AAg?$AAu?$AAs?$AAt?$AA?$AA@ 1001246c     libucrt:nlsdata.obj
 0001:0001147c       ??_C@_1BE@DKAAMBJL@?$AAS?$AAe?$AAp?$AAt?$AAe?$AAm?$AAb?$AAe?$AAr?$AA?$AA@ 1001247c     libucrt:nlsdata.obj
 0001:00011490       ??_C@_1BA@EPANDLNG@?$AAO?$AAc?$AAt?$AAo?$AAb?$AAe?$AAr?$AA?$AA@ 10012490     libucrt:nlsdata.obj
 0001:000114a0       ??_C@_1BC@BGLIFPF@?$AAN?$AAo?$AAv?$AAe?$AAm?$AAb?$AAe?$AAr?$AA?$AA@ 100124a0     libucrt:nlsdata.obj
 0001:000114b4       ??_C@_1BC@FEMKIFH@?$AAD?$AAe?$AAc?$AAe?$AAm?$AAb?$AAe?$AAr?$AA?$AA@ 100124b4     libucrt:nlsdata.obj
 0001:000114c8       ??_C@_15ODEHAHHF@?$AAA?$AAM?$AA?$AA@ 100124c8     libucrt:nlsdata.obj
 0001:000114d0       ??_C@_15CLMNNGEL@?$AAP?$AAM?$AA?$AA@ 100124d0     libucrt:nlsdata.obj
 0001:000114d8       ??_C@_1BC@IEBCMHCM@?$AAM?$AAM?$AA?1?$AAd?$AAd?$AA?1?$AAy?$AAy?$AA?$AA@ 100124d8     libucrt:nlsdata.obj
 0001:000114ec       ??_C@_1CI@KNAKOEBC@?$AAd?$AAd?$AAd?$AAd?$AA?0?$AA?5?$AAM?$AAM?$AAM?$AAM?$AA?5?$AAd?$AAd?$AA?0?$AA?5?$AAy?$AAy?$AAy?$AAy?$AA?$AA@ 100124ec     libucrt:nlsdata.obj
 0001:00011514       ??_C@_1BC@GDGBMEMK@?$AAH?$AAH?$AA?3?$AAm?$AAm?$AA?3?$AAs?$AAs?$AA?$AA@ 10012514     libucrt:nlsdata.obj
 0001:00011528       ??_C@_1M@BMHNFIME@?$AAe?$AAn?$AA?9?$AAU?$AAS?$AA?$AA@ 10012528     libucrt:nlsdata.obj
 0001:00011538       ___lc_time_c               10012538     libucrt:nlsdata.obj
 0001:0001169c       ?ccs@?1???$__acrt_stdio_parse_mode@_W@@YA?AU__acrt_stdio_stream_mode@@QB_W@Z@4QB_WB 1001269c     libucrt:openfile.obj
 0001:000116a4       ?utf8_encoding@?1???$__acrt_stdio_parse_mode@_W@@YA?AU__acrt_stdio_stream_mode@@QB_W@Z@4QB_WB 100126a4     libucrt:openfile.obj
 0001:000116b0       ?utf16_encoding@?1???$__acrt_stdio_parse_mode@_W@@YA?AU__acrt_stdio_stream_mode@@QB_W@Z@4QB_WB 100126b0     libucrt:openfile.obj
 0001:000116c0       ?unicode_encoding@?1???$__acrt_stdio_parse_mode@_W@@YA?AU__acrt_stdio_stream_mode@@QB_W@Z@4QB_WB 100126c0     libucrt:openfile.obj
 0001:000116e8       __sys_errlist              100126e8     libucrt:syserr.obj
 0001:00011798       ??_C@_08INEPGKHH@No?5error?$AA@ 10012798     libucrt:syserr.obj
 0001:000117a4       ??_C@_0BI@BJFCGOHL@Operation?5not?5permitted?$AA@ 100127a4     libucrt:syserr.obj
 0001:000117bc       ??_C@_0BK@FMDHKPNF@No?5such?5file?5or?5directory?$AA@ 100127bc     libucrt:syserr.obj
 0001:000117d8       ??_C@_0BA@FKIAIBGA@No?5such?5process?$AA@ 100127d8     libucrt:syserr.obj
 0001:000117e8       ??_C@_0BK@FJBOAFDK@Interrupted?5function?5call?$AA@ 100127e8     libucrt:syserr.obj
 0001:00011804       ??_C@_0BD@KKNFOBBD@Input?1output?5error?$AA@ 10012804     libucrt:syserr.obj
 0001:00011818       ??_C@_0BK@DPKMCKJ@No?5such?5device?5or?5address?$AA@ 10012818     libucrt:syserr.obj
 0001:00011834       ??_C@_0BC@MFFGCDFL@Arg?5list?5too?5long?$AA@ 10012834     libucrt:syserr.obj
 0001:00011848       ??_C@_0BC@HKPNECK@Exec?5format?5error?$AA@ 10012848     libucrt:syserr.obj
 0001:0001185c       ??_C@_0BE@NFGDDCEF@Bad?5file?5descriptor?$AA@ 1001285c     libucrt:syserr.obj
 0001:00011870       ??_C@_0BD@LOHELEP@No?5child?5processes?$AA@ 10012870     libucrt:syserr.obj
 0001:00011884       ??_C@_0CB@EPFKGNAK@Resource?5temporarily?5unavailable@ 10012884     libucrt:syserr.obj
 0001:000118a8       ??_C@_0BB@IMDKMPFB@Not?5enough?5space?$AA@ 100128a8     libucrt:syserr.obj
 0001:000118bc       ??_C@_0BC@HFNFNKAI@Permission?5denied?$AA@ 100128bc     libucrt:syserr.obj
 0001:000118d0       ??_C@_0M@LOEHLCJD@Bad?5address?$AA@ 100128d0     libucrt:syserr.obj
 0001:000118dc       ??_C@_0O@NIPGCINC@Unknown?5error?$AA@ 100128dc     libucrt:syserr.obj
 0001:000118ec       ??_C@_0BA@BIBLIOEK@Resource?5device?$AA@ 100128ec     libucrt:syserr.obj
 0001:000118fc       ??_C@_0M@NAAJNNGH@File?5exists?$AA@ 100128fc     libucrt:syserr.obj
 0001:00011908       ??_C@_0O@OAMDNOCP@Improper?5link?$AA@ 10012908     libucrt:syserr.obj
 0001:00011918       ??_C@_0P@NLEIANHE@No?5such?5device?$AA@ 10012918     libucrt:syserr.obj
 0001:00011928       ??_C@_0BA@CJBACOOL@Not?5a?5directory?$AA@ 10012928     libucrt:syserr.obj
 0001:00011938       ??_C@_0P@NDHGCGKE@Is?5a?5directory?$AA@ 10012938     libucrt:syserr.obj
 0001:00011948       ??_C@_0BB@HMGGCEBG@Invalid?5argument?$AA@ 10012948     libucrt:syserr.obj
 0001:0001195c       ??_C@_0BO@IIFBODJE@Too?5many?5open?5files?5in?5system?$AA@ 1001295c     libucrt:syserr.obj
 0001:0001197c       ??_C@_0BE@INBJMKGG@Too?5many?5open?5files?$AA@ 1001297c     libucrt:syserr.obj
 0001:00011990       ??_C@_0CE@ONOKNLPF@Inappropriate?5I?1O?5control?5operat@ 10012990     libucrt:syserr.obj
 0001:000119b4       ??_C@_0P@LFMMIPAE@File?5too?5large?$AA@ 100129b4     libucrt:syserr.obj
 0001:000119c4       ??_C@_0BI@FEALHKLD@No?5space?5left?5on?5device?$AA@ 100129c4     libucrt:syserr.obj
 0001:000119dc       ??_C@_0N@FEHLOILP@Invalid?5seek?$AA@ 100129dc     libucrt:syserr.obj
 0001:000119ec       ??_C@_0BG@DDBFNKBH@Read?9only?5file?5system?$AA@ 100129ec     libucrt:syserr.obj
 0001:00011a04       ??_C@_0P@PKCJJLLM@Too?5many?5links?$AA@ 10012a04     libucrt:syserr.obj
 0001:00011a14       ??_C@_0M@LHEPIIOM@Broken?5pipe?$AA@ 10012a14     libucrt:syserr.obj
 0001:00011a20       ??_C@_0N@MMJPGLJK@Domain?5error?$AA@ 10012a20     libucrt:syserr.obj
 0001:00011a30       ??_C@_0BB@FCBJFCAJ@Result?5too?5large?$AA@ 10012a30     libucrt:syserr.obj
 0001:00011a44       ??_C@_0BK@JAEBMJJM@Resource?5deadlock?5avoided?$AA@ 10012a44     libucrt:syserr.obj
 0001:00011a60       ??_C@_0BC@BEDIHIDK@Filename?5too?5long?$AA@ 10012a60     libucrt:syserr.obj
 0001:00011a74       ??_C@_0BD@CLHBCGPB@No?5locks?5available?$AA@ 10012a74     libucrt:syserr.obj
 0001:00011a88       ??_C@_0BJ@IHEHINLI@Function?5not?5implemented?$AA@ 10012a88     libucrt:syserr.obj
 0001:00011aa4       ??_C@_0BE@ICMCHPHH@Directory?5not?5empty?$AA@ 10012aa4     libucrt:syserr.obj
 0001:00011ab8       ??_C@_0BG@KLEAJEFJ@Illegal?5byte?5sequence?$AA@ 10012ab8     libucrt:syserr.obj
 0001:00011ad0       __sys_nerr                 10012ad0     libucrt:syserr.obj
 0001:00011b28       ??_C@_1EA@JGEFHKEI@?$AAa?$AAp?$AAi?$AA?9?$AAm?$AAs?$AA?9?$AAw?$AAi?$AAn?$AA?9?$AAc?$AAo?$AAr?$AAe?$AA?9?$AAd?$AAa?$AAt?$AAe?$AAt?$AAi?$AAm?$AAe?$AA?9?$AAl?$AA1?$AA?9?$AA1?$AA?9?$AA1?$AA?$AA@ 10012b28     libucrt:winapi_thunks.obj
 0001:00011b68       ??_C@_1DI@IJCEHOCB@?$AAa?$AAp?$AAi?$AA?9?$AAm?$AAs?$AA?9?$AAw?$AAi?$AAn?$AA?9?$AAc?$AAo?$AAr?$AAe?$AA?9?$AAf?$AAi?$AAl?$AAe?$AA?9?$AAl?$AA1?$AA?9?$AA2?$AA?9?$AA2?$AA?$AA@ 10012b68     libucrt:winapi_thunks.obj
 0001:00011ba0       ??_C@_1EI@MPIAOHOC@?$AAa?$AAp?$AAi?$AA?9?$AAm?$AAs?$AA?9?$AAw?$AAi?$AAn?$AA?9?$AAc?$AAo?$AAr?$AAe?$AA?9?$AAl?$AAo?$AAc?$AAa?$AAl?$AAi?$AAz?$AAa?$AAt?$AAi?$AAo?$AAn?$AA?9?$AAl?$AA1?$AA?9@ 10012ba0     libucrt:winapi_thunks.obj
 0001:00011be8       ??_C@_1FK@FPHCKFIE@?$AAa?$AAp?$AAi?$AA?9?$AAm?$AAs?$AA?9?$AAw?$AAi?$AAn?$AA?9?$AAc?$AAo?$AAr?$AAe?$AA?9?$AAl?$AAo?$AAc?$AAa?$AAl?$AAi?$AAz?$AAa?$AAt?$AAi?$AAo?$AAn?$AA?9?$AAo?$AAb?$AAs@ 10012be8     libucrt:winapi_thunks.obj
 0001:00011c48       ??_C@_1EM@DILCGIIO@?$AAa?$AAp?$AAi?$AA?9?$AAm?$AAs?$AA?9?$AAw?$AAi?$AAn?$AA?9?$AAc?$AAo?$AAr?$AAe?$AA?9?$AAp?$AAr?$AAo?$AAc?$AAe?$AAs?$AAs?$AAt?$AAh?$AAr?$AAe?$AAa?$AAd?$AAs?$AA?9?$AAl@ 10012c48     libucrt:winapi_thunks.obj
 0001:00011c94       ??_C@_1DM@LNCGDDPN@?$AAa?$AAp?$AAi?$AA?9?$AAm?$AAs?$AA?9?$AAw?$AAi?$AAn?$AA?9?$AAc?$AAo?$AAr?$AAe?$AA?9?$AAs?$AAt?$AAr?$AAi?$AAn?$AAg?$AA?9?$AAl?$AA1?$AA?9?$AA1?$AA?9?$AA0?$AA?$AA@ 10012c94     libucrt:winapi_thunks.obj
 0001:00011cd0       ??_C@_1DO@FPAPJEMD@?$AAa?$AAp?$AAi?$AA?9?$AAm?$AAs?$AA?9?$AAw?$AAi?$AAn?$AA?9?$AAc?$AAo?$AAr?$AAe?$AA?9?$AAs?$AAy?$AAs?$AAi?$AAn?$AAf?$AAo?$AA?9?$AAl?$AA1?$AA?9?$AA2?$AA?9?$AA1?$AA?$AA@ 10012cd0     libucrt:winapi_thunks.obj
 0001:00011d10       ??_C@_1DK@NDHNAHIO@?$AAa?$AAp?$AAi?$AA?9?$AAm?$AAs?$AA?9?$AAw?$AAi?$AAn?$AA?9?$AAc?$AAo?$AAr?$AAe?$AA?9?$AAw?$AAi?$AAn?$AAr?$AAt?$AA?9?$AAl?$AA1?$AA?9?$AA1?$AA?9?$AA0?$AA?$AA@ 10012d10     libucrt:winapi_thunks.obj
 0001:00011d4c       ??_C@_1DM@KGHDGBCM@?$AAa?$AAp?$AAi?$AA?9?$AAm?$AAs?$AA?9?$AAw?$AAi?$AAn?$AA?9?$AAc?$AAo?$AAr?$AAe?$AA?9?$AAx?$AAs?$AAt?$AAa?$AAt?$AAe?$AA?9?$AAl?$AA2?$AA?9?$AA1?$AA?9?$AA0?$AA?$AA@ 10012d4c     libucrt:winapi_thunks.obj
 0001:00011d88       ??_C@_1EO@IJIOEFOH@?$AAa?$AAp?$AAi?$AA?9?$AAm?$AAs?$AA?9?$AAw?$AAi?$AAn?$AA?9?$AAr?$AAt?$AAc?$AAo?$AAr?$AAe?$AA?9?$AAn?$AAt?$AAu?$AAs?$AAe?$AAr?$AA?9?$AAw?$AAi?$AAn?$AAd?$AAo?$AAw?$AA?9@ 10012d88     libucrt:winapi_thunks.obj
 0001:00011dd8       ??_C@_1FG@HHGEKANL@?$AAa?$AAp?$AAi?$AA?9?$AAm?$AAs?$AA?9?$AAw?$AAi?$AAn?$AA?9?$AAs?$AAe?$AAc?$AAu?$AAr?$AAi?$AAt?$AAy?$AA?9?$AAs?$AAy?$AAs?$AAt?$AAe?$AAm?$AAf?$AAu?$AAn?$AAc?$AAt?$AAi@ 10012dd8     libucrt:winapi_thunks.obj
 0001:00011e30       ??_C@_1EG@DBIOJECG@?$AAe?$AAx?$AAt?$AA?9?$AAm?$AAs?$AA?9?$AAw?$AAi?$AAn?$AA?9?$AAn?$AAt?$AAu?$AAs?$AAe?$AAr?$AA?9?$AAd?$AAi?$AAa?$AAl?$AAo?$AAg?$AAb?$AAo?$AAx?$AA?9?$AAl?$AA1?$AA?9?$AA1@ 10012e30     libucrt:winapi_thunks.obj
 0001:00011e78       ??_C@_1EO@FIHMJCLF@?$AAe?$AAx?$AAt?$AA?9?$AAm?$AAs?$AA?9?$AAw?$AAi?$AAn?$AA?9?$AAn?$AAt?$AAu?$AAs?$AAe?$AAr?$AA?9?$AAw?$AAi?$AAn?$AAd?$AAo?$AAw?$AAs?$AAt?$AAa?$AAt?$AAi?$AAo?$AAn?$AA?9@ 10012e78     libucrt:winapi_thunks.obj
 0001:00011ec8       ??_C@_1BC@DNHGCMLG@?$AAa?$AAd?$AAv?$AAa?$AAp?$AAi?$AA3?$AA2?$AA?$AA@ 10012ec8     libucrt:winapi_thunks.obj
 0001:00011edc       ??_C@_1M@OAIMIKLP@?$AAn?$AAt?$AAd?$AAl?$AAl?$AA?$AA@ 10012edc     libucrt:winapi_thunks.obj
 0001:00011ee8       ??_C@_1EG@DPGNFKGC@?$AAa?$AAp?$AAi?$AA?9?$AAm?$AAs?$AA?9?$AAw?$AAi?$AAn?$AA?9?$AAa?$AAp?$AAp?$AAm?$AAo?$AAd?$AAe?$AAl?$AA?9?$AAr?$AAu?$AAn?$AAt?$AAi?$AAm?$AAe?$AA?9?$AAl?$AA1?$AA?9?$AA1@ 10012ee8     libucrt:winapi_thunks.obj
 0001:00011f30       ??_C@_1O@BCCLBEOE@?$AAu?$AAs?$AAe?$AAr?$AA3?$AA2?$AA?$AA@ 10012f30     libucrt:winapi_thunks.obj
 0001:00011f44       ??_C@_0BA@FHFNEAED@AreFileApisANSI?$AA@ 10012f44     libucrt:winapi_thunks.obj
 0001:00011f5c       ??_C@_0BA@IHGNDAEB@CompareStringEx?$AA@ 10012f5c     libucrt:winapi_thunks.obj
 0001:00011f9c       ??_C@_0O@KKBNKAPF@LCMapStringEx?$AA@ 10012f9c     libucrt:winapi_thunks.obj
 0001:00011fb4       ??_C@_0BB@HBDEELFH@LocaleNameToLCID?$AA@ 10012fb4     libucrt:winapi_thunks.obj
 0001:00011fcc       ??_C@_0CF@OJOFEIGO@AppPolicyGetProcessTerminationMe@ 10012fcc     libucrt:winapi_thunks.obj
 0001:00011ff8       __wctype                   10012ff8     libucrt:ctype.obj
 0001:00012200       ___newctype                10013200     libucrt:ctype.obj
 0001:00012500       ___newclmap                10013500     libucrt:ctype.obj
 0001:00012680       ___newcumap                10013680     libucrt:ctype.obj
 0001:00012840       ??_C@_1M@HPNHIDJI@?$AAj?$AAa?$AA?9?$AAJ?$AAP?$AA?$AA@ 10013840     libucrt:mbctype.obj
 0001:0001284c       ??_C@_1M@BIBDDEMK@?$AAz?$AAh?$AA?9?$AAC?$AAN?$AA?$AA@ 1001384c     libucrt:mbctype.obj
 0001:00012858       ??_C@_1M@JLOOOEGK@?$AAk?$AAo?$AA?9?$AAK?$AAR?$AA?$AA@ 10013858     libucrt:mbctype.obj
 0001:00012864       ??_C@_1M@CLNBBOPM@?$AAz?$AAh?$AA?9?$AAT?$AAW?$AA?$AA@ 10013864     libucrt:mbctype.obj
 0001:00012870       ??_C@_05DNEBIAHO@1?$CDINF?$AA@ 10013870     libucrt:cfout.obj
 0001:00012878       ??_C@_06IMKFLFPG@1?$CDQNAN?$AA@ 10013878     libucrt:cfout.obj
 0001:00012880       ??_C@_06PGGFOGJG@1?$CDSNAN?$AA@ 10013880     libucrt:cfout.obj
 0001:00012888       ??_C@_05PHHOCPM@1?$CDIND?$AA@ 10013888     libucrt:cfout.obj
 0001:00012890       ??_C@_15PJPFLCCM@?$AAu?$AAk?$AA?$AA@ 10013890     libucrt:get_qualified_locale.obj
 0001:00012fb8       ??_C@_15EMKDOKLE@?$AAa?$AAr?$AA?$AA@ 10013fb8     libucrt:lcidtoname_downlevel.obj
 0001:00012fc0       ??_C@_15KNPADPLH@?$AAb?$AAg?$AA?$AA@ 10013fc0     libucrt:lcidtoname_downlevel.obj
 0001:00012fc8       ??_C@_15EDMHLDMO@?$AAc?$AAa?$AA?$AA@ 10013fc8     libucrt:lcidtoname_downlevel.obj
 0001:00012fd0       ??_C@_1O@BPEAJADD@?$AAz?$AAh?$AA?9?$AAC?$AAH?$AAS?$AA?$AA@ 10013fd0     libucrt:lcidtoname_downlevel.obj
 0001:00012fe0       ??_C@_15LJNHCMNK@?$AAc?$AAs?$AA?$AA@ 10013fe0     libucrt:lcidtoname_downlevel.obj
 0001:00012fe8       ??_C@_15FOMCIDHG@?$AAd?$AAa?$AA?$AA@ 10013fe8     libucrt:lcidtoname_downlevel.obj
 0001:00012ff0       ??_C@_15NBKABECB@?$AAd?$AAe?$AA?$AA@ 10013ff0     libucrt:lcidtoname_downlevel.obj
 0001:00012ff8       ??_C@_15GHPEIIAO@?$AAe?$AAl?$AA?$AA@ 10013ff8     libucrt:lcidtoname_downlevel.obj
 0001:00013000       ??_C@_15MNPNEAIF@?$AAe?$AAn?$AA?$AA@ 10014000     libucrt:lcidtoname_downlevel.obj
 0001:00013008       ??_C@_15GPIOMPMH@?$AAe?$AAs?$AA?$AA@ 10014008     libucrt:lcidtoname_downlevel.obj
 0001:00013010       ??_C@_15NGLOAKJC@?$AAf?$AAi?$AA?$AA@ 10014010     libucrt:lcidtoname_downlevel.obj
 0001:00013018       ??_C@_15FBKGNKAM@?$AAf?$AAr?$AA?$AA@ 10014018     libucrt:lcidtoname_downlevel.obj
 0001:00013020       ??_C@_15KGGCNEFK@?$AAh?$AAe?$AA?$AA@ 10014020     libucrt:lcidtoname_downlevel.obj
 0001:00013028       ??_C@_15PGHLIDMF@?$AAh?$AAu?$AA?$AA@ 10014028     libucrt:lcidtoname_downlevel.obj
 0001:00013030       ??_C@_15BIEMAPLM@?$AAi?$AAs?$AA?$AA@ 10014030     libucrt:lcidtoname_downlevel.obj
 0001:00013038       ??_C@_15IFJLDHAF@?$AAi?$AAt?$AA?$AA@ 10014038     libucrt:lcidtoname_downlevel.obj
 0001:00013040       ??_C@_15GEMIOCAG@?$AAj?$AAa?$AA?$AA@ 10014040     libucrt:lcidtoname_downlevel.obj
 0001:00013048       ??_C@_15EPELEGJA@?$AAk?$AAo?$AA?$AA@ 10014048     libucrt:lcidtoname_downlevel.obj
 0001:00013050       ??_C@_15NDDHIMN@?$AAn?$AAl?$AA?$AA@ 10014050     libucrt:lcidtoname_downlevel.obj
 0001:00013058       ??_C@_15BPIGNHCD@?$AAn?$AAo?$AA?$AA@ 10014058     libucrt:lcidtoname_downlevel.obj
 0001:00013060       ??_C@_15DEOPBLCG@?$AAp?$AAl?$AA?$AA@ 10014060     libucrt:lcidtoname_downlevel.obj
 0001:00013068       ??_C@_15KBECGEFG@?$AAp?$AAt?$AA?$AA@ 10014068     libucrt:lcidtoname_downlevel.obj
 0001:00013070       ??_C@_15GLJCBFMD@?$AAr?$AAo?$AA?$AA@ 10014070     libucrt:lcidtoname_downlevel.obj
 0001:00013078       ??_C@_15FEDGKCDI@?$AAr?$AAu?$AA?$AA@ 10014078     libucrt:lcidtoname_downlevel.obj
 0001:00013080       ??_C@_15GLKMLLHM@?$AAh?$AAr?$AA?$AA@ 10014080     libucrt:lcidtoname_downlevel.obj
 0001:00013088       ??_C@_15CPKMFBDB@?$AAs?$AAk?$AA?$AA@ 10014088     libucrt:lcidtoname_downlevel.obj
 0001:00013090       ??_C@_15BAAIOGMK@?$AAs?$AAq?$AA?$AA@ 10014090     libucrt:lcidtoname_downlevel.obj
 0001:00013098       ??_C@_15INNPNOHD@?$AAs?$AAv?$AA?$AA@ 10014098     libucrt:lcidtoname_downlevel.obj
 0001:000130a0       ??_C@_15CABMMOGH@?$AAt?$AAh?$AA?$AA@ 100140a0     libucrt:lcidtoname_downlevel.obj
 0001:000130a8       ??_C@_15BPLIHJJM@?$AAt?$AAr?$AA?$AA@ 100140a8     libucrt:lcidtoname_downlevel.obj
 0001:000130b0       ??_C@_15NEOEKKDJ@?$AAu?$AAr?$AA?$AA@ 100140b0     libucrt:lcidtoname_downlevel.obj
 0001:000130b8       ??_C@_15NFICGAJK@?$AAi?$AAd?$AA?$AA@ 100140b8     libucrt:lcidtoname_downlevel.obj
 0001:000130c0       ??_C@_15HPJPHDM@?$AAb?$AAe?$AA?$AA@ 100140c0     libucrt:lcidtoname_downlevel.obj
 0001:000130c8       ??_C@_15LCHLGJII@?$AAs?$AAl?$AA?$AA@ 100140c8     libucrt:lcidtoname_downlevel.obj
 0001:000130d0       ??_C@_15PCFJPHHO@?$AAe?$AAt?$AA?$AA@ 100140d0     libucrt:lcidtoname_downlevel.obj
 0001:000130d8       ??_C@_15HPFPGODN@?$AAl?$AAv?$AA?$AA@ 100140d8     libucrt:lcidtoname_downlevel.obj
 0001:000130e0       ??_C@_15NFFGKGLG@?$AAl?$AAt?$AA?$AA@ 100140e0     libucrt:lcidtoname_downlevel.obj
 0001:000130e8       ??_C@_15BDAKCCHN@?$AAf?$AAa?$AA?$AA@ 100140e8     libucrt:lcidtoname_downlevel.obj
 0001:000130f0       ??_C@_15NFGIAIAJ@?$AAv?$AAi?$AA?$AA@ 100140f0     libucrt:lcidtoname_downlevel.obj
 0001:000130f8       ??_C@_15LMKNDMHN@?$AAh?$AAy?$AA?$AA@ 100140f8     libucrt:lcidtoname_downlevel.obj
 0001:00013100       ??_C@_15IJBHMCFL@?$AAa?$AAz?$AA?$AA@ 10014100     libucrt:lcidtoname_downlevel.obj
 0001:00013108       ??_C@_15EKOFJABL@?$AAe?$AAu?$AA?$AA@ 10014108     libucrt:lcidtoname_downlevel.obj
 0001:00013110       ??_C@_15BGHADCNK@?$AAm?$AAk?$AA?$AA@ 10014110     libucrt:lcidtoname_downlevel.obj
 0001:00013118       ??_C@_15JDNICKHM@?$AAa?$AAf?$AA?$AA@ 10014118     libucrt:lcidtoname_downlevel.obj
 0001:00013120       ??_C@_15KPJEDBKD@?$AAk?$AAa?$AA?$AA@ 10014120     libucrt:lcidtoname_downlevel.obj
 0001:00013128       ??_C@_15PDNFFFEO@?$AAf?$AAo?$AA?$AA@ 10014128     libucrt:lcidtoname_downlevel.obj
 0001:00013130       ??_C@_15OMLEGLOC@?$AAh?$AAi?$AA?$AA@ 10014130     libucrt:lcidtoname_downlevel.obj
 0001:00013138       ??_C@_15IDNNENKK@?$AAm?$AAs?$AA?$AA@ 10014138     libucrt:lcidtoname_downlevel.obj
 0001:00013140       ??_C@_15MACJNBMH@?$AAk?$AAk?$AA?$AA@ 10014140     libucrt:lcidtoname_downlevel.obj
 0001:00013148       ??_C@_15DKDJEOND@?$AAk?$AAy?$AA?$AA@ 10014148     libucrt:lcidtoname_downlevel.obj
 0001:00013150       ??_C@_15DFGDLJBG@?$AAs?$AAw?$AA?$AA@ 10014150     libucrt:lcidtoname_downlevel.obj
 0001:00013158       ??_C@_15BBFAICNG@?$AAu?$AAz?$AA?$AA@ 10014158     libucrt:lcidtoname_downlevel.obj
 0001:00013160       ??_C@_15DKNDCGEA@?$AAt?$AAt?$AA?$AA@ 10014160     libucrt:lcidtoname_downlevel.obj
 0001:00013168       ??_C@_15MGIFMDPL@?$AAp?$AAa?$AA?$AA@ 10014168     libucrt:lcidtoname_downlevel.obj
 0001:00013170       ??_C@_15HCNDBBA@?$AAg?$AAu?$AA?$AA@ 10014170     libucrt:lcidtoname_downlevel.obj
 0001:00013178       ??_C@_15FNBEIBON@?$AAt?$AAa?$AA?$AA@ 10014178     libucrt:lcidtoname_downlevel.obj
 0001:00013180       ??_C@_15NCHGBGLK@?$AAt?$AAe?$AA?$AA@ 10014180     libucrt:lcidtoname_downlevel.obj
 0001:00013188       ??_C@_15PHPHCBPF@?$AAk?$AAn?$AA?$AA@ 10014188     libucrt:lcidtoname_downlevel.obj
 0001:00013190       ??_C@_15DLGBCKMP@?$AAm?$AAr?$AA?$AA@ 10014190     libucrt:lcidtoname_downlevel.obj
 0001:00013198       ??_C@_15EABBLBFF@?$AAs?$AAa?$AA?$AA@ 10014198     libucrt:lcidtoname_downlevel.obj
 0001:000131a0       ??_C@_15CBKOMCOI@?$AAm?$AAn?$AA?$AA@ 100141a0     libucrt:lcidtoname_downlevel.obj
 0001:000131a8       ??_C@_15CKDMCJAF@?$AAg?$AAl?$AA?$AA@ 100141a8     libucrt:lcidtoname_downlevel.obj
 0001:000131b0       ??_C@_17CNJFBPG@?$AAk?$AAo?$AAk?$AA?$AA@ 100141b0     libucrt:lcidtoname_downlevel.obj
 0001:000131b8       ??_C@_17FFBJICPL@?$AAs?$AAy?$AAr?$AA?$AA@ 100141b8     libucrt:lcidtoname_downlevel.obj
 0001:000131c0       ??_C@_17KPNDCPAF@?$AAd?$AAi?$AAv?$AA?$AA@ 100141c0     libucrt:lcidtoname_downlevel.obj
 0001:000131c8       ??_C@_1M@OKAHONE@?$AAa?$AAr?$AA?9?$AAS?$AAA?$AA?$AA@ 100141c8     libucrt:lcidtoname_downlevel.obj
 0001:000131d4       ??_C@_1M@FFFIGIGK@?$AAb?$AAg?$AA?9?$AAB?$AAG?$AA?$AA@ 100141d4     libucrt:lcidtoname_downlevel.obj
 0001:000131e0       ??_C@_1M@BJNKEDC@?$AAc?$AAa?$AA?9?$AAE?$AAS?$AA?$AA@ 100141e0     libucrt:lcidtoname_downlevel.obj
 0001:000131ec       ??_C@_1M@IJJHFJHA@?$AAc?$AAs?$AA?9?$AAC?$AAZ?$AA?$AA@ 100141ec     libucrt:lcidtoname_downlevel.obj
 0001:000131f8       ??_C@_1M@CLPEOBGI@?$AAd?$AAa?$AA?9?$AAD?$AAK?$AA?$AA@ 100141f8     libucrt:lcidtoname_downlevel.obj
 0001:00013204       ??_C@_1M@MCMADGCB@?$AAd?$AAe?$AA?9?$AAD?$AAE?$AA?$AA@ 10014204     libucrt:lcidtoname_downlevel.obj
 0001:00013210       ??_C@_1M@OOCKEMAM@?$AAe?$AAl?$AA?9?$AAG?$AAR?$AA?$AA@ 10014210     libucrt:lcidtoname_downlevel.obj
 0001:0001321c       ??_C@_1M@DDNJFGID@?$AAf?$AAi?$AA?9?$AAF?$AAI?$AA?$AA@ 1001421c     libucrt:lcidtoname_downlevel.obj
 0001:00013228       ??_C@_1M@GLIPPMAC@?$AAf?$AAr?$AA?9?$AAF?$AAR?$AA?$AA@ 10014228     libucrt:lcidtoname_downlevel.obj
 0001:00013234       ??_C@_1M@GFMCHPE@?$AAh?$AAe?$AA?9?$AAI?$AAL?$AA?$AA@ 10014234     libucrt:lcidtoname_downlevel.obj
 0001:00013240       ??_C@_1M@MHLPGNKM@?$AAh?$AAu?$AA?9?$AAH?$AAU?$AA?$AA@ 10014240     libucrt:lcidtoname_downlevel.obj
 0001:0001324c       ??_C@_1M@LPDDNNPN@?$AAi?$AAs?$AA?9?$AAI?$AAS?$AA?$AA@ 1001424c     libucrt:lcidtoname_downlevel.obj
 0001:00013258       ??_C@_1M@MADIPODN@?$AAi?$AAt?$AA?9?$AAI?$AAT?$AA?$AA@ 10014258     libucrt:lcidtoname_downlevel.obj
 0001:00013264       ??_C@_1M@IHBJJGG@?$AAn?$AAl?$AA?9?$AAN?$AAL?$AA?$AA@ 10014264     libucrt:lcidtoname_downlevel.obj
 0001:00013270       ??_C@_1M@EANAGDL@?$AAn?$AAb?$AA?9?$AAN?$AAO?$AA?$AA@ 10014270     libucrt:lcidtoname_downlevel.obj
 0001:0001327c       ??_C@_1M@NEIEMEGP@?$AAp?$AAl?$AA?9?$AAP?$AAL?$AA?$AA@ 1001427c     libucrt:lcidtoname_downlevel.obj
 0001:00013288       ??_C@_1M@BOCFIGEP@?$AAp?$AAt?$AA?9?$AAB?$AAR?$AA?$AA@ 10014288     libucrt:lcidtoname_downlevel.obj
 0001:00013294       ??_C@_1M@IMPFOPBG@?$AAr?$AAo?$AA?9?$AAR?$AAO?$AA?$AA@ 10014294     libucrt:lcidtoname_downlevel.obj
 0001:000132a0       ??_C@_1M@IDNNEJMM@?$AAr?$AAu?$AA?9?$AAR?$AAU?$AA?$AA@ 100142a0     libucrt:lcidtoname_downlevel.obj
 0001:000132ac       ??_C@_1M@LILEEOGM@?$AAh?$AAr?$AA?9?$AAH?$AAR?$AA?$AA@ 100142ac     libucrt:lcidtoname_downlevel.obj
 0001:000132b8       ??_C@_1M@FKIFEHPB@?$AAs?$AAk?$AA?9?$AAS?$AAK?$AA?$AA@ 100142b8     libucrt:lcidtoname_downlevel.obj
 0001:000132c4       ??_C@_1M@LJMAMNPJ@?$AAs?$AAq?$AA?9?$AAA?$AAL?$AA?$AA@ 100142c4     libucrt:lcidtoname_downlevel.obj
 0001:000132d0       ??_C@_1M@GIAKDKJK@?$AAs?$AAv?$AA?9?$AAS?$AAE?$AA?$AA@ 100142d0     libucrt:lcidtoname_downlevel.obj
 0001:000132dc       ??_C@_1M@MKJKIKCL@?$AAt?$AAh?$AA?9?$AAT?$AAH?$AA?$AA@ 100142dc     libucrt:lcidtoname_downlevel.obj
 0001:000132e8       ??_C@_1M@MFLCCMPB@?$AAt?$AAr?$AA?9?$AAT?$AAR?$AA?$AA@ 100142e8     libucrt:lcidtoname_downlevel.obj
 0001:000132f4       ??_C@_1M@OIJHDKJN@?$AAu?$AAr?$AA?9?$AAP?$AAK?$AA?$AA@ 100142f4     libucrt:lcidtoname_downlevel.obj
 0001:00013300       ??_C@_1M@LHIPCIEK@?$AAi?$AAd?$AA?9?$AAI?$AAD?$AA?$AA@ 10014300     libucrt:lcidtoname_downlevel.obj
 0001:0001330c       ??_C@_1M@MFMOBGI@?$AAu?$AAk?$AA?9?$AAU?$AAA?$AA?$AA@ 1001430c     libucrt:lcidtoname_downlevel.obj
 0001:00013318       ??_C@_1M@OBGLJIPL@?$AAb?$AAe?$AA?9?$AAB?$AAY?$AA?$AA@ 10014318     libucrt:lcidtoname_downlevel.obj
 0001:00013324       ??_C@_1M@BCFAJEAD@?$AAs?$AAl?$AA?9?$AAS?$AAI?$AA?$AA@ 10014324     libucrt:lcidtoname_downlevel.obj
 0001:00013330       ??_C@_1M@FKFFEDDN@?$AAe?$AAt?$AA?9?$AAE?$AAE?$AA?$AA@ 10014330     libucrt:lcidtoname_downlevel.obj
 0001:0001333c       ??_C@_1M@KGKKAACI@?$AAl?$AAv?$AA?9?$AAL?$AAV?$AA?$AA@ 1001433c     libucrt:lcidtoname_downlevel.obj
 0001:00013348       ??_C@_1M@IFGBIJO@?$AAl?$AAt?$AA?9?$AAL?$AAT?$AA?$AA@ 10014348     libucrt:lcidtoname_downlevel.obj
 0001:00013354       ??_C@_1M@FGEAHEDM@?$AAf?$AAa?$AA?9?$AAI?$AAR?$AA?$AA@ 10014354     libucrt:lcidtoname_downlevel.obj
 0001:00013360       ??_C@_1M@KBMAIBFN@?$AAv?$AAi?$AA?9?$AAV?$AAN?$AA?$AA@ 10014360     libucrt:lcidtoname_downlevel.obj
 0001:0001336c       ??_C@_1M@GPCBKDJK@?$AAh?$AAy?$AA?9?$AAA?$AAM?$AA?$AA@ 1001436c     libucrt:lcidtoname_downlevel.obj
 0001:00013378       ??_C@_1BG@BECMDDJB@?$AAa?$AAz?$AA?9?$AAA?$AAZ?$AA?9?$AAL?$AAa?$AAt?$AAn?$AA?$AA@ 10014378     libucrt:lcidtoname_downlevel.obj
 0001:00013390       ??_C@_1M@MAOFCAEA@?$AAe?$AAu?$AA?9?$AAE?$AAS?$AA?$AA@ 10014390     libucrt:lcidtoname_downlevel.obj
 0001:0001339c       ??_C@_1M@IGHABKPI@?$AAm?$AAk?$AA?9?$AAM?$AAK?$AA?$AA@ 1001439c     libucrt:lcidtoname_downlevel.obj
 0001:000133a8       ??_C@_1M@IAIGNEJG@?$AAt?$AAn?$AA?9?$AAZ?$AAA?$AA?$AA@ 100143a8     libucrt:lcidtoname_downlevel.obj
 0001:000133b4       ??_C@_1M@IIJCOJFA@?$AAx?$AAh?$AA?9?$AAZ?$AAA?$AA?$AA@ 100143b4     libucrt:lcidtoname_downlevel.obj
 0001:000133c0       ??_C@_1M@LGPJHNJH@?$AAz?$AAu?$AA?9?$AAZ?$AAA?$AA?$AA@ 100143c0     libucrt:lcidtoname_downlevel.obj
 0001:000133cc       ??_C@_1M@HOKAOIO@?$AAa?$AAf?$AA?9?$AAZ?$AAA?$AA?$AA@ 100143cc     libucrt:lcidtoname_downlevel.obj
 0001:000133d8       ??_C@_1M@DPCLHLIE@?$AAk?$AAa?$AA?9?$AAG?$AAE?$AA?$AA@ 100143d8     libucrt:lcidtoname_downlevel.obj
 0001:000133e4       ??_C@_1M@BLKMHJBI@?$AAf?$AAo?$AA?9?$AAF?$AAO?$AA?$AA@ 100143e4     libucrt:lcidtoname_downlevel.obj
 0001:000133f0       ??_C@_1M@LGGJAPPB@?$AAh?$AAi?$AA?9?$AAI?$AAN?$AA?$AA@ 100143f0     libucrt:lcidtoname_downlevel.obj
 0001:000133fc       ??_C@_1M@FIKPIHFE@?$AAm?$AAt?$AA?9?$AAM?$AAT?$AA?$AA@ 100143fc     libucrt:lcidtoname_downlevel.obj
 0001:00013408       ??_C@_1M@HEGGPBFA@?$AAs?$AAe?$AA?9?$AAN?$AAO?$AA?$AA@ 10014408     libucrt:lcidtoname_downlevel.obj
 0001:00013414       ??_C@_1M@EIBJEEPA@?$AAm?$AAs?$AA?9?$AAM?$AAY?$AA?$AA@ 10014414     libucrt:lcidtoname_downlevel.obj
 0001:00013420       ??_C@_1M@FHLBGMPP@?$AAk?$AAk?$AA?9?$AAK?$AAZ?$AA?$AA@ 10014420     libucrt:lcidtoname_downlevel.obj
 0001:0001342c       ??_C@_1M@NGJJLCGI@?$AAk?$AAy?$AA?9?$AAK?$AAG?$AA?$AA@ 1001442c     libucrt:lcidtoname_downlevel.obj
 0001:00013438       ??_C@_1M@GIENNBFC@?$AAs?$AAw?$AA?9?$AAK?$AAE?$AA?$AA@ 10014438     libucrt:lcidtoname_downlevel.obj
 0001:00013444       ??_C@_1BG@NDGMJIMJ@?$AAu?$AAz?$AA?9?$AAU?$AAZ?$AA?9?$AAL?$AAa?$AAt?$AAn?$AA?$AA@ 10014444     libucrt:lcidtoname_downlevel.obj
 0001:0001345c       ??_C@_1M@IDCCIHBC@?$AAt?$AAt?$AA?9?$AAR?$AAU?$AA?$AA@ 1001445c     libucrt:lcidtoname_downlevel.obj
 0001:00013468       ??_C@_1M@LOICPMOJ@?$AAb?$AAn?$AA?9?$AAI?$AAN?$AA?$AA@ 10014468     libucrt:lcidtoname_downlevel.obj
 0001:00013474       ??_C@_1M@KPKKNEAH@?$AAp?$AAa?$AA?9?$AAI?$AAN?$AA?$AA@ 10014474     libucrt:lcidtoname_downlevel.obj
 0001:00013480       ??_C@_1M@PJGPPBOG@?$AAg?$AAu?$AA?9?$AAI?$AAN?$AA?$AA@ 10014480     libucrt:lcidtoname_downlevel.obj
 0001:0001348c       ??_C@_1M@KMKMOPHI@?$AAt?$AAa?$AA?9?$AAI?$AAN?$AA?$AA@ 1001448c     libucrt:lcidtoname_downlevel.obj
 0001:00013498       ??_C@_1M@KFEHEPAC@?$AAt?$AAe?$AA?9?$AAI?$AAN?$AA?$AA@ 10014498     libucrt:lcidtoname_downlevel.obj
 0001:000134a4       ??_C@_1M@CDCLMGHI@?$AAk?$AAn?$AA?9?$AAI?$AAN?$AA?$AA@ 100144a4     libucrt:lcidtoname_downlevel.obj
 0001:000134b0       ??_C@_1M@MIODLDKF@?$AAm?$AAl?$AA?9?$AAI?$AAN?$AA?$AA@ 100144b0     libucrt:lcidtoname_downlevel.obj
 0001:000134bc       ??_C@_1M@PBIEACPO@?$AAm?$AAr?$AA?9?$AAI?$AAN?$AA?$AA@ 100144bc     libucrt:lcidtoname_downlevel.obj
 0001:000134c8       ??_C@_1M@NIDEAGPH@?$AAs?$AAa?$AA?9?$AAI?$AAN?$AA?$AA@ 100144c8     libucrt:lcidtoname_downlevel.obj
 0001:000134d4       ??_C@_1M@FHIHCBIO@?$AAm?$AAn?$AA?9?$AAM?$AAN?$AA?$AA@ 100144d4     libucrt:lcidtoname_downlevel.obj
 0001:000134e0       ??_C@_1M@JAIJPENP@?$AAc?$AAy?$AA?9?$AAG?$AAB?$AA?$AA@ 100144e0     libucrt:lcidtoname_downlevel.obj
 0001:000134ec       ??_C@_1M@PHGFBEPN@?$AAg?$AAl?$AA?9?$AAE?$AAS?$AA?$AA@ 100144ec     libucrt:lcidtoname_downlevel.obj
 0001:000134f8       ??_C@_1O@KPIPDNCP@?$AAk?$AAo?$AAk?$AA?9?$AAI?$AAN?$AA?$AA@ 100144f8     libucrt:lcidtoname_downlevel.obj
 0001:00013508       ??_C@_1O@KNHJLDJA@?$AAs?$AAy?$AAr?$AA?9?$AAS?$AAY?$AA?$AA@ 10014508     libucrt:lcidtoname_downlevel.obj
 0001:00013518       ??_C@_1O@MKEKBLAH@?$AAd?$AAi?$AAv?$AA?9?$AAM?$AAV?$AA?$AA@ 10014518     libucrt:lcidtoname_downlevel.obj
 0001:00013528       ??_C@_1O@OHDCKDDF@?$AAq?$AAu?$AAz?$AA?9?$AAB?$AAO?$AA?$AA@ 10014528     libucrt:lcidtoname_downlevel.obj
 0001:00013538       ??_C@_1M@LEPJNLFD@?$AAn?$AAs?$AA?9?$AAZ?$AAA?$AA?$AA@ 10014538     libucrt:lcidtoname_downlevel.obj
 0001:00013544       ??_C@_1M@OMLEIIJB@?$AAm?$AAi?$AA?9?$AAN?$AAZ?$AA?$AA@ 10014544     libucrt:lcidtoname_downlevel.obj
 0001:00013550       ??_C@_1M@PMPEAILG@?$AAa?$AAr?$AA?9?$AAI?$AAQ?$AA?$AA@ 10014550     libucrt:lcidtoname_downlevel.obj
 0001:0001355c       ??_C@_1M@CNKPNOEE@?$AAd?$AAe?$AA?9?$AAC?$AAH?$AA?$AA@ 1001455c     libucrt:lcidtoname_downlevel.obj
 0001:00013568       ??_C@_1M@LKMGMLKO@?$AAe?$AAn?$AA?9?$AAG?$AAB?$AA?$AA@ 10014568     libucrt:lcidtoname_downlevel.obj
 0001:00013574       ??_C@_1M@PGKJFFGL@?$AAe?$AAs?$AA?9?$AAM?$AAX?$AA?$AA@ 10014574     libucrt:lcidtoname_downlevel.obj
 0001:00013580       ??_C@_1M@DNNANBDC@?$AAf?$AAr?$AA?9?$AAB?$AAE?$AA?$AA@ 10014580     libucrt:lcidtoname_downlevel.obj
 0001:0001358c       ??_C@_1M@HLGMDFHM@?$AAi?$AAt?$AA?9?$AAC?$AAH?$AA?$AA@ 1001458c     libucrt:lcidtoname_downlevel.obj
 0001:00013598       ??_C@_1M@CLLBGJH@?$AAn?$AAl?$AA?9?$AAB?$AAE?$AA?$AA@ 10014598     libucrt:lcidtoname_downlevel.obj
 0001:000135a4       ??_C@_1M@BODBOGLF@?$AAn?$AAn?$AA?9?$AAN?$AAO?$AA?$AA@ 100145a4     libucrt:lcidtoname_downlevel.obj
 0001:000135b0       ??_C@_1M@HFFAHKAD@?$AAp?$AAt?$AA?9?$AAP?$AAT?$AA?$AA@ 100145b0     libucrt:lcidtoname_downlevel.obj
 0001:000135bc       ??_C@_1BG@LNOAKHIE@?$AAs?$AAr?$AA?9?$AAS?$AAP?$AA?9?$AAL?$AAa?$AAt?$AAn?$AA?$AA@ 100145bc     libucrt:lcidtoname_downlevel.obj
 0001:000135d4       ??_C@_1M@HBMHBGAK@?$AAs?$AAv?$AA?9?$AAF?$AAI?$AA?$AA@ 100145d4     libucrt:lcidtoname_downlevel.obj
 0001:000135e0       ??_C@_1BG@DGCJGJBE@?$AAa?$AAz?$AA?9?$AAA?$AAZ?$AA?9?$AAC?$AAy?$AAr?$AAl?$AA?$AA@ 100145e0     libucrt:lcidtoname_downlevel.obj
 0001:000135f8       ??_C@_1M@KEJDAAHB@?$AAs?$AAe?$AA?9?$AAS?$AAE?$AA?$AA@ 100145f8     libucrt:lcidtoname_downlevel.obj
 0001:00013604       ??_C@_1M@HEIBJJAD@?$AAm?$AAs?$AA?9?$AAB?$AAN?$AA?$AA@ 10014604     libucrt:lcidtoname_downlevel.obj
 0001:00013610       ??_C@_1BG@PBGJMCEM@?$AAu?$AAz?$AA?9?$AAU?$AAZ?$AA?9?$AAC?$AAy?$AAr?$AAl?$AA?$AA@ 10014610     libucrt:lcidtoname_downlevel.obj
 0001:00013628       ??_C@_1O@LAOBCMDF@?$AAq?$AAu?$AAz?$AA?9?$AAE?$AAC?$AA?$AA@ 10014628     libucrt:lcidtoname_downlevel.obj
 0001:00013638       ??_C@_1M@POEEMAIO@?$AAa?$AAr?$AA?9?$AAE?$AAG?$AA?$AA@ 10014638     libucrt:lcidtoname_downlevel.obj
 0001:00013644       ??_C@_1M@EFAKDEDL@?$AAz?$AAh?$AA?9?$AAH?$AAK?$AA?$AA@ 10014644     libucrt:lcidtoname_downlevel.obj
 0001:00013650       ??_C@_1M@HKKIJHGI@?$AAd?$AAe?$AA?9?$AAA?$AAT?$AA?$AA@ 10014650     libucrt:lcidtoname_downlevel.obj
 0001:0001365c       ??_C@_1M@KBFBEHJF@?$AAe?$AAn?$AA?9?$AAA?$AAU?$AA?$AA@ 1001465c     libucrt:lcidtoname_downlevel.obj
 0001:00013668       ??_C@_1M@MNPLFAAH@?$AAe?$AAs?$AA?9?$AAE?$AAS?$AA?$AA@ 10014668     libucrt:lcidtoname_downlevel.obj
 0001:00013674       ??_C@_1M@HJOOJFMA@?$AAf?$AAr?$AA?9?$AAC?$AAA?$AA?$AA@ 10014674     libucrt:lcidtoname_downlevel.obj
 0001:00013680       ??_C@_1BG@JPOFPNAB@?$AAs?$AAr?$AA?9?$AAS?$AAP?$AA?9?$AAC?$AAy?$AAr?$AAl?$AA?$AA@ 10014680     libucrt:lcidtoname_downlevel.obj
 0001:00013698       ??_C@_1M@LNFOCMOB@?$AAs?$AAe?$AA?9?$AAF?$AAI?$AA?$AA@ 10014698     libucrt:lcidtoname_downlevel.obj
 0001:000136a4       ??_C@_1O@MGJBOAMB@?$AAq?$AAu?$AAz?$AA?9?$AAP?$AAE?$AA?$AA@ 100146a4     libucrt:lcidtoname_downlevel.obj
 0001:000136b4       ??_C@_1M@GJINLBOK@?$AAa?$AAr?$AA?9?$AAL?$AAY?$AA?$AA@ 100146b4     libucrt:lcidtoname_downlevel.obj
 0001:000136c0       ??_C@_1M@GGMNHJNL@?$AAz?$AAh?$AA?9?$AAS?$AAG?$AA?$AA@ 100146c0     libucrt:lcidtoname_downlevel.obj
 0001:000136cc       ??_C@_1M@HOIKODND@?$AAd?$AAe?$AA?9?$AAL?$AAU?$AA?$AA@ 100146cc     libucrt:lcidtoname_downlevel.obj
 0001:000136d8       ??_C@_1M@DDOCCGFG@?$AAe?$AAn?$AA?9?$AAC?$AAA?$AA?$AA@ 100146d8     libucrt:lcidtoname_downlevel.obj
 0001:000136e4       ??_C@_1M@BNOEMJLF@?$AAe?$AAs?$AA?9?$AAG?$AAT?$AA?$AA@ 100146e4     libucrt:lcidtoname_downlevel.obj
 0001:000136f0       ??_C@_1M@EOGNKEK@?$AAf?$AAr?$AA?9?$AAC?$AAH?$AA?$AA@ 100146f0     libucrt:lcidtoname_downlevel.obj
 0001:000136fc       ??_C@_1M@FLIDJFHL@?$AAh?$AAr?$AA?9?$AAB?$AAA?$AA?$AA@ 100146fc     libucrt:lcidtoname_downlevel.obj
 0001:00013708       ??_C@_1O@FMCELNAJ@?$AAs?$AAm?$AAj?$AA?9?$AAN?$AAO?$AA?$AA@ 10014708     libucrt:lcidtoname_downlevel.obj
 0001:00013718       ??_C@_1M@JHGLJMGJ@?$AAa?$AAr?$AA?9?$AAD?$AAZ?$AA?$AA@ 10014718     libucrt:lcidtoname_downlevel.obj
 0001:00013724       ??_C@_1M@JKKFDCNP@?$AAz?$AAh?$AA?9?$AAM?$AAO?$AA?$AA@ 10014724     libucrt:lcidtoname_downlevel.obj
 0001:00013730       ??_C@_1M@GEEFALPE@?$AAd?$AAe?$AA?9?$AAL?$AAI?$AA?$AA@ 10014730     libucrt:lcidtoname_downlevel.obj
 0001:0001373c       ??_C@_1M@IGEOFBG@?$AAe?$AAn?$AA?9?$AAN?$AAZ?$AA?$AA@ 1001473c     libucrt:lcidtoname_downlevel.obj
 0001:00013748       ??_C@_1M@KDBONEHP@?$AAe?$AAs?$AA?9?$AAC?$AAR?$AA?$AA@ 10014748     libucrt:lcidtoname_downlevel.obj
 0001:00013754       ??_C@_1M@FHMDOHNN@?$AAf?$AAr?$AA?9?$AAL?$AAU?$AA?$AA@ 10014754     libucrt:lcidtoname_downlevel.obj
 0001:00013760       ??_C@_1BG@NFKKMAFG@?$AAb?$AAs?$AA?9?$AAB?$AAA?$AA?9?$AAL?$AAa?$AAt?$AAn?$AA?$AA@ 10014760     libucrt:lcidtoname_downlevel.obj
 0001:00013778       ??_C@_1O@IMNBEMCI@?$AAs?$AAm?$AAj?$AA?9?$AAS?$AAE?$AA?$AA@ 10014778     libucrt:lcidtoname_downlevel.obj
 0001:00013788       ??_C@_1M@DHHMBNDP@?$AAa?$AAr?$AA?9?$AAM?$AAA?$AA?$AA@ 10014788     libucrt:lcidtoname_downlevel.obj
 0001:00013794       ??_C@_1M@BNBLJCGH@?$AAe?$AAn?$AA?9?$AAI?$AAE?$AA?$AA@ 10014794     libucrt:lcidtoname_downlevel.obj
 0001:000137a0       ??_C@_1M@GEPAFMDL@?$AAe?$AAs?$AA?9?$AAP?$AAA?$AA?$AA@ 100147a0     libucrt:lcidtoname_downlevel.obj
 0001:000137ac       ??_C@_1M@OJONDMDL@?$AAf?$AAr?$AA?9?$AAM?$AAC?$AA?$AA@ 100147ac     libucrt:lcidtoname_downlevel.obj
 0001:000137b8       ??_C@_1BG@OBCNFJB@?$AAs?$AAr?$AA?9?$AAB?$AAA?$AA?9?$AAL?$AAa?$AAt?$AAn?$AA?$AA@ 100147b8     libucrt:lcidtoname_downlevel.obj
 0001:000137d0       ??_C@_1O@KEMEEGPO@?$AAs?$AAm?$AAa?$AA?9?$AAN?$AAO?$AA?$AA@ 100147d0     libucrt:lcidtoname_downlevel.obj
 0001:000137e0       ??_C@_1M@ELMGFODK@?$AAa?$AAr?$AA?9?$AAT?$AAN?$AA?$AA@ 100147e0     libucrt:lcidtoname_downlevel.obj
 0001:000137ec       ??_C@_1M@BHDLHFAF@?$AAe?$AAn?$AA?9?$AAZ?$AAA?$AA?$AA@ 100147ec     libucrt:lcidtoname_downlevel.obj
 0001:000137f8       ??_C@_1M@BMGIGLIF@?$AAe?$AAs?$AA?9?$AAD?$AAO?$AA?$AA@ 100147f8     libucrt:lcidtoname_downlevel.obj
 0001:00013804       ??_C@_1BG@CMBHIPBE@?$AAs?$AAr?$AA?9?$AAB?$AAA?$AA?9?$AAC?$AAy?$AAr?$AAl?$AA?$AA@ 10014804     libucrt:lcidtoname_downlevel.obj
 0001:0001381c       ??_C@_1O@HEDBLHNP@?$AAs?$AAm?$AAa?$AA?9?$AAS?$AAE?$AA?$AA@ 1001481c     libucrt:lcidtoname_downlevel.obj
 0001:0001382c       ??_C@_1M@DAGCADIM@?$AAa?$AAr?$AA?9?$AAO?$AAM?$AA?$AA@ 1001482c     libucrt:lcidtoname_downlevel.obj
 0001:00013838       ??_C@_1M@FODLMICG@?$AAe?$AAn?$AA?9?$AAJ?$AAM?$AA?$AA@ 10014838     libucrt:lcidtoname_downlevel.obj
 0001:00013844       ??_C@_1M@DNMLCIHB@?$AAe?$AAs?$AA?9?$AAV?$AAE?$AA?$AA@ 10014844     libucrt:lcidtoname_downlevel.obj
 0001:00013850       ??_C@_1O@EOKHMKJK@?$AAs?$AAm?$AAs?$AA?9?$AAF?$AAI?$AA?$AA@ 10014850     libucrt:lcidtoname_downlevel.obj
 0001:00013860       ??_C@_1M@CAFJMKOF@?$AAa?$AAr?$AA?9?$AAY?$AAE?$AA?$AA@ 10014860     libucrt:lcidtoname_downlevel.obj
 0001:0001386c       ??_C@_1M@CBFHIJLI@?$AAe?$AAn?$AA?9?$AAC?$AAB?$AA?$AA@ 1001486c     libucrt:lcidtoname_downlevel.obj
 0001:00013878       ??_C@_1M@BGNFLDN@?$AAe?$AAs?$AA?9?$AAC?$AAO?$AA?$AA@ 10014878     libucrt:lcidtoname_downlevel.obj
 0001:00013884       ??_C@_1O@JMPHMAMC@?$AAs?$AAm?$AAn?$AA?9?$AAF?$AAI?$AA?$AA@ 10014884     libucrt:lcidtoname_downlevel.obj
 0001:00013894       ??_C@_1M@JLANABKE@?$AAa?$AAr?$AA?9?$AAS?$AAY?$AA?$AA@ 10014894     libucrt:lcidtoname_downlevel.obj
 0001:000138a0       ??_C@_1M@HPKGCFGN@?$AAe?$AAn?$AA?9?$AAB?$AAZ?$AA?$AA@ 100148a0     libucrt:lcidtoname_downlevel.obj
 0001:000138ac       ??_C@_1M@OLJCMLGM@?$AAe?$AAs?$AA?9?$AAP?$AAE?$AA?$AA@ 100148ac     libucrt:lcidtoname_downlevel.obj
 0001:000138b8       ??_C@_1M@MKKGFKLE@?$AAa?$AAr?$AA?9?$AAJ?$AAO?$AA?$AA@ 100148b8     libucrt:lcidtoname_downlevel.obj
 0001:000138c4       ??_C@_1M@EKPGLDNI@?$AAe?$AAn?$AA?9?$AAT?$AAT?$AA?$AA@ 100148c4     libucrt:lcidtoname_downlevel.obj
 0001:000138d0       ??_C@_1M@OONGHFHE@?$AAe?$AAs?$AA?9?$AAA?$AAR?$AA?$AA@ 100148d0     libucrt:lcidtoname_downlevel.obj
 0001:000138dc       ??_C@_1M@OOJFGBHE@?$AAa?$AAr?$AA?9?$AAL?$AAB?$AA?$AA@ 100148dc     libucrt:lcidtoname_downlevel.obj
 0001:000138e8       ??_C@_1M@GCEJHNEG@?$AAe?$AAn?$AA?9?$AAZ?$AAW?$AA?$AA@ 100148e8     libucrt:lcidtoname_downlevel.obj
 0001:000138f4       ??_C@_1M@JNOCAHJI@?$AAe?$AAs?$AA?9?$AAE?$AAC?$AA?$AA@ 100148f4     libucrt:lcidtoname_downlevel.obj
 0001:00013900       ??_C@_1M@JEFHPGGB@?$AAa?$AAr?$AA?9?$AAK?$AAW?$AA?$AA@ 10014900     libucrt:lcidtoname_downlevel.obj
 0001:0001390c       ??_C@_1M@MLKIBJOJ@?$AAe?$AAn?$AA?9?$AAP?$AAH?$AA?$AA@ 1001490c     libucrt:lcidtoname_downlevel.obj
 0001:00013918       ??_C@_1M@BDNIPEND@?$AAe?$AAs?$AA?9?$AAC?$AAL?$AA?$AA@ 10014918     libucrt:lcidtoname_downlevel.obj
 0001:00013924       ??_C@_1M@MPNMEKBD@?$AAa?$AAr?$AA?9?$AAA?$AAE?$AA?$AA@ 10014924     libucrt:lcidtoname_downlevel.obj
 0001:00013930       ??_C@_1M@KBJALCPI@?$AAe?$AAs?$AA?9?$AAU?$AAY?$AA?$AA@ 10014930     libucrt:lcidtoname_downlevel.obj
 0001:0001393c       ??_C@_1M@LLCCOAGA@?$AAa?$AAr?$AA?9?$AAB?$AAH?$AA?$AA@ 1001493c     libucrt:lcidtoname_downlevel.obj
 0001:00013948       ??_C@_1M@PBFNCDEL@?$AAe?$AAs?$AA?9?$AAP?$AAY?$AA?$AA@ 10014948     libucrt:lcidtoname_downlevel.obj
 0001:00013954       ??_C@_1M@EDGINPNP@?$AAa?$AAr?$AA?9?$AAQ?$AAA?$AA?$AA@ 10014954     libucrt:lcidtoname_downlevel.obj
 0001:00013960       ??_C@_1M@MKDBIIJI@?$AAe?$AAs?$AA?9?$AAB?$AAO?$AA?$AA@ 10014960     libucrt:lcidtoname_downlevel.obj
 0001:0001396c       ??_C@_1M@CPKKEBLD@?$AAe?$AAs?$AA?9?$AAS?$AAV?$AA?$AA@ 1001496c     libucrt:lcidtoname_downlevel.obj
 0001:00013978       ??_C@_1M@NDBGMMJL@?$AAe?$AAs?$AA?9?$AAH?$AAN?$AA?$AA@ 10014978     libucrt:lcidtoname_downlevel.obj
 0001:00013984       ??_C@_1M@JIJIBHDP@?$AAe?$AAs?$AA?9?$AAN?$AAI?$AA?$AA@ 10014984     libucrt:lcidtoname_downlevel.obj
 0001:00013990       ??_C@_1M@CGFMKEEK@?$AAe?$AAs?$AA?9?$AAP?$AAR?$AA?$AA@ 10014990     libucrt:lcidtoname_downlevel.obj
 0001:0001399c       ??_C@_1O@ICJHKIIK@?$AAz?$AAh?$AA?9?$AAC?$AAH?$AAT?$AA?$AA@ 1001499c     libucrt:lcidtoname_downlevel.obj
 0001:000139ac       ??_C@_15CLNEJCE@?$AAs?$AAr?$AA?$AA@ 100149ac     libucrt:lcidtoname_downlevel.obj
 0001:000140d8       ??_C@_1M@KAHEKEIG@?$AAa?$AAf?$AA?9?$AAz?$AAa?$AA?$AA@ 100150d8     libucrt:lcidtoname_downlevel.obj
 0001:000140e4       ??_C@_1M@GIECOABL@?$AAa?$AAr?$AA?9?$AAa?$AAe?$AA?$AA@ 100150e4     libucrt:lcidtoname_downlevel.obj
 0001:000140f0       ??_C@_1M@BMLMEKGI@?$AAa?$AAr?$AA?9?$AAb?$AAh?$AA?$AA@ 100150f0     libucrt:lcidtoname_downlevel.obj
 0001:000140fc       ??_C@_1M@DAPFDGGB@?$AAa?$AAr?$AA?9?$AAd?$AAz?$AA?$AA@ 100150fc     libucrt:lcidtoname_downlevel.obj
 0001:00014108       ??_C@_1M@FJNKGKIG@?$AAa?$AAr?$AA?9?$AAe?$AAg?$AA?$AA@ 10015108     libucrt:lcidtoname_downlevel.obj
 0001:00014114       ??_C@_1M@FLGKKCLO@?$AAa?$AAr?$AA?9?$AAi?$AAq?$AA?$AA@ 10015114     libucrt:lcidtoname_downlevel.obj
 0001:00014120       ??_C@_1M@GNDIPALM@?$AAa?$AAr?$AA?9?$AAj?$AAo?$AA?$AA@ 10015120     libucrt:lcidtoname_downlevel.obj
 0001:0001412c       ??_C@_1M@DDMJFMGJ@?$AAa?$AAr?$AA?9?$AAk?$AAw?$AA?$AA@ 1001512c     libucrt:lcidtoname_downlevel.obj
 0001:00014138       ??_C@_1M@EJALMLHM@?$AAa?$AAr?$AA?9?$AAl?$AAb?$AA?$AA@ 10015138     libucrt:lcidtoname_downlevel.obj
 0001:00014144       ??_C@_1M@MOBDBLOC@?$AAa?$AAr?$AA?9?$AAl?$AAy?$AA?$AA@ 10015144     libucrt:lcidtoname_downlevel.obj
 0001:00014150       ??_C@_1M@JAOCLHDH@?$AAa?$AAr?$AA?9?$AAm?$AAa?$AA?$AA@ 10015150     libucrt:lcidtoname_downlevel.obj
 0001:0001415c       ??_C@_1M@JHPMKJIE@?$AAa?$AAr?$AA?9?$AAo?$AAm?$AA?$AA@ 1001515c     libucrt:lcidtoname_downlevel.obj
 0001:00014168       ??_C@_1M@OEPGHFNH@?$AAa?$AAr?$AA?9?$AAq?$AAa?$AA?$AA@ 10015168     libucrt:lcidtoname_downlevel.obj
 0001:00014174       ??_C@_1M@KJDONENM@?$AAa?$AAr?$AA?9?$AAs?$AAa?$AA?$AA@ 10015174     libucrt:lcidtoname_downlevel.obj
 0001:00014180       ??_C@_1M@DMJDKLKM@?$AAa?$AAr?$AA?9?$AAs?$AAy?$AA?$AA@ 10015180     libucrt:lcidtoname_downlevel.obj
 0001:0001418c       ??_C@_1M@OMFIPEDC@?$AAa?$AAr?$AA?9?$AAt?$AAn?$AA?$AA@ 1001518c     libucrt:lcidtoname_downlevel.obj
 0001:00014198       ??_C@_1M@IHMHGAON@?$AAa?$AAr?$AA?9?$AAy?$AAe?$AA?$AA@ 10015198     libucrt:lcidtoname_downlevel.obj
 0001:000141a4       ??_C@_1BG@KDCPGJGB@?$AAa?$AAz?$AA?9?$AAa?$AAz?$AA?9?$AAc?$AAy?$AAr?$AAl?$AA?$AA@ 100151a4     libucrt:lcidtoname_downlevel.obj
 0001:000141bc       ??_C@_1BG@IBCKDDOE@?$AAa?$AAz?$AA?9?$AAa?$AAz?$AA?9?$AAl?$AAa?$AAt?$AAn?$AA?$AA@ 100151bc     libucrt:lcidtoname_downlevel.obj
 0001:000141d4       ??_C@_1M@EGPFDCPD@?$AAb?$AAe?$AA?9?$AAb?$AAy?$AA?$AA@ 100151d4     libucrt:lcidtoname_downlevel.obj
 0001:000141e0       ??_C@_1M@PCMGMCGC@?$AAb?$AAg?$AA?9?$AAb?$AAg?$AA?$AA@ 100151e0     libucrt:lcidtoname_downlevel.obj
 0001:000141ec       ??_C@_1M@BJBMFGOB@?$AAb?$AAn?$AA?9?$AAi?$AAn?$AA?$AA@ 100151ec     libucrt:lcidtoname_downlevel.obj
 0001:000141f8       ??_C@_1BG@EAKMMACD@?$AAb?$AAs?$AA?9?$AAb?$AAa?$AA?9?$AAl?$AAa?$AAt?$AAn?$AA?$AA@ 100151f8     libucrt:lcidtoname_downlevel.obj
 0001:00014210       ??_C@_1M@KGADAODK@?$AAc?$AAa?$AA?9?$AAe?$AAs?$AA?$AA@ 10015210     libucrt:lcidtoname_downlevel.obj
 0001:0001421c       ??_C@_1M@COAJPDHI@?$AAc?$AAs?$AA?9?$AAc?$AAz?$AA?$AA@ 1001521c     libucrt:lcidtoname_downlevel.obj
 0001:00014228       ??_C@_1M@DHBHFONH@?$AAc?$AAy?$AA?9?$AAg?$AAb?$AA?$AA@ 10015228     libucrt:lcidtoname_downlevel.obj
 0001:00014234       ??_C@_1M@IMGKELGA@?$AAd?$AAa?$AA?9?$AAd?$AAk?$AA?$AA@ 10015234     libucrt:lcidtoname_downlevel.obj
 0001:00014240       ??_C@_1M@NNDGDNGA@?$AAd?$AAe?$AA?9?$AAa?$AAt?$AA?$AA@ 10015240     libucrt:lcidtoname_downlevel.obj
 0001:0001424c       ??_C@_1M@IKDBHEEM@?$AAd?$AAe?$AA?9?$AAc?$AAh?$AA?$AA@ 1001524c     libucrt:lcidtoname_downlevel.obj
 0001:00014258       ??_C@_1M@GFFOJMCJ@?$AAd?$AAe?$AA?9?$AAd?$AAe?$AA?$AA@ 10015258     libucrt:lcidtoname_downlevel.obj
 0001:00014264       ??_C@_1M@MDNLKBPM@?$AAd?$AAe?$AA?9?$AAl?$AAi?$AA?$AA@ 10015264     libucrt:lcidtoname_downlevel.obj
 0001:00014270       ??_C@_1M@NJBEEJNL@?$AAd?$AAe?$AA?9?$AAl?$AAu?$AA?$AA@ 10015270     libucrt:lcidtoname_downlevel.obj
 0001:0001427c       ??_C@_1O@GNNELBAP@?$AAd?$AAi?$AAv?$AA?9?$AAm?$AAv?$AA?$AA@ 1001527c     libucrt:lcidtoname_downlevel.obj
 0001:0001428c       ??_C@_1M@EJLEOGAE@?$AAe?$AAl?$AA?9?$AAg?$AAr?$AA?$AA@ 1001528c     libucrt:lcidtoname_downlevel.obj
 0001:00014298       ??_C@_1M@GMPONJN@?$AAe?$AAn?$AA?9?$AAa?$AAu?$AA?$AA@ 10015298     libucrt:lcidtoname_downlevel.obj
 0001:000142a4       ??_C@_1M@NIDIIPGF@?$AAe?$AAn?$AA?9?$AAb?$AAz?$AA?$AA@ 100152a4     libucrt:lcidtoname_downlevel.obj
 0001:000142b0       ??_C@_1M@JEHMIMFO@?$AAe?$AAn?$AA?9?$AAc?$AAa?$AA?$AA@ 100152b0     libucrt:lcidtoname_downlevel.obj
 0001:000142bc       ??_C@_1M@IGMJCDLA@?$AAe?$AAn?$AA?9?$AAc?$AAb?$AA?$AA@ 100152bc     libucrt:lcidtoname_downlevel.obj
 0001:000142c8       ??_C@_1M@BNFIGBKG@?$AAe?$AAn?$AA?9?$AAg?$AAb?$AA?$AA@ 100152c8     libucrt:lcidtoname_downlevel.obj
 0001:000142d4       ??_C@_1M@LKIFDIGP@?$AAe?$AAn?$AA?9?$AAi?$AAe?$AA?$AA@ 100152d4     libucrt:lcidtoname_downlevel.obj
 0001:000142e0       ??_C@_1M@PJKFGCCO@?$AAe?$AAn?$AA?9?$AAj?$AAm?$AA?$AA@ 100152e0     libucrt:lcidtoname_downlevel.obj
 0001:000142ec       ??_C@_1M@KPPKEPBO@?$AAe?$AAn?$AA?9?$AAn?$AAz?$AA?$AA@ 100152ec     libucrt:lcidtoname_downlevel.obj
 0001:000142f8       ??_C@_1M@GMDGLDOB@?$AAe?$AAn?$AA?9?$AAp?$AAh?$AA?$AA@ 100152f8     libucrt:lcidtoname_downlevel.obj
 0001:00014304       ??_C@_1M@ONGIBJNA@?$AAe?$AAn?$AA?9?$AAt?$AAt?$AA?$AA@ 10015304     libucrt:lcidtoname_downlevel.obj
 0001:00014310       ??_C@_1M@LLODPCMM@?$AAe?$AAn?$AA?9?$AAu?$AAs?$AA?$AA@ 10015310     libucrt:lcidtoname_downlevel.obj
 0001:0001431c       ??_C@_1M@LAKFNPAN@?$AAe?$AAn?$AA?9?$AAz?$AAa?$AA?$AA@ 1001531c     libucrt:lcidtoname_downlevel.obj
 0001:00014328       ??_C@_1M@MFNHNHEO@?$AAe?$AAn?$AA?9?$AAz?$AAw?$AA?$AA@ 10015328     libucrt:lcidtoname_downlevel.obj
 0001:00014334       ??_C@_1M@EJEINPHM@?$AAe?$AAs?$AA?9?$AAa?$AAr?$AA?$AA@ 10015334     libucrt:lcidtoname_downlevel.obj
 0001:00014340       ??_C@_1M@GNKPCCJA@?$AAe?$AAs?$AA?9?$AAb?$AAo?$AA?$AA@ 10015340     libucrt:lcidtoname_downlevel.obj
 0001:0001434c       ??_C@_1M@LEEGFONL@?$AAe?$AAs?$AA?9?$AAc?$AAl?$AA?$AA@ 1001534c     libucrt:lcidtoname_downlevel.obj
 0001:00014358       ??_C@_1M@KGPDPBDF@?$AAe?$AAs?$AA?9?$AAc?$AAo?$AA?$AA@ 10015358     libucrt:lcidtoname_downlevel.obj
 0001:00014364       ??_C@_1M@EIAHOHH@?$AAe?$AAs?$AA?9?$AAc?$AAr?$AA?$AA@ 10015364     libucrt:lcidtoname_downlevel.obj
 0001:00014370       ??_C@_1M@LLPGMBIN@?$AAe?$AAs?$AA?9?$AAd?$AAo?$AA?$AA@ 10015370     libucrt:lcidtoname_downlevel.obj
 0001:0001437c       ??_C@_1M@DKHMKNJA@?$AAe?$AAs?$AA?9?$AAe?$AAc?$AA?$AA@ 1001537c     libucrt:lcidtoname_downlevel.obj
 0001:00014388       ??_C@_1M@GKGFPKAP@?$AAe?$AAs?$AA?9?$AAe?$AAs?$AA?$AA@ 10015388     libucrt:lcidtoname_downlevel.obj
 0001:00014394       ??_C@_1M@LKHKGDLN@?$AAe?$AAs?$AA?9?$AAg?$AAt?$AA?$AA@ 10015394     libucrt:lcidtoname_downlevel.obj
 0001:000143a0       ??_C@_1M@HEIIGGJD@?$AAe?$AAs?$AA?9?$AAh?$AAn?$AA?$AA@ 100153a0     libucrt:lcidtoname_downlevel.obj
 0001:000143ac       ??_C@_1M@FBDHPPGD@?$AAe?$AAs?$AA?9?$AAm?$AAx?$AA?$AA@ 100153ac     libucrt:lcidtoname_downlevel.obj
 0001:000143b8       ??_C@_1M@DPAGLNDH@?$AAe?$AAs?$AA?9?$AAn?$AAi?$AA?$AA@ 100153b8     libucrt:lcidtoname_downlevel.obj
 0001:000143c4       ??_C@_1M@MDGOPGDD@?$AAe?$AAs?$AA?9?$AAp?$AAa?$AA?$AA@ 100153c4     libucrt:lcidtoname_downlevel.obj
 0001:000143d0       ??_C@_1M@EMAMGBGE@?$AAe?$AAs?$AA?9?$AAp?$AAe?$AA?$AA@ 100153d0     libucrt:lcidtoname_downlevel.obj
 0001:000143dc       ??_C@_1M@IBMCAOEC@?$AAe?$AAs?$AA?9?$AAp?$AAr?$AA?$AA@ 100153dc     libucrt:lcidtoname_downlevel.obj
 0001:000143e8       ??_C@_1M@FGMDIJED@?$AAe?$AAs?$AA?9?$AAp?$AAy?$AA?$AA@ 100153e8     libucrt:lcidtoname_downlevel.obj
 0001:000143f4       ??_C@_1M@IIDEOLLL@?$AAe?$AAs?$AA?9?$AAs?$AAv?$AA?$AA@ 100153f4     libucrt:lcidtoname_downlevel.obj
 0001:00014400       ??_C@_1M@GAOBIPA@?$AAe?$AAs?$AA?9?$AAu?$AAy?$AA?$AA@ 10015400     libucrt:lcidtoname_downlevel.obj
 0001:0001440c       ??_C@_1M@JKFFICHJ@?$AAe?$AAs?$AA?9?$AAv?$AAe?$AA?$AA@ 1001540c     libucrt:lcidtoname_downlevel.obj
 0001:00014418       ??_C@_1M@PNMLOJDF@?$AAe?$AAt?$AA?9?$AAe?$AAe?$AA?$AA@ 10015418     libucrt:lcidtoname_downlevel.obj
 0001:00014424       ??_C@_1M@GHHLIKEI@?$AAe?$AAu?$AA?9?$AAe?$AAs?$AA?$AA@ 10015424     libucrt:lcidtoname_downlevel.obj
 0001:00014430       ??_C@_1M@PBNONODE@?$AAf?$AAa?$AA?9?$AAi?$AAr?$AA?$AA@ 10015430     libucrt:lcidtoname_downlevel.obj
 0001:0001443c       ??_C@_1M@JEEHPMIL@?$AAf?$AAi?$AA?9?$AAf?$AAi?$AA?$AA@ 1001543c     libucrt:lcidtoname_downlevel.obj
 0001:00014448       ??_C@_1M@LMDCNDBA@?$AAf?$AAo?$AA?9?$AAf?$AAo?$AA?$AA@ 10015448     libucrt:lcidtoname_downlevel.obj
 0001:00014454       ??_C@_1M@JKEOHLDK@?$AAf?$AAr?$AA?9?$AAb?$AAe?$AA?$AA@ 10015454     libucrt:lcidtoname_downlevel.obj
 0001:00014460       ??_C@_1M@NOHADPMI@?$AAf?$AAr?$AA?9?$AAc?$AAa?$AA?$AA@ 10015460     libucrt:lcidtoname_downlevel.obj
 0001:0001446c       ??_C@_1M@KDHIHAEC@?$AAf?$AAr?$AA?9?$AAc?$AAh?$AA?$AA@ 1001546c     libucrt:lcidtoname_downlevel.obj
 0001:00014478       ??_C@_1M@MMBBFGAK@?$AAf?$AAr?$AA?9?$AAf?$AAr?$AA?$AA@ 10015478     libucrt:lcidtoname_downlevel.obj
 0001:00014484       ??_C@_1M@PAFNENNF@?$AAf?$AAr?$AA?9?$AAl?$AAu?$AA?$AA@ 10015484     libucrt:lcidtoname_downlevel.obj
 0001:00014490       ??_C@_1M@EOHDJGDD@?$AAf?$AAr?$AA?9?$AAm?$AAc?$AA?$AA@ 10015490     libucrt:lcidtoname_downlevel.obj
 0001:0001449c       ??_C@_1M@FAPLLOPF@?$AAg?$AAl?$AA?9?$AAe?$AAs?$AA?$AA@ 1001549c     libucrt:lcidtoname_downlevel.obj
 0001:000144a8       ??_C@_1M@FOPBFLOO@?$AAg?$AAu?$AA?9?$AAi?$AAn?$AA?$AA@ 100154a8     libucrt:lcidtoname_downlevel.obj
 0001:000144b4       ??_C@_1M@KBMCINPM@?$AAh?$AAe?$AA?9?$AAi?$AAl?$AA?$AA@ 100154b4     libucrt:lcidtoname_downlevel.obj
 0001:000144c0       ??_C@_1M@BBPHKFPJ@?$AAh?$AAi?$AA?9?$AAi?$AAn?$AA?$AA@ 100154c0     libucrt:lcidtoname_downlevel.obj
 0001:000144cc       ??_C@_1M@PMBNDPHD@?$AAh?$AAr?$AA?9?$AAb?$AAa?$AA?$AA@ 100154cc     libucrt:lcidtoname_downlevel.obj
 0001:000144d8       ??_C@_1M@BPCKOEGE@?$AAh?$AAr?$AA?9?$AAh?$AAr?$AA?$AA@ 100154d8     libucrt:lcidtoname_downlevel.obj
 0001:000144e4       ??_C@_1M@GACBMHKE@?$AAh?$AAu?$AA?9?$AAh?$AAu?$AA?$AA@ 100154e4     libucrt:lcidtoname_downlevel.obj
 0001:000144f0       ??_C@_1M@MILPAJJC@?$AAh?$AAy?$AA?9?$AAa?$AAm?$AA?$AA@ 100154f0     libucrt:lcidtoname_downlevel.obj
 0001:000144fc       ??_C@_1M@BABBICEC@?$AAi?$AAd?$AA?9?$AAi?$AAd?$AA?$AA@ 100154fc     libucrt:lcidtoname_downlevel.obj
 0001:00014508       ??_C@_1M@BIKNHHPF@?$AAi?$AAs?$AA?9?$AAi?$AAs?$AA?$AA@ 10015508     libucrt:lcidtoname_downlevel.obj
 0001:00014514       ??_C@_1M@NMPCJPHE@?$AAi?$AAt?$AA?9?$AAc?$AAh?$AA?$AA@ 10015514     libucrt:lcidtoname_downlevel.obj
 0001:00014520       ??_C@_1M@GHKGFEDF@?$AAi?$AAt?$AA?9?$AAi?$AAt?$AA?$AA@ 10015520     libucrt:lcidtoname_downlevel.obj
 0001:0001452c       ??_C@_1M@NIEJCJJA@?$AAj?$AAa?$AA?9?$AAj?$AAp?$AA?$AA@ 1001552c     libucrt:lcidtoname_downlevel.obj
 0001:00014538       ??_C@_1M@JILFNBIM@?$AAk?$AAa?$AA?9?$AAg?$AAe?$AA?$AA@ 10015538     libucrt:lcidtoname_downlevel.obj
 0001:00014544       ??_C@_1M@PACPMGPH@?$AAk?$AAk?$AA?9?$AAk?$AAz?$AA?$AA@ 10015544     libucrt:lcidtoname_downlevel.obj
 0001:00014550       ??_C@_1M@IELFGMHA@?$AAk?$AAn?$AA?9?$AAi?$AAn?$AA?$AA@ 10015550     libucrt:lcidtoname_downlevel.obj
 0001:0001455c       ??_C@_1O@IBBJHCH@?$AAk?$AAo?$AAk?$AA?9?$AAi?$AAn?$AA?$AA@ 1001555c     libucrt:lcidtoname_downlevel.obj
 0001:0001456c       ??_C@_1M@DMHAEOGC@?$AAk?$AAo?$AA?9?$AAk?$AAr?$AA?$AA@ 1001556c     libucrt:lcidtoname_downlevel.obj
 0001:00014578       ??_C@_1M@HBAHBIGA@?$AAk?$AAy?$AA?9?$AAk?$AAg?$AA?$AA@ 10015578     libucrt:lcidtoname_downlevel.obj
 0001:00014584       ??_C@_1M@KPMILCJG@?$AAl?$AAt?$AA?9?$AAl?$AAt?$AA?$AA@ 10015584     libucrt:lcidtoname_downlevel.obj
 0001:00014590       ??_C@_1M@BDEKKCA@?$AAl?$AAv?$AA?9?$AAl?$AAv?$AA?$AA@ 10015590     libucrt:lcidtoname_downlevel.obj
 0001:0001459c       ??_C@_1M@ELCKCCJJ@?$AAm?$AAi?$AA?9?$AAn?$AAz?$AA?$AA@ 1001559c     libucrt:lcidtoname_downlevel.obj
 0001:000145a8       ??_C@_1M@CBOOLAPA@?$AAm?$AAk?$AA?9?$AAm?$AAk?$AA?$AA@ 100155a8     libucrt:lcidtoname_downlevel.obj
 0001:000145b4       ??_C@_1M@GPHNBJKN@?$AAm?$AAl?$AA?9?$AAi?$AAn?$AA?$AA@ 100155b4     libucrt:lcidtoname_downlevel.obj
 0001:000145c0       ??_C@_1M@PABJILIG@?$AAm?$AAn?$AA?9?$AAm?$AAn?$AA?$AA@ 100155c0     libucrt:lcidtoname_downlevel.obj
 0001:000145cc       ??_C@_1M@FGBKKIPG@?$AAm?$AAr?$AA?9?$AAi?$AAn?$AA?$AA@ 100155cc     libucrt:lcidtoname_downlevel.obj
 0001:000145d8       ??_C@_1M@NDBPDDAL@?$AAm?$AAs?$AA?9?$AAb?$AAn?$AA?$AA@ 100155d8     libucrt:lcidtoname_downlevel.obj
 0001:000145e4       ??_C@_1M@OPIHOOPI@?$AAm?$AAs?$AA?9?$AAm?$AAy?$AA?$AA@ 100155e4     libucrt:lcidtoname_downlevel.obj
 0001:000145f0       ??_C@_1M@PPDBCNFM@?$AAm?$AAt?$AA?9?$AAm?$AAt?$AA?$AA@ 100155f0     libucrt:lcidtoname_downlevel.obj
 0001:000145fc       ??_C@_1M@KDJDKMDD@?$AAn?$AAb?$AA?9?$AAn?$AAo?$AA?$AA@ 100155fc     libucrt:lcidtoname_downlevel.obj
 0001:00014608       ??_C@_1M@KFCFLMJP@?$AAn?$AAl?$AA?9?$AAb?$AAe?$AA?$AA@ 10015608     libucrt:lcidtoname_downlevel.obj
 0001:00014614       ??_C@_1M@KPOPDDGO@?$AAn?$AAl?$AA?9?$AAn?$AAl?$AA?$AA@ 10015614     libucrt:lcidtoname_downlevel.obj
 0001:00014620       ??_C@_1M@LJKPEMLN@?$AAn?$AAn?$AA?9?$AAn?$AAo?$AA?$AA@ 10015620     libucrt:lcidtoname_downlevel.obj
 0001:0001462c       ??_C@_1M@BDGHHBFL@?$AAn?$AAs?$AA?9?$AAz?$AAa?$AA?$AA@ 1001562c     libucrt:lcidtoname_downlevel.obj
 0001:00014638       ??_C@_1M@IDEHOAP@?$AAp?$AAa?$AA?9?$AAi?$AAn?$AA?$AA@ 10015638     libucrt:lcidtoname_downlevel.obj
 0001:00014644       ??_C@_1M@HDBKGOGH@?$AAp?$AAl?$AA?9?$AAp?$AAl?$AA?$AA@ 10015644     libucrt:lcidtoname_downlevel.obj
 0001:00014650       ??_C@_1M@LJLLCMEH@?$AAp?$AAt?$AA?9?$AAb?$AAr?$AA?$AA@ 10015650     libucrt:lcidtoname_downlevel.obj
 0001:0001465c       ??_C@_1M@NCMONAAL@?$AAp?$AAt?$AA?9?$AAp?$AAt?$AA?$AA@ 1001565c     libucrt:lcidtoname_downlevel.obj
 0001:00014668       ??_C@_1O@EAKMAJDN@?$AAq?$AAu?$AAz?$AA?9?$AAb?$AAo?$AA?$AA@ 10015668     libucrt:lcidtoname_downlevel.obj
 0001:00014678       ??_C@_1O@BHHPIGDN@?$AAq?$AAu?$AAz?$AA?9?$AAe?$AAc?$AA?$AA@ 10015678     libucrt:lcidtoname_downlevel.obj
 0001:00014688       ??_C@_1O@GBAPEKMJ@?$AAq?$AAu?$AAz?$AA?9?$AAp?$AAe?$AA?$AA@ 10015688     libucrt:lcidtoname_downlevel.obj
 0001:00014698       ??_C@_1M@CLGLEFBO@?$AAr?$AAo?$AA?9?$AAr?$AAo?$AA?$AA@ 10015698     libucrt:lcidtoname_downlevel.obj
 0001:000146a4       ??_C@_1M@CEEDODME@?$AAr?$AAu?$AA?9?$AAr?$AAu?$AA?$AA@ 100156a4     libucrt:lcidtoname_downlevel.obj
 0001:000146b0       ??_C@_1M@HPKKKMPP@?$AAs?$AAa?$AA?9?$AAi?$AAn?$AA?$AA@ 100156b0     libucrt:lcidtoname_downlevel.obj
 0001:000146bc       ??_C@_1M@BKMAIGOJ@?$AAs?$AAe?$AA?9?$AAf?$AAi?$AA?$AA@ 100156bc     libucrt:lcidtoname_downlevel.obj
 0001:000146c8       ??_C@_1M@NDPIFLFI@?$AAs?$AAe?$AA?9?$AAn?$AAo?$AA?$AA@ 100156c8     libucrt:lcidtoname_downlevel.obj
 0001:000146d4       ??_C@_1M@DANKKHJ@?$AAs?$AAe?$AA?9?$AAs?$AAe?$AA?$AA@ 100156d4     libucrt:lcidtoname_downlevel.obj
 0001:000146e0       ??_C@_1M@PNBLONPJ@?$AAs?$AAk?$AA?9?$AAs?$AAk?$AA?$AA@ 100156e0     libucrt:lcidtoname_downlevel.obj
 0001:000146ec       ??_C@_1M@LFMODOAL@?$AAs?$AAl?$AA?9?$AAs?$AAi?$AA?$AA@ 100156ec     libucrt:lcidtoname_downlevel.obj
 0001:000146f8       ??_C@_1O@DFKOMPG@?$AAs?$AAm?$AAa?$AA?9?$AAn?$AAo?$AA?$AA@ 100156f8     libucrt:lcidtoname_downlevel.obj
 0001:00014708       ??_C@_1O@NDKPBNNH@?$AAs?$AAm?$AAa?$AA?9?$AAs?$AAe?$AA?$AA@ 10015708     libucrt:lcidtoname_downlevel.obj
 0001:00014718       ??_C@_1O@PLLKBHAB@?$AAs?$AAm?$AAj?$AA?9?$AAn?$AAo?$AA?$AA@ 10015718     libucrt:lcidtoname_downlevel.obj
 0001:00014728       ??_C@_1O@CLEPOGCA@?$AAs?$AAm?$AAj?$AA?9?$AAs?$AAe?$AA?$AA@ 10015728     libucrt:lcidtoname_downlevel.obj
 0001:00014738       ??_C@_1O@DLGJGKMK@?$AAs?$AAm?$AAn?$AA?9?$AAf?$AAi?$AA?$AA@ 10015738     libucrt:lcidtoname_downlevel.obj
 0001:00014748       ??_C@_1O@OJDJGAJC@?$AAs?$AAm?$AAs?$AA?9?$AAf?$AAi?$AA?$AA@ 10015748     libucrt:lcidtoname_downlevel.obj
 0001:00014758       ??_C@_1M@BOFOGHPB@?$AAs?$AAq?$AA?9?$AAa?$AAl?$AA?$AA@ 10015758     libucrt:lcidtoname_downlevel.obj
 0001:00014764       ??_C@_1BG@LJBBIPGB@?$AAs?$AAr?$AA?9?$AAb?$AAa?$AA?9?$AAc?$AAy?$AAr?$AAl?$AA?$AA@ 10015764     libucrt:lcidtoname_downlevel.obj
 0001:0001477c       ??_C@_1BG@JLBENFOE@?$AAs?$AAr?$AA?9?$AAb?$AAa?$AA?9?$AAl?$AAa?$AAt?$AAn?$AA?$AA@ 1001577c     libucrt:lcidtoname_downlevel.obj
 0001:00014794       ??_C@_1BG@KODPNHE@?$AAs?$AAr?$AA?9?$AAs?$AAp?$AA?9?$AAc?$AAy?$AAr?$AAl?$AA?$AA@ 10015794     libucrt:lcidtoname_downlevel.obj
 0001:000147ac       ??_C@_1BG@CIOGKHPB@?$AAs?$AAr?$AA?9?$AAs?$AAp?$AA?9?$AAl?$AAa?$AAt?$AAn?$AA?$AA@ 100157ac     libucrt:lcidtoname_downlevel.obj
 0001:000147c4       ??_C@_1M@NGFJLMAC@?$AAs?$AAv?$AA?9?$AAf?$AAi?$AA?$AA@ 100157c4     libucrt:lcidtoname_downlevel.obj
 0001:000147d0       ??_C@_1M@MPJEJAJC@?$AAs?$AAv?$AA?9?$AAs?$AAe?$AA?$AA@ 100157d0     libucrt:lcidtoname_downlevel.obj
 0001:000147dc       ??_C@_1M@MPNDHLFK@?$AAs?$AAw?$AA?9?$AAk?$AAe?$AA?$AA@ 100157dc     libucrt:lcidtoname_downlevel.obj
 0001:000147e8       ??_C@_1O@KOHBJJI@?$AAs?$AAy?$AAr?$AA?9?$AAs?$AAy?$AA?$AA@ 100157e8     libucrt:lcidtoname_downlevel.obj
 0001:000147f8       ??_C@_1M@LDCEFHA@?$AAt?$AAa?$AA?9?$AAi?$AAn?$AA?$AA@ 100157f8     libucrt:lcidtoname_downlevel.obj
 0001:00014804       ??_C@_1M@CNJOFAK@?$AAt?$AAe?$AA?9?$AAi?$AAn?$AA?$AA@ 10015804     libucrt:lcidtoname_downlevel.obj
 0001:00014810       ??_C@_1M@GNAECACD@?$AAt?$AAh?$AA?9?$AAt?$AAh?$AA?$AA@ 10015810     libucrt:lcidtoname_downlevel.obj
 0001:0001481c       ??_C@_1M@CHBIHOJO@?$AAt?$AAn?$AA?9?$AAz?$AAa?$AA?$AA@ 1001581c     libucrt:lcidtoname_downlevel.obj
 0001:00014828       ??_C@_1M@GCCMIGPJ@?$AAt?$AAr?$AA?9?$AAt?$AAr?$AA?$AA@ 10015828     libucrt:lcidtoname_downlevel.obj
 0001:00014834       ??_C@_1M@CELMCNBK@?$AAt?$AAt?$AA?9?$AAr?$AAu?$AA?$AA@ 10015834     libucrt:lcidtoname_downlevel.obj
 0001:00014840       ??_C@_1M@KLMCELGA@?$AAu?$AAk?$AA?9?$AAu?$AAa?$AA?$AA@ 10015840     libucrt:lcidtoname_downlevel.obj
 0001:0001484c       ??_C@_1M@EPAJJAJF@?$AAu?$AAr?$AA?9?$AAp?$AAk?$AA?$AA@ 1001584c     libucrt:lcidtoname_downlevel.obj
 0001:00014858       ??_C@_1BG@GEGPMCDJ@?$AAu?$AAz?$AA?9?$AAu?$AAz?$AA?9?$AAc?$AAy?$AAr?$AAl?$AA?$AA@ 10015858     libucrt:lcidtoname_downlevel.obj
 0001:00014870       ??_C@_1BG@EGGKJILM@?$AAu?$AAz?$AA?9?$AAu?$AAz?$AA?9?$AAl?$AAa?$AAt?$AAn?$AA?$AA@ 10015870     libucrt:lcidtoname_downlevel.obj
 0001:00014888       ??_C@_1M@GFOCLFF@?$AAv?$AAi?$AA?9?$AAv?$AAn?$AA?$AA@ 10015888     libucrt:lcidtoname_downlevel.obj
 0001:00014894       ??_C@_1M@CPAMEDFI@?$AAx?$AAh?$AA?9?$AAz?$AAa?$AA?$AA@ 10015894     libucrt:lcidtoname_downlevel.obj
 0001:000148a0       ??_C@_1O@EBKIFIGN@?$AAz?$AAh?$AA?9?$AAc?$AAh?$AAs?$AA?$AA@ 100158a0     libucrt:lcidtoname_downlevel.obj
 0001:000148b0       ??_C@_1O@NMHPGANE@?$AAz?$AAh?$AA?9?$AAc?$AAh?$AAt?$AA?$AA@ 100158b0     libucrt:lcidtoname_downlevel.obj
 0001:000148c0       ??_C@_1M@LPINJOMC@?$AAz?$AAh?$AA?9?$AAc?$AAn?$AA?$AA@ 100158c0     libucrt:lcidtoname_downlevel.obj
 0001:000148cc       ??_C@_1M@OCJEJODD@?$AAz?$AAh?$AA?9?$AAh?$AAk?$AA?$AA@ 100158cc     libucrt:lcidtoname_downlevel.obj
 0001:000148d8       ??_C@_1M@DNDLJINH@?$AAz?$AAh?$AA?9?$AAm?$AAo?$AA?$AA@ 100158d8     libucrt:lcidtoname_downlevel.obj
 0001:000148e4       ??_C@_1M@MBFDNDND@?$AAz?$AAh?$AA?9?$AAs?$AAg?$AA?$AA@ 100158e4     libucrt:lcidtoname_downlevel.obj
 0001:000148f0       ??_C@_1M@IMEPLEPE@?$AAz?$AAh?$AA?9?$AAt?$AAw?$AA?$AA@ 100158f0     libucrt:lcidtoname_downlevel.obj
 0001:000148fc       ??_C@_1M@BBGHNHJP@?$AAz?$AAu?$AA?9?$AAz?$AAa?$AA?$AA@ 100158fc     libucrt:lcidtoname_downlevel.obj
 0001:00014968       ??_C@_1BA@BALFACEM@?$AAC?$AAO?$AAN?$AAO?$AAU?$AAT?$AA$?$AA?$AA@ 10015968     libucrt:initcon.obj
 0001:00014a80       __infinity                 10015a80     libucrt:87tran.obj
 0001:00014a8a       __minfinity                10015a8a     libucrt:87tran.obj
 0001:00014a94       __logemax                  10015a94     libucrt:87tran.obj
 0001:00014aba       __OP_EXPjmptab             10015aba     libucrt:87tran.obj
 0001:00014ae0       __indefinite               10015ae0     libucrt:87disp.obj
 0001:00014aea       __piby2                    10015aea     libucrt:87disp.obj
 0001:00014af4       __piby4                    10015af4     libucrt:87disp.obj
 0001:00014b28       __DEFAULT_CW_in_mem        10015b28     libucrt:common.obj
 0001:00014b2a       __pi_by_2_to_61            10015b2a     libucrt:common.obj
 0001:00014b64       ??_C@_03MGHMBJCF@log?$AA@  10015b64     libucrt:libm_error.obj
 0001:00014b68       ??_C@_05HGHHAHAP@log10?$AA@ 10015b68     libucrt:libm_error.obj
 0001:00014b70       ??_C@_03KHJOGHMM@exp?$AA@  10015b70     libucrt:libm_error.obj
 0001:00014b74       ??_C@_03JGHBODFD@pow?$AA@  10015b74     libucrt:libm_error.obj
 0001:00014b78       ??_C@_04FIHNOPOL@asin?$AA@ 10015b78     libucrt:libm_error.obj
 0001:00014b80       ??_C@_04PDIFKINK@acos?$AA@ 10015b80     libucrt:libm_error.obj
 0001:00014b88       ??_C@_04EIAKFFMI@sqrt?$AA@ 10015b88     libucrt:libm_error.obj
 0001:00014b90       ___acrt_log10_table_t      10015b90     libucrt:log10_tables.obj
 0001:00014fa0       ___acrt_log10_table_cb     10015fa0     libucrt:log10_tables.obj
 0001:000153b0       __real@3fe0000000000000    100163b0     libucrt:powhlp.obj
 0001:000154a0       ??_C@_04COOMCNPB@sinh?$AA@ 100164a0     libucrt:fpexcept.obj
 0001:000154a8       ??_C@_04HPJJNFIM@cosh?$AA@ 100164a8     libucrt:fpexcept.obj
 0001:000154b0       ??_C@_04FJHINJAO@tanh?$AA@ 100164b0     libucrt:fpexcept.obj
 0001:000154b8       ??_C@_04MLLJIGOK@atan?$AA@ 100164b8     libucrt:fpexcept.obj
 0001:000154c0       ??_C@_05KNGEOGJB@atan2?$AA@ 100164c0     libucrt:fpexcept.obj
 0001:000154c8       ??_C@_03BLEJJJBH@sin?$AA@  100164c8     libucrt:fpexcept.obj
 0001:000154cc       ??_C@_03LALBNOCG@cos?$AA@  100164cc     libucrt:fpexcept.obj
 0001:000154d0       ??_C@_03IIINPABG@tan?$AA@  100164d0     libucrt:fpexcept.obj
 0001:000154d4       ??_C@_04GFPJNGEK@ceil?$AA@ 100164d4     libucrt:fpexcept.obj
 0001:000154dc       ??_C@_05PBJFFIGL@floor?$AA@ 100164dc     libucrt:fpexcept.obj
 0001:000154e4       ??_C@_04ODHECPBC@fabs?$AA@ 100164e4     libucrt:fpexcept.obj
 0001:000154ec       ??_C@_04EHEDPDJG@modf?$AA@ 100164ec     libucrt:fpexcept.obj
 0001:000154f4       ??_C@_05CEJMAHNP@ldexp?$AA@ 100164f4     libucrt:fpexcept.obj
 0001:000154fc       ??_C@_05KBKMEMPO@_cabs?$AA@ 100164fc     libucrt:fpexcept.obj
 0001:00015504       ??_C@_06MEIMCGCF@_hypot?$AA@ 10016504     libucrt:fpexcept.obj
 0001:0001550c       ??_C@_04KEPJIHGP@fmod?$AA@ 1001650c     libucrt:fpexcept.obj
 0001:00015514       ??_C@_05GKKHEGJL@frexp?$AA@ 10016514     libucrt:fpexcept.obj
 0001:0001551c       ??_C@_03MJLDFKDL@_y0?$AA@  1001651c     libucrt:fpexcept.obj
 0001:00015520       ??_C@_03NAKIGLHK@_y1?$AA@  10016520     libucrt:fpexcept.obj
 0001:00015524       ??_C@_03ONILCKOB@_yn?$AA@  10016524     libucrt:fpexcept.obj
 0001:00015528       ??_C@_05JGDBENOH@_logb?$AA@ 10016528     libucrt:fpexcept.obj
 0001:00015530       ??_C@_0L@KDOEJCKC@_nextafter?$AA@ 10016530     libucrt:fpexcept.obj
 0001:00015540       __d_inf                    10016540     libucrt:util.obj
 0001:00015548       __d_max                    10016548     libucrt:util.obj
 0001:00015550       __d_mzero                  10016550     libucrt:util.obj
 0001:00015580       __load_config_used         10016580     LIBCMT:loadcfg.obj
 0001:00015620       ___safe_se_handler_table   10016620     <linker-defined>
 0001:000158a4       ___rtc_iaa                 100168a4     LIBCMT:_initsect_.obj
 0001:000158a8       ___rtc_izz                 100168a8     LIBCMT:_initsect_.obj
 0001:000158ac       ___rtc_taa                 100168ac     LIBCMT:_initsect_.obj
 0001:000158b0       ___rtc_tzz                 100168b0     LIBCMT:_initsect_.obj
 0001:000158c0       __chkstk                   100168c0 f   chkstk.obj
 0001:000158c0       __alloca_probe             100168c0 f   chkstk.obj
 0001:000161d0       ___local_stdio_printf_options 100171d0 f i bit64.obj
 0001:000161e0       _bit64_getvalue            100171e0 f   bit64.obj
 0001:00016260       _bit64_push                10017260 f   bit64.obj
 0001:000162f0       _bit64_pushuserdata        100172f0 f   bit64.obj
 0001:00016430       _luaopen_bit64             10017430 f   bit64.obj
 0001:00016470       _sprintf                   10017470 f i bit64.obj
 0001:000164a0       _AddBufToCollector         100174a0 f   exported.obj
 0001:000164f0       _AddStringToCollectorField 100174f0 f   exported.obj
 0001:00016560       _CreateStringsArray        10017560 f   exported.obj
 0001:00016680       _FarPanelItemFreeCallback@8 10017680 f   exported.obj
 0001:000168f0       _FillFindData              100178f0 f   exported.obj
 0001:00016c20       _FillPluginPanelItem       10017c20 f   exported.obj
 0001:00016e10       _GetExportFunction         10017e10 f   exported.obj
 0001:00016e90       _LF_Analyse                10017e90 f   exported.obj
 0001:00016f30       _LF_CloseAnalyse           10017f30 f   exported.obj
 0001:00016f50       _LF_ClosePanel             10017f50 f   exported.obj
 0001:00016ff0       _LF_Compare                10017ff0 f   exported.obj
 0001:000170a0       _LF_Configure              100180a0 f   exported.obj
 0001:00017100       _LF_DeleteFiles            10018100 f   exported.obj
 0001:000171b0       _LF_ExitFAR                100181b0 f   exported.obj
 0001:00017200       _LF_FreeContentData        10018200 f   exported.obj
 0001:00017230       _LF_FreeFindData           10018230 f   exported.obj
 0001:00017280       _LF_GetContentData         10018280 f   exported.obj
 0001:00017390       _LF_GetContentFields       10018390 f   exported.obj
 0001:00017420       _LF_GetFiles               10018420 f   exported.obj
 0001:00017550       _LF_GetFindData            10018550 f   exported.obj
 0001:00017620       _LF_GetGlobalInfo          10018620 f   exported.obj
 0001:00017990       _LF_GetOpenPanelInfo       10018990 f   exported.obj
 0001:00017f60       _LF_GetPluginInfo          10018f60 f   exported.obj
 0001:00018050       _LF_MakeDirectory          10019050 f   exported.obj
 0001:00018150       _LF_Open                   10019150 f   exported.obj
 0001:000184f0       _LF_ProcessConsoleInput    100194f0 f   exported.obj
 0001:000185d0       _LF_ProcessDialogEvent     100195d0 f   exported.obj
 0001:000187b0       _LF_ProcessEditorEvent     100197b0 f   exported.obj
 0001:000188f0       _LF_ProcessEditorInput     100198f0 f   exported.obj
 0001:00018950       _LF_ProcessHostFile        10019950 f   exported.obj
 0001:00018a20       _LF_ProcessPanelEvent      10019a20 f   exported.obj
 0001:00018af0       _LF_ProcessPanelInput      10019af0 f   exported.obj
 0001:00018b80       _LF_ProcessSynchroEvent    10019b80 f   exported.obj
 0001:00018d30       _LF_ProcessViewerEvent     10019d30 f   exported.obj
 0001:00018dc0       _LF_PutFiles               10019dc0 f   exported.obj
 0001:00018ea0       _LF_RunDefaultScript       10019ea0 f   exported.obj
 0001:00018eb0       _LF_SetDirectory           10019eb0 f   exported.obj
 0001:00018f70       _LF_SetFindList            10019f70 f   exported.obj
 0001:00019000       _PackMacroValues           1001a000 f   exported.obj
 0001:000191a0       _PushFarMacroValue         1001a1a0 f   exported.obj
 0001:000192a0       _PushPluginObject          1001a2a0 f   exported.obj
 0001:00019330       _ReplacePluginInfoCollector 1001a330 f   exported.obj
 0001:00019360       _RunDefaultScript          1001a360 f   exported.obj
 0001:00019550       _UpdateFileSelection       1001a550 f   exported.obj
 0001:00019610       _getPluginMenuItems        1001a610 f   exported.obj
 0001:000196a0       _pcall_msg                 1001a6a0 f   exported.obj
 0001:00019750       _traceback                 1001a750 f   exported.obj
 0001:000197e0       _push_flags_table          1001a7e0 f   flags.obj
 0001:00019830       _SetFarColors              1001a830 f   keysandcolors.obj
 0001:00019880       _LF_Gsub                   1001a880 f   lflua.obj
 0001:00019990       _LF_LoadFile               1001a990 f   lflua.obj
 0001:00019c80       _luaB_dofileW              1001ac80 f   lflua.obj
 0001:00019cd0       _luaB_loadfileW            1001acd0 f   lflua.obj
 0001:00019d10       _method_gc                 1001ad10 f   lregex.obj
 0001:00019d70       _method_tostring           1001ad70 f   lregex.obj
 0001:00019dc0       _func_Gmatch               1001adc0 f   lregex.obj
 0001:00019dd0       _func_GmatchW              1001add0 f   lregex.obj
 0001:00019de0       _method_bracketscount      1001ade0 f   lregex.obj
 0001:00019e40       _func_New                  1001ae40 f   lregex.obj
 0001:00019e70       _method_find               1001ae70 f   lregex.obj
 0001:00019e90       _func_find                 1001ae90 f   lregex.obj
 0001:00019eb0       _method_findW              1001aeb0 f   lregex.obj
 0001:00019ed0       _func_findW                1001aed0 f   lregex.obj
 0001:00019ef0       _method_match              1001aef0 f   lregex.obj
 0001:00019f10       _func_match                1001af10 f   lregex.obj
 0001:00019f30       _method_matchW             1001af30 f   lregex.obj
 0001:00019f50       _func_matchW               1001af50 f   lregex.obj
 0001:00019f70       _method_exec               1001af70 f   lregex.obj
 0001:00019f90       _func_exec                 1001af90 f   lregex.obj
 0001:00019fb0       _method_execW              1001afb0 f   lregex.obj
 0001:00019fd0       _func_execW                1001afd0 f   lregex.obj
 0001:00019ff0       _method_gsub               1001aff0 f   lregex.obj
 0001:0001a010       _func_gsub                 1001b010 f   lregex.obj
 0001:0001a030       _method_gsubW              1001b030 f   lregex.obj
 0001:0001a050       _func_gsubW                1001b050 f   lregex.obj
 0001:0001a070       __Gmatch                   1001b070 f   lregex.obj
 0001:0001a150       __regex_gmatch_closure     1001b150 f   lregex.obj
 0001:0001a230       _check_regex_pattern       1001b230 f   lregex.obj
 0001:0001a2d0       _luaopen_regex             1001b2d0 f   lregex.obj
 0001:0001a340       _push_far_regex            1001b340 f   lregex.obj
 0001:0001a3b0       _regex_gmatch_closure      1001b3b0 f   lregex.obj
 0001:0001a3c0       _regex_gmatch_closureW     1001b3c0 f   lregex.obj
 0001:0001a3d0       _rx_find_match             1001b3d0 f   lregex.obj
 0001:0001a6e0       _rx_gsub                   1001b6e0 f   lregex.obj
 0001:0001af10       _Open_Luamacro             1001bf10 f   luamacro.obj
 0001:0001b2a0       _far_FarMacroCallToLua     1001c2a0 f   luamacro.obj
 0001:0001b310       _far_MacroCallFar          1001c310 f   luamacro.obj
 0001:0001b500       _uc_len                    1001c500 f   lusercontrol.obj
 0001:0001b760       _CheckFarUserControl       1001c760 f   lusercontrol.obj
 0001:0001b780       _luaopen_usercontrol       1001c780 f   lusercontrol.obj
 0001:0001b7c0       _CreateRegKey              1001c7c0 f   reg.obj
 0001:0001b800       _OpenRegKey                1001c800 f   reg.obj
 0001:0001b830       _SetRegKeyArr              1001c830 f   reg.obj
 0001:0001b8b0       _SetRegKeyDword            1001c8b0 f   reg.obj
 0001:0001b930       _SetRegKeyStr              1001c930 f   reg.obj
 0001:00024ca0       _ConvertLuaValue           10025ca0 f   service.obj
 0001:00024df0       _CreateList                10025df0 f   service.obj
 0001:00024fe0       _DeleteLuaStateTimerQueue  10025fe0 f   service.obj
 0001:00025000       _DialogHandleEqual         10026000 f   service.obj
 0001:00025040       _DllMain@12                10026040 f   service.obj
 0001:00025260       _FillInputRecord           10026260 f   service.obj
 0001:00025700       _GetFarColor               10026700 f   service.obj
 0001:00025890       _GetFlagCombination        10026890 f   service.obj
 0001:00025ad0       _GetFlagsFromTable         10026ad0 f   service.obj
 0001:00025b10       _GetLuaStateTimerQueue     10026b10 f   service.obj
 0001:00025be0       _GetPluginData             10026be0 f   service.obj
 0001:00025c00       _IsLuaJIT                  10026c00 f   service.obj
 0001:00025c10       _LF_DlgProc                10026c10 f   service.obj
 0001:00025dc0       _LF_DoFile                 10026dc0 f   service.obj
 0001:00025e50       _LF_Error                  10026e50 f   service.obj
 0001:00025f10       _LF_GetLuafarAPI           10026f10 f   service.obj
 0001:00025f40       _LF_InitLuaState1          10026f40 f   service.obj
 0001:000260d0       _LF_InitLuaState2          100270d0 f   service.obj
 0001:00026170       _LF_MacroCallback          10027170 f   service.obj
 0001:00026180       _LF_Message                10027180 f   service.obj
 0001:00026630       @_guard_check_icall_nop@4  10027630 f   LIBCMT:guard_support.obj
 0001:00026630       _LF_ProcessEnvVars         10027630 f   service.obj
 0001:00026640       _LF_RunLuafarInit          10027640 f   service.obj
 0001:00026700       _MacroAddCallback@12       10027700 f   service.obj
 0001:00026860       _NewDialogData             10027860 f   service.obj
 0001:000268f0       _NewVirtualKeyTable        100278f0 f   service.obj
 0001:00026970       _OptFlags                  10027970 f   service.obj
 0001:000269a0       _OptHandle                 100279a0 f   service.obj
 0001:00026af0       _ProcessDNResult           10027af0 f   service.obj
 0001:00026ed0       _PushDMParams              10027ed0 f   service.obj
 0001:00026fc0       _PushDNParams              10027fc0 f   service.obj
 0001:000274a0       _PushFarColor              100284a0 f   service.obj
 0001:00027530       _PushInputRecord           10028530 f   service.obj
 0001:000277d0       _PushPanelItem             100287d0 f   service.obj
 0001:00027a20       _PushPanelItems            10028a20 f   service.obj
 0001:00027d00       _PutFlagsToTable           10028d00 f   service.obj
 0001:000283f0       _TimerCallback@8           100293f0 f   service.obj
 0001:00028970       _dir_exist                 10029970 f   service.obj
 0001:00028990       _fprintf                   10029990 f i service.obj
 0001:00028fd0       _luaopen_luafar3           10029fd0 f   service.obj
 0001:00029130       _pushFileTime              1002a130 f   service.obj
 0001:0002a5f0       __snwprintf                1002b5f0 f i slnunico.obj
 0001:0002a990       _luaopen_unicode           1002b990 f   slnunico.obj
 0001:0002c8f0       ___local_stdio_scanf_options 1002d8f0 f i uliolib51.obj
 0001:0002c980       _fscanf                    1002d980 f i uliolib51.obj
 0001:0002cf40       _luaopen_uio               1002df40 f   uliolib51.obj
 0001:0002dcc0       _luaopen_upackage          1002ecc0 f   uloadlib51.obj
 0001:0002df90       _ustring_WideCharToMultiByte 1002ef90 f   ustring.obj
 0001:0002e0c0       _ustring_MultiByteToWideChar 1002f0c0 f   ustring.obj
 0001:0002e200       _ustring_OemToUtf8         1002f200 f   ustring.obj
 0001:0002e2c0       _ustring_Utf8ToOem         1002f2c0 f   ustring.obj
 0001:0002e370       _ustring_Utf16ToUtf8       1002f370 f   ustring.obj
 0001:0002e3b0       _ustring_Utf8ToUtf16       1002f3b0 f   ustring.obj
 0001:0002e460       _ustring_GetACP            1002f460 f   ustring.obj
 0001:0002e480       _ustring_GetOEMCP          1002f480 f   ustring.obj
 0001:0002e4a0       _ustring_GetConsoleCP      1002f4a0 f   ustring.obj
 0001:0002e4c0       _ustring_SetConsoleCP      1002f4c0 f   ustring.obj
 0001:0002e510       _ustring_GetConsoleOutputCP 1002f510 f   ustring.obj
 0001:0002e530       _ustring_SetConsoleOutputCP 1002f530 f   ustring.obj
 0001:0002e580       _ustring_EnumSystemCodePages 1002f580 f   ustring.obj
 0001:0002e5f0       _ustring_GetCPInfo         1002f5f0 f   ustring.obj
 0001:0002e7f0       _ustring_GetLogicalDriveStrings 1002f7f0 f   ustring.obj
 0001:0002e930       _ustring_GetDriveType      1002f930 f   ustring.obj
 0001:0002ea20       _ustring_Uuid              1002fa20 f   ustring.obj
 0001:0002eb00       _ustring_SearchPath        1002fb00 f   ustring.obj
 0001:0002ed00       _ustring_GlobalMemoryStatus 1002fd00 f   ustring.obj
 0001:0002f000       _ustring_Sleep             10030000 f   ustring.obj
 0001:0002f040       _ustring_SetFileAttr       10030040 f   ustring.obj
 0001:0002f260       _ustring_GetFileAttr       10030260 f   ustring.obj
 0001:0002f340       _ustring_SHGetFolderPath   10030340 f   ustring.obj
 0001:0002f440       _ustring_sub               10030440 f   ustring.obj
 0001:0002f4d0       _ustring_len               100304d0 f   ustring.obj
 0001:0002f6f0       _ustring_GetCurrentDir     100306f0 f   ustring.obj
 0001:0002f890       _ustring_SetCurrentDir     10030890 f   ustring.obj
 0001:0002f970       _ustring_GetKeyState       10030970 f   ustring.obj
 0001:0002f9b0       _DecodeAttributes          100309b0 f   ustring.obj
 0001:0002fae0       _EnumCodePagesProc@4       10030ae0 f   ustring.obj
 0001:0002fba0       _GetBoolFromTable          10030ba0 f   ustring.obj
 0001:0002fbd0       _GetOptBoolFromTable       10030bd0 f   ustring.obj
 0001:0002fc30       _GetOptIntFromArray        10030c30 f   ustring.obj
 0001:0002fc80       _GetOptIntFromTable        10030c80 f   ustring.obj
 0001:0002fcd0       _GetOptNumFromTable        10030cd0 f   ustring.obj
 0001:0002fd20       _PushAttrString            10030d20 f   ustring.obj
 0001:0002fde0       _PutAttrToTable            10030de0 f   ustring.obj
 0001:0002fe10       _PutBoolToTable            10030e10 f   ustring.obj
 0001:0002fe30       _PutIntToArray             10030e30 f   ustring.obj
 0001:0002fe70       _PutIntToTable             10030e70 f   ustring.obj
 0001:0002feb0       _PutLStrToTable            10030eb0 f   ustring.obj
 0001:0002fee0       _PutNumToTable             10030ee0 f   ustring.obj
 0001:0002ff10       _PutStrToArray             10030f10 f   ustring.obj
 0001:0002ff40       _PutStrToTable             10030f40 f   ustring.obj
 0001:0002ff60       _PutWStrToArray            10030f60 f   ustring.obj
 0001:0002ffa0       _PutWStrToTable            10030fa0 f   ustring.obj
 0001:0002ffd0       _SysErrorReturn            10030fd0 f   ustring.obj
 0001:00030000       _check_utf16_string        10031000 f   ustring.obj
 0001:00030030       _check_utf8_string         10031030 f   ustring.obj
 0001:00030050       _convert_multibyte_string  10031050 f   ustring.obj
 0001:00030140       _luaopen_ustring           10031140 f   ustring.obj
 0001:00030190       _opt_utf16_string          10031190 f   ustring.obj
 0001:000301b0       _opt_utf8_string           100311b0 f   ustring.obj
 0001:00030290       _push_multibyte_string     10031290 f   ustring.obj
 0001:00030340       _push_utf16_string         10031340 f   ustring.obj
 0001:00030380       _push_utf8_string          10031380 f   ustring.obj
 0001:000303a0       _pusherror                 100313a0 f   ustring.obj
 0001:000303c0       _pusherrorcode             100313c0 f   ustring.obj
 0001:00030430       _utf8_to_utf16             10031430 f   ustring.obj
 0001:00030450       _GetAttrFromTable          10031450 f   util.obj
 0001:000304a0       _GetFileSizeFromTable      100314a0 f   util.obj
 0001:00030540       _GetFileTimeFromTable      10031540 f   util.obj
 0001:000305c0       _GetIntFromArray           100315c0 f   util.obj
 0001:00030640       _PutFileTimeToTable        10031640 f   util.obj
 0001:00030680       _luaLF_FieldError          10031680 f   util.obj
 0001:000306c0       _luaLF_SlotError           100316c0 f   util.obj
 0001:00031b90       _luaopen_win               10032b90 f   win.obj
 0001:00032170       _DecodePointerWrapper@4    10033170 f   vc_crt_fix_impl.obj
 0001:000321b0       _EncodePointerWrapper@4    100331b0 f   vc_crt_fix_impl.obj
 0001:000321f0       _GetLogicalProcessorInformationWrapper@8 100331f0 f   vc_crt_fix_impl.obj
 0001:00032230       _GetModuleHandleExWWrapper@12 10033230 f   vc_crt_fix_impl.obj
 0001:00032270       _GetNumaHighestNodeNumberWrapper@4 10033270 f   vc_crt_fix_impl.obj
 0001:000322b0       _InitializeSListHeadWrapper@4 100332b0 f   vc_crt_fix_impl.obj
 0001:000322f0       _InterlockedFlushSListWrapper@4 100332f0 f   vc_crt_fix_impl.obj
 0001:00032330       _InterlockedPopEntrySListWrapper@4 10033330 f   vc_crt_fix_impl.obj
 0001:00032370       _InterlockedPushEntrySListWrapper@8 10033370 f   vc_crt_fix_impl.obj
 0001:000323b0       _InterlockedPushListSListExWrapper@16 100333b0 f   vc_crt_fix_impl.obj
 0001:000323f0       _QueryDepthSListWrapper@4  100333f0 f   vc_crt_fix_impl.obj
 0001:00032430       _RtlFirstEntrySListWrapper@4 10033430 f   vc_crt_fix_impl.obj
 0001:0003246f       _lua_gettop                1003346f f   lua51:lua51.dll
 0001:00032475       _lua_settop                10033475 f   lua51:lua51.dll
 0001:0003247b       _lua_type                  1003347b f   lua51:lua51.dll
 0001:00032481       _lua_rawequal              10033481 f   lua51:lua51.dll
 0001:00032487       _lua_tonumber              10033487 f   lua51:lua51.dll
 0001:0003248d       _lua_tolstring             1003348d f   lua51:lua51.dll
 0001:00032493       _lua_touserdata            10033493 f   lua51:lua51.dll
 0001:00032499       _lua_pushnil               10033499 f   lua51:lua51.dll
 0001:0003249f       _lua_pushnumber            1003349f f   lua51:lua51.dll
 0001:000324a5       _lua_pushstring            100334a5 f   lua51:lua51.dll
 0001:000324ab       _lua_pushboolean           100334ab f   lua51:lua51.dll
 0001:000324b1       _lua_getfield              100334b1 f   lua51:lua51.dll
 0001:000324b7       _lua_newuserdata           100334b7 f   lua51:lua51.dll
 0001:000324bd       _lua_getmetatable          100334bd f   lua51:lua51.dll
 0001:000324c3       _lua_setmetatable          100334c3 f   lua51:lua51.dll
 0001:000324c9       _luaL_register             100334c9 f   lua51:lua51.dll
 0001:000324cf       _luaL_argerror             100334cf f   lua51:lua51.dll
 0001:000324d5       _luaL_checkinteger         100334d5 f   lua51:lua51.dll
 0001:000324db       _luaL_newmetatable         100334db f   lua51:lua51.dll
 0001:000324e1       _lua_pushvalue             100334e1 f   lua51:lua51.dll
 0001:000324e7       _lua_remove                100334e7 f   lua51:lua51.dll
 0001:000324ed       _lua_insert                100334ed f   lua51:lua51.dll
 0001:000324f3       _lua_isnumber              100334f3 f   lua51:lua51.dll
 0001:000324f9       _lua_isstring              100334f9 f   lua51:lua51.dll
 0001:000324ff       _lua_tointeger             100334ff f   lua51:lua51.dll
 0001:00032505       _lua_toboolean             10033505 f   lua51:lua51.dll
 0001:0003250b       _lua_objlen                1003350b f   lua51:lua51.dll
 0001:00032511       _lua_pushinteger           10033511 f   lua51:lua51.dll
 0001:00032517       _lua_pushlstring           10033517 f   lua51:lua51.dll
 0001:0003251d       _lua_pushcclosure          1003351d f   lua51:lua51.dll
 0001:00032523       _lua_pushlightuserdata     10033523 f   lua51:lua51.dll
 0001:00032529       _lua_gettable              10033529 f   lua51:lua51.dll
 0001:0003252f       _lua_rawgeti               1003352f f   lua51:lua51.dll
 0001:00032535       _lua_createtable           10033535 f   lua51:lua51.dll
 0001:0003253b       _lua_setfield              1003353b f   lua51:lua51.dll
 0001:00032541       _lua_rawseti               10033541 f   lua51:lua51.dll
 0001:00032547       _lua_call                  10033547 f   lua51:lua51.dll
 0001:0003254d       _lua_pcall                 1003354d f   lua51:lua51.dll
 0001:00032553       _lua_gc                    10033553 f   lua51:lua51.dll
 0001:00032559       _luaL_ref                  10033559 f   lua51:lua51.dll
 0001:0003255f       _luaL_unref                1003355f f   lua51:lua51.dll
 0001:00032565       _luaL_loadstring           10033565 f   lua51:lua51.dll
 0001:0003256b       _lua_pushfstring           1003356b f   lua51:lua51.dll
 0001:00032571       _lua_load                  10033571 f   lua51:lua51.dll
 0001:00032577       _lua_error                 10033577 f   lua51:lua51.dll
 0001:0003257d       _lua_concat                1003357d f   lua51:lua51.dll
 0001:00032583       _luaL_buffinit             10033583 f   lua51:lua51.dll
 0001:00032589       _luaL_addlstring           10033589 f   lua51:lua51.dll
 0001:0003258f       _luaL_pushresult           1003358f f   lua51:lua51.dll
 0001:00032595       _lua_replace               10033595 f   lua51:lua51.dll
 0001:0003259b       _lua_checkstack            1003359b f   lua51:lua51.dll
 0001:000325a1       _luaL_checklstring         100335a1 f   lua51:lua51.dll
 0001:000325a7       _luaL_optlstring           100335a7 f   lua51:lua51.dll
 0001:000325ad       _luaL_optinteger           100335ad f   lua51:lua51.dll
 0001:000325b3       _luaL_checkudata           100335b3 f   lua51:lua51.dll
 0001:000325b9       _luaL_error                100335b9 f   lua51:lua51.dll
 0001:000325bf       _luaL_addvalue             100335bf f   lua51:lua51.dll
 0001:000325c5       _lua_getstack              100335c5 f   lua51:lua51.dll
 0001:000325cb       _lua_getinfo               100335cb f   lua51:lua51.dll
 0001:000325d1       _luaL_checktype            100335d1 f   lua51:lua51.dll
 0001:000325d7       _luaopen_base              100335d7 f   lua51:lua51.dll
 0001:000325dd       _luaopen_table             100335dd f   lua51:lua51.dll
 0001:000325e3       _luaopen_os                100335e3 f   lua51:lua51.dll
 0001:000325e9       _luaopen_string            100335e9 f   lua51:lua51.dll
 0001:000325ef       _luaopen_math              100335ef f   lua51:lua51.dll
 0001:000325f5       _luaopen_debug             100335f5 f   lua51:lua51.dll
 0001:000325fb       _lua_rawget                100335fb f   lua51:lua51.dll
 0001:00032601       _lua_getfenv               10033601 f   lua51:lua51.dll
 0001:00032607       _lua_settable              10033607 f   lua51:lua51.dll
 0001:0003260d       _lua_rawset                1003360d f   lua51:lua51.dll
 0001:00032613       _lua_setfenv               10033613 f   lua51:lua51.dll
 0001:00032619       _lua_next                  10033619 f   lua51:lua51.dll
 0001:0003261f       _lua_getallocf             1003361f f   lua51:lua51.dll
 0001:00032625       _lua_setallocf             10033625 f   lua51:lua51.dll
 0001:0003262b       _luaL_typerror             1003362b f   lua51:lua51.dll
 0001:00032631       _luaL_checknumber          10033631 f   lua51:lua51.dll
 0001:00032637       _luaL_optnumber            10033637 f   lua51:lua51.dll
 0001:0003263d       _luaL_checkany             1003363d f   lua51:lua51.dll
 0001:00032643       _luaL_findtable            10033643 f   lua51:lua51.dll
 0001:00032649       _lua_typename              10033649 f   lua51:lua51.dll
 0001:0003264f       _lua_dump                  1003364f f   lua51:lua51.dll
 0001:00032655       _luaL_checkstack           10033655 f   lua51:lua51.dll
 0001:0003265b       _luaL_prepbuffer           1003365b f   lua51:lua51.dll
 0001:00032661       _lua_tocfunction           10033661 f   lua51:lua51.dll
 0001:00032667       _luaL_checkoption          10033667 f   lua51:lua51.dll
 0001:0003266d       _lua_iscfunction           1003366d f   lua51:lua51.dll
 0001:00032673       _luaL_gsub                 10033673 f   lua51:lua51.dll
 0001:00032679       _lua_isuserdata            10033679 f   lua51:lua51.dll
 0001:00032680       __alldiv                   10033680 f   LIBCMT:lldiv.obj
 0001:00032730       __allmul                   10033730 f   LIBCMT:llmul.obj
 0001:00032770       __allrem                   10033770 f   LIBCMT:llrem.obj
 0001:00032830       __allshl                   10033830 f   LIBCMT:llshl.obj
 0001:00032850       __allshr                   10033850 f   LIBCMT:llshr.obj
 0001:00032880       __aullshr                  10033880 f   LIBCMT:ullshr.obj
 0001:000328a0       __ftol2_sse                100338a0 f   LIBCMT:_ftol2_.obj
 0001:000328a9       __ftol2_pentium4           100338a9 f   LIBCMT:_ftol2_.obj
 0001:000328bc       __ftol2_sse_excpt          100338bc f   LIBCMT:_ftol2_.obj
 0001:000328e0       __ftol2                    100338e0 f   LIBCMT:_ftol2_.obj
 0001:00032960       __alldvrm                  10033960 f   LIBCMT:lldvrm.obj
 0001:00032a3f       ??$__crt_fast_encode_pointer@PAX@@YAPAXQAX@Z 10033a3f f i libvcruntime:winapi_downlevel.obj
 0001:00032a3f       ??$__crt_fast_encode_pointer@PAP6AXXZ@@YAPAP6AXXZQAP6AXXZ@Z 10033a3f f i LIBCMT:utility.obj
 0001:00032aa0       ___scrt_acquire_startup_lock 10033aa0 f   LIBCMT:utility.obj
 0001:00032ad2       ___scrt_dllmain_after_initialize_c 10033ad2 f   LIBCMT:utility.obj
 0001:00032afd       ___scrt_dllmain_before_initialize_c 10033afd f   LIBCMT:utility.obj
 0001:00032b0b       ___scrt_dllmain_crt_thread_attach 10033b0b f   LIBCMT:utility.obj
 0001:00032b2a       ___scrt_dllmain_crt_thread_detach 10033b2a f   LIBCMT:utility.obj
 0001:00032b37       ___scrt_dllmain_exception_filter 10033b37 f   LIBCMT:utility.obj
 0001:00032b6b       ___scrt_dllmain_uninitialize_c 10033b6b f   LIBCMT:utility.obj
 0001:00032b8e       ___scrt_dllmain_uninitialize_critical 10033b8e f   LIBCMT:utility.obj
 0001:00032b9b       ___scrt_initialize_crt     10033b9b f   LIBCMT:utility.obj
 0001:00032bd4       ___scrt_initialize_onexit_tables 10033bd4 f   LIBCMT:utility.obj
 0001:00032c7e       ___scrt_is_nonwritable_in_current_image 10033c7e f   LIBCMT:utility.obj
 0001:00032d08       ___scrt_release_startup_lock 10033d08 f   LIBCMT:utility.obj
 0001:00032d25       ___scrt_uninitialize_crt   10033d25 f   LIBCMT:utility.obj
 0001:00032d4d       __onexit                   10033d4d f   LIBCMT:utility.obj
 0001:00032d88       _atexit                    10033d88 f   LIBCMT:utility.obj
 0001:000330a9       __DllMainCRTStartup@12     100340a9 f   LIBCMT:dll_dllmain.obj
 0001:000330cc       ___isa_available_init      100340cc f   LIBCMT:_cpu_disp_.obj
 0001:00033265       __get_startup_argv_mode    10034265 f   LIBCMT:argv_mode.obj
 0001:00033269       ___scrt_is_ucrt_dll_in_use 10034269 f   LIBCMT:ucrt_detection.obj
 0001:00033275       ___scrt_fastfail           10034275 f   LIBCMT:utility_desktop.obj
 0001:00033391       __crt_debugger_hook        10034391 f   LIBCMT:utility_desktop.obj
 0001:000333a0       __SEH_prolog4              100343a0 f   LIBCMT:_sehprolg4_.obj
 0001:000333e6       __SEH_epilog4              100343e6 f   LIBCMT:_sehprolg4_.obj
 0001:0003344a       ___security_init_cookie    1003444a f   LIBCMT:gs_support.obj
 0001:00033495       ?__scrt_initialize_type_info@@YAXXZ 10034495 f   LIBCMT:tncleanup.obj
 0001:000334a1       ?__scrt_uninitialize_type_info@@YAXXZ 100344a1 f   LIBCMT:tncleanup.obj
 0001:000334ad       ___scrt_initialize_default_local_stdio_options 100344ad f   LIBCMT:default_local_stdio_options.obj
 0001:000334ca       ___scrt_get_dyn_tls_init_callback 100344ca f   LIBCMT:dyn_tls_init.obj
 0001:000334d0       __RTC_Initialize           100344d0 f   LIBCMT:_initsect_.obj
 0001:000334fc       __RTC_Terminate            100344fc f   LIBCMT:_initsect_.obj
 0001:00033528       @__security_check_cookie@4 10034528 f   LIBCMT:_secchk_.obj
 0001:00033539       ___raise_securityfailure   10034539 f   LIBCMT:gs_report.obj
 0001:00033561       ___report_gsfailure        10034561 f   LIBCMT:gs_report.obj
 0001:0003365c       _wcsrchr                   1003465c f   libvcruntime:wcsrchr.obj
 0001:00033700       _memcpy                    10034700 f   libvcruntime:memcpy.obj
 0001:00033c80       _memset                    10034c80 f   libvcruntime:memset.obj
 0001:00033dda       _wcsstr                    10034dda f   libvcruntime:wcsstr.obj
 0001:00034060       _strchr                    10035060 f   libvcruntime:strchr.obj
 0001:000340ce       ___from_strstr_to_strchr   100350ce     libvcruntime:strchr.obj
 0001:0003418b       _wcschr                    1003518b f   libvcruntime:wcschr.obj
 0001:00034260       _memchr                    10035260 f   libvcruntime:memchr.obj
 0001:00034310       _strrchr                   10035310 f   libvcruntime:strrchr.obj
 0001:00034447       ___vcrt_initialize         10035447 f   libvcruntime:initialization.obj
 0001:00034470       ___vcrt_thread_attach      10035470 f   libvcruntime:initialization.obj
 0001:0003447b       ___vcrt_thread_detach      1003547b f   libvcruntime:initialization.obj
 0001:00034486       ___vcrt_uninitialize       10035486 f   libvcruntime:initialization.obj
 0001:000344a5       ___vcrt_uninitialize_critical 100354a5 f   libvcruntime:initialization.obj
 0001:000344f0       __except_handler4          100354f0 f   libvcruntime:_chandler4_.obj
 0001:00034647       ___std_type_info_destroy_list 10035647 f   libvcruntime:std_type_info.obj
 0001:0003466a       ___vcrt_freefls@4          1003566a f   libvcruntime:per_thread_data.obj
 0001:00034686       ___vcrt_freeptd            10035686 f   libvcruntime:per_thread_data.obj
 0001:000346c9       ___vcrt_getptd_noexit      100356c9 f   libvcruntime:per_thread_data.obj
 0001:0003475b       ___vcrt_initialize_ptd     1003575b f   libvcruntime:per_thread_data.obj
 0001:0003479f       ___vcrt_uninitialize_ptd   1003579f f   libvcruntime:per_thread_data.obj
 0001:000347ba       ___vcrt_initialize_locks   100357ba f   libvcruntime:locks.obj
 0001:000347f6       ___vcrt_uninitialize_locks 100357f6 f   libvcruntime:locks.obj
 0001:0003495a       ___vcrt_FlsAlloc           1003595a f   libvcruntime:winapi_downlevel.obj
 0001:00034995       ___vcrt_FlsFree            10035995 f   libvcruntime:winapi_downlevel.obj
 0001:000349d0       ___vcrt_FlsGetValue        100359d0 f   libvcruntime:winapi_downlevel.obj
 0001:00034a0b       ___vcrt_FlsSetValue        10035a0b f   libvcruntime:winapi_downlevel.obj
 0001:00034a49       ___vcrt_InitializeCriticalSectionEx 10035a49 f   libvcruntime:winapi_downlevel.obj
 0001:00034a90       ___vcrt_initialize_winapi_thunks 10035a90 f   libvcruntime:winapi_downlevel.obj
 0001:00034ab9       ___vcrt_uninitialize_winapi_thunks 10035ab9 f   libvcruntime:winapi_downlevel.obj
 0001:00034aeb       ___vcrt_initialize_pure_virtual_call_handler 10035aeb f   libvcruntime:purevirt_data.obj
 0001:00034b00       __local_unwind4            10035b00 f   libvcruntime:_exsup4_.obj
 0001:00034bd8       __seh_longjmp_unwind4@4    10035bd8 f   libvcruntime:_exsup4_.obj
 0001:00034c00       @_EH4_CallFilterFunc@8     10035c00 f   libvcruntime:_exsup4_.obj
 0001:00034c18       @_EH4_TransferToHandler@8  10035c18 f   libvcruntime:_exsup4_.obj
 0001:00034c34       @_EH4_GlobalUnwind2@8      10035c34 f   libvcruntime:_exsup4_.obj
 0001:00034c50       @_EH4_LocalUnwind@16       10035c50 f   libvcruntime:_exsup4_.obj
 0001:00034c67       ___except_validate_context_record 10035c67 f   libvcruntime:jbcxrval.obj
 0001:00034c97       ___except_validate_jump_buffer 10035c97 f   libvcruntime:jbcxrval.obj
 0001:00034cd0       __global_unwind2           10035cd0 f   libvcruntime:_exsup_.obj
 0001:00034d36       __local_unwind2            10035d36 f   libvcruntime:_exsup_.obj
 0001:00034dba       __abnormal_termination     10035dba f   libvcruntime:_exsup_.obj
 0001:00034de0       __NLG_Notify1              10035de0 f   libvcruntime:_exsup_.obj
 0001:00034dec       __NLG_Notify               10035dec f   libvcruntime:_exsup_.obj
 0001:00034e03       __NLG_Dispatch             10035e03     libvcruntime:_exsup_.obj
 0001:00034e03       __NLG_Dispatch2            10035e03     libvcruntime:_exsup_.obj
 0001:00034e0b       __NLG_Call                 10035e0b f   libvcruntime:_exsup_.obj
 0001:00034e0d       __NLG_Return2              10035e0d     libvcruntime:_exsup_.obj
 0001:00034e10       __CallSettingFrame@12      10035e10 f   libvcruntime:lowhelpr.obj
 0001:00034e37       __NLG_Return               10035e37     libvcruntime:lowhelpr.obj
 0001:00034e5c       ___DestructExceptionObject 10035e5c f   libvcruntime:ehhelpers.obj
 0001:00034ef2       ?_CallMemberFunction0@@YGXQAX0@Z 10035ef2 f i libvcruntime:ehhelpers.obj
 0001:00034f00       _memmove                   10035f00 f   libvcruntime:memmove.obj
 0001:000357ce       ??$count@D@formatting_buffer@__crt_stdio_output@@QBEIXZ 100367ce f i libucrt:output.obj
 0001:000357e6       ??$count@_W@formatting_buffer@__crt_stdio_output@@QBEIXZ 100367e6 f i libucrt:output.obj
 0001:000357ff       ??$ensure_buffer_is_big_enough@D@formatting_buffer@__crt_stdio_output@@QAE_NI@Z 100367ff f i libucrt:output.obj
 0001:0003587e       ??$ensure_buffer_is_big_enough@_W@formatting_buffer@__crt_stdio_output@@QAE_NI@Z 1003687e f i libucrt:output.obj
 0001:000358fe       ??$is_wide_character_specifier@D@__crt_stdio_output@@YA_N_KDW4length_modifier@0@@Z 100368fe f i libucrt:output.obj
 0001:0003592f       ??$is_wide_character_specifier@_W@__crt_stdio_output@@YA_N_K_WW4length_modifier@0@@Z 1003692f f i libucrt:output.obj
 0001:0003597d       ??$scratch_data@D@formatting_buffer@__crt_stdio_output@@QAEPADXZ 1003697d f i libucrt:output.obj
 0001:0003599b       ??$type_case_integer_parse_into_buffer@I@?$output_processor@DV?$stream_output_adapter@D@__crt_stdio_output@@V?$standard_base@DV?$stream_output_adapter@D@__crt_stdio_output@@@2@@__crt_stdio_output@@AAEXII_N@Z 1003699b f i libucrt:output.obj
 0001:0003599b       ??$type_case_integer_parse_into_buffer@I@?$output_processor@DV?$string_output_adapter@D@__crt_stdio_output@@V?$standard_base@DV?$string_output_adapter@D@__crt_stdio_output@@@2@@__crt_stdio_output@@AAEXII_N@Z 1003699b f i libucrt:output.obj
 0001:00035a08       ??$type_case_integer_parse_into_buffer@I@?$output_processor@_WV?$string_output_adapter@_W@__crt_stdio_output@@V?$standard_base@_WV?$string_output_adapter@_W@__crt_stdio_output@@@2@@__crt_stdio_output@@AAEXII_N@Z 10036a08 f i libucrt:output.obj
 0001:00035a89       ??$type_case_integer_parse_into_buffer@_K@?$output_processor@DV?$string_output_adapter@D@__crt_stdio_output@@V?$standard_base@DV?$string_output_adapter@D@__crt_stdio_output@@@2@@__crt_stdio_output@@AAEX_KI_N@Z 10036a89 f i libucrt:output.obj
 0001:00035a89       ??$type_case_integer_parse_into_buffer@_K@?$output_processor@DV?$stream_output_adapter@D@__crt_stdio_output@@V?$standard_base@DV?$stream_output_adapter@D@__crt_stdio_output@@@2@@__crt_stdio_output@@AAEX_KI_N@Z 10036a89 f i libucrt:output.obj
 0001:00035b0b       ??$type_case_integer_parse_into_buffer@_K@?$output_processor@_WV?$string_output_adapter@_W@__crt_stdio_output@@V?$standard_base@_WV?$string_output_adapter@_W@__crt_stdio_output@@@2@@__crt_stdio_output@@AAEX_KI_N@Z 10036b0b f i libucrt:output.obj
 0001:00035ba1       ??$write_multiple_characters@V?$stream_output_adapter@D@__crt_stdio_output@@D@__crt_stdio_output@@YAXABV?$stream_output_adapter@D@0@DHQAH@Z 10036ba1 f i libucrt:output.obj
 0001:00035bd7       ??$write_multiple_characters@V?$string_output_adapter@D@__crt_stdio_output@@D@__crt_stdio_output@@YAXABV?$string_output_adapter@D@0@DHQAH@Z 10036bd7 f i libucrt:output.obj
 0001:00035c03       ??$write_multiple_characters@V?$string_output_adapter@_W@__crt_stdio_output@@D@__crt_stdio_output@@YAXABV?$string_output_adapter@_W@0@DHQAH@Z 10036c03 f i libucrt:output.obj
 0001:00035c34       ??0?$common_data@D@__crt_stdio_output@@IAE@XZ 10036c34 f i libucrt:output.obj
 0001:00035c7b       ??0?$common_data@_W@__crt_stdio_output@@IAE@XZ 10036c7b f i libucrt:output.obj
 0001:00035cc7       ??0?$output_adapter_data@DV?$string_output_adapter@D@__crt_stdio_output@@@__crt_stdio_output@@IAE@ABV?$string_output_adapter@D@1@_KQBDQAU__crt_locale_pointers@@QAD@Z 10036cc7 f i libucrt:output.obj
 0001:00035cc7       ??0?$output_adapter_data@DV?$stream_output_adapter@D@__crt_stdio_output@@@__crt_stdio_output@@IAE@ABV?$stream_output_adapter@D@1@_KQBDQAU__crt_locale_pointers@@QAD@Z 10036cc7 f i libucrt:output.obj
 0001:00035d03       ??0?$output_adapter_data@_WV?$string_output_adapter@_W@__crt_stdio_output@@@__crt_stdio_output@@IAE@ABV?$string_output_adapter@_W@1@_KQB_WQAU__crt_locale_pointers@@QAD@Z 10036d03 f i libucrt:output.obj
 0001:00035d3f       ??0_LocaleUpdate@@QAE@QAU__crt_locale_pointers@@@Z 10036d3f f i libucrt:output.obj
 0001:00035dc2       ??1formatting_buffer@__crt_stdio_output@@QAE@XZ 10036dc2 f i libucrt:output.obj
 0001:00035ddc       ??4?$__crt_unique_heap_ptr@DU__crt_internal_free_policy@@@@QAEAAV0@$$QAV0@@Z 10036ddc f i libucrt:output.obj
 0001:00035ec1       ?crop_zeroes@__crt_stdio_output@@YAXPADQAU__crt_locale_pointers@@@Z 10036ec1 f i libucrt:output.obj
 0001:00035f18       ?find_next_state@?$output_processor@DV?$stream_output_adapter@D@__crt_stdio_output@@V?$standard_base@DV?$stream_output_adapter@D@__crt_stdio_output@@@2@@__crt_stdio_output@@ABE?AW4state@2@DW432@@Z 10036f18 f i libucrt:output.obj
 0001:00035f18       ?find_next_state@?$output_processor@DV?$string_output_adapter@D@__crt_stdio_output@@V?$standard_base@DV?$string_output_adapter@D@__crt_stdio_output@@@2@@__crt_stdio_output@@ABE?AW4state@2@DW432@@Z 10036f18 f i libucrt:output.obj
 0001:00035f4a       ?find_next_state@?$output_processor@_WV?$string_output_adapter@_W@__crt_stdio_output@@V?$standard_base@_WV?$string_output_adapter@_W@__crt_stdio_output@@@2@@__crt_stdio_output@@ABE?AW4state@2@_WW432@@Z 10036f4a f i libucrt:output.obj
 0001:00035f7e       ?force_decimal_point@__crt_stdio_output@@YAXPADQAU__crt_locale_pointers@@@Z 10036f7e f i libucrt:output.obj
 0001:00035fda       ?parse_int_from_format_string@?$output_processor@DV?$string_output_adapter@D@__crt_stdio_output@@V?$standard_base@DV?$string_output_adapter@D@__crt_stdio_output@@@2@@__crt_stdio_output@@AAE_NQAH@Z 10036fda f i libucrt:output.obj
 0001:00035fda       ?parse_int_from_format_string@?$output_processor@DV?$stream_output_adapter@D@__crt_stdio_output@@V?$standard_base@DV?$stream_output_adapter@D@__crt_stdio_output@@@2@@__crt_stdio_output@@AAE_NQAH@Z 10036fda f i libucrt:output.obj
 0001:00036052       ?parse_int_from_format_string@?$output_processor@_WV?$string_output_adapter@_W@__crt_stdio_output@@V?$standard_base@_WV?$string_output_adapter@_W@__crt_stdio_output@@@2@@__crt_stdio_output@@AAE_NQAH@Z 10037052 f i libucrt:output.obj
 0001:000360cc       ?process@?$output_processor@DV?$stream_output_adapter@D@__crt_stdio_output@@V?$standard_base@DV?$stream_output_adapter@D@__crt_stdio_output@@@2@@__crt_stdio_output@@QAEHXZ 100370cc f i libucrt:output.obj
 0001:000361e8       ?process@?$output_processor@DV?$string_output_adapter@D@__crt_stdio_output@@V?$standard_base@DV?$string_output_adapter@D@__crt_stdio_output@@@2@@__crt_stdio_output@@QAEHXZ 100371e8 f i libucrt:output.obj
 0001:00036304       ?process@?$output_processor@_WV?$string_output_adapter@_W@__crt_stdio_output@@V?$standard_base@_WV?$string_output_adapter@_W@__crt_stdio_output@@@2@@__crt_stdio_output@@QAEHXZ 10037304 f i libucrt:output.obj
 0001:00036424       ?state_case_flag@?$output_processor@DV?$stream_output_adapter@D@__crt_stdio_output@@V?$standard_base@DV?$stream_output_adapter@D@__crt_stdio_output@@@2@@__crt_stdio_output@@AAE_NXZ 10037424 f i libucrt:output.obj
 0001:00036424       ?state_case_flag@?$output_processor@DV?$string_output_adapter@D@__crt_stdio_output@@V?$standard_base@DV?$string_output_adapter@D@__crt_stdio_output@@@2@@__crt_stdio_output@@AAE_NXZ 10037424 f i libucrt:output.obj
 0001:00036461       ?state_case_flag@?$output_processor@_WV?$string_output_adapter@_W@__crt_stdio_output@@V?$standard_base@_WV?$string_output_adapter@_W@__crt_stdio_output@@@2@@__crt_stdio_output@@AAE_NXZ 10037461 f i libucrt:output.obj
 0001:0003649e       ?state_case_normal@?$output_processor@DV?$stream_output_adapter@D@__crt_stdio_output@@V?$standard_base@DV?$stream_output_adapter@D@__crt_stdio_output@@@2@@__crt_stdio_output@@AAE_NXZ 1003749e f i libucrt:output.obj
 0001:000364bd       ?state_case_normal@?$output_processor@DV?$string_output_adapter@D@__crt_stdio_output@@V?$standard_base@DV?$string_output_adapter@D@__crt_stdio_output@@@2@@__crt_stdio_output@@AAE_NXZ 100374bd f i libucrt:output.obj
 0001:000364dc       ?state_case_normal@?$output_processor@_WV?$string_output_adapter@_W@__crt_stdio_output@@V?$standard_base@_WV?$string_output_adapter@_W@__crt_stdio_output@@@2@@__crt_stdio_output@@AAE_NXZ 100374dc f i libucrt:output.obj
 0001:000364fb       ?state_case_normal_common@?$output_processor@DV?$stream_output_adapter@D@__crt_stdio_output@@V?$standard_base@DV?$stream_output_adapter@D@__crt_stdio_output@@@2@@__crt_stdio_output@@AAE_NXZ 100374fb f i libucrt:output.obj
 0001:00036537       ?state_case_normal_common@?$output_processor@DV?$string_output_adapter@D@__crt_stdio_output@@V?$standard_base@DV?$string_output_adapter@D@__crt_stdio_output@@@2@@__crt_stdio_output@@AAE_NXZ 10037537 f i libucrt:output.obj
 0001:00036561       ?state_case_normal_common@?$output_processor@_WV?$string_output_adapter@_W@__crt_stdio_output@@V?$standard_base@_WV?$string_output_adapter@_W@__crt_stdio_output@@@2@@__crt_stdio_output@@AAE_NXZ 10037561 f i libucrt:output.obj
 0001:0003657c       ?state_case_normal_tchar@?$output_processor@DV?$stream_output_adapter@D@__crt_stdio_output@@V?$standard_base@DV?$stream_output_adapter@D@__crt_stdio_output@@@2@@__crt_stdio_output@@AAE_ND@Z 1003757c f i libucrt:output.obj
 0001:000365ed       ?state_case_normal_tchar@?$output_processor@DV?$string_output_adapter@D@__crt_stdio_output@@V?$standard_base@DV?$string_output_adapter@D@__crt_stdio_output@@@2@@__crt_stdio_output@@AAE_ND@Z 100375ed f i libucrt:output.obj
 0001:00036649       ?state_case_precision@?$output_processor@DV?$string_output_adapter@D@__crt_stdio_output@@V?$standard_base@DV?$string_output_adapter@D@__crt_stdio_output@@@2@@__crt_stdio_output@@AAE_NXZ 10037649 f i libucrt:output.obj
 0001:00036649       ?state_case_precision@?$output_processor@DV?$stream_output_adapter@D@__crt_stdio_output@@V?$standard_base@DV?$stream_output_adapter@D@__crt_stdio_output@@@2@@__crt_stdio_output@@AAE_NXZ 10037649 f i libucrt:output.obj
 0001:00036671       ?state_case_precision@?$output_processor@_WV?$string_output_adapter@_W@__crt_stdio_output@@V?$standard_base@_WV?$string_output_adapter@_W@__crt_stdio_output@@@2@@__crt_stdio_output@@AAE_NXZ 10037671 f i libucrt:output.obj
 0001:0003669a       ?state_case_size@?$output_processor@DV?$stream_output_adapter@D@__crt_stdio_output@@V?$standard_base@DV?$stream_output_adapter@D@__crt_stdio_output@@@2@@__crt_stdio_output@@AAE_NXZ 1003769a f i libucrt:output.obj
 0001:0003680b       ?state_case_size@?$output_processor@DV?$string_output_adapter@D@__crt_stdio_output@@V?$standard_base@DV?$string_output_adapter@D@__crt_stdio_output@@@2@@__crt_stdio_output@@AAE_NXZ 1003780b f i libucrt:output.obj
 0001:0003697c       ?state_case_size@?$output_processor@_WV?$string_output_adapter@_W@__crt_stdio_output@@V?$standard_base@_WV?$string_output_adapter@_W@__crt_stdio_output@@@2@@__crt_stdio_output@@AAE_NXZ 1003797c f i libucrt:output.obj
 0001:00036b00       ?state_case_type@?$output_processor@DV?$stream_output_adapter@D@__crt_stdio_output@@V?$standard_base@DV?$stream_output_adapter@D@__crt_stdio_output@@@2@@__crt_stdio_output@@AAE_NXZ 10037b00 f i libucrt:output.obj
 0001:00036d28       ?state_case_type@?$output_processor@DV?$string_output_adapter@D@__crt_stdio_output@@V?$standard_base@DV?$string_output_adapter@D@__crt_stdio_output@@@2@@__crt_stdio_output@@AAE_NXZ 10037d28 f i libucrt:output.obj
 0001:00036f50       ?state_case_type@?$output_processor@_WV?$string_output_adapter@_W@__crt_stdio_output@@V?$standard_base@_WV?$string_output_adapter@_W@__crt_stdio_output@@@2@@__crt_stdio_output@@AAE_NXZ 10037f50 f i libucrt:output.obj
 0001:000371b1       ?state_case_width@?$output_processor@DV?$stream_output_adapter@D@__crt_stdio_output@@V?$standard_base@DV?$stream_output_adapter@D@__crt_stdio_output@@@2@@__crt_stdio_output@@AAE_NXZ 100381b1 f i libucrt:output.obj
 0001:000371b1       ?state_case_width@?$output_processor@DV?$string_output_adapter@D@__crt_stdio_output@@V?$standard_base@DV?$string_output_adapter@D@__crt_stdio_output@@@2@@__crt_stdio_output@@AAE_NXZ 100381b1 f i libucrt:output.obj
 0001:000371de       ?state_case_width@?$output_processor@_WV?$string_output_adapter@_W@__crt_stdio_output@@V?$standard_base@_WV?$string_output_adapter@_W@__crt_stdio_output@@@2@@__crt_stdio_output@@AAE_NXZ 100381de f i libucrt:output.obj
 0001:0003720c       ?to_integer_size@__crt_stdio_output@@YAIW4length_modifier@1@@Z 1003820c f i libucrt:output.obj
 0001:00037268       ?type_case_Z@?$output_processor@DV?$string_output_adapter@D@__crt_stdio_output@@V?$standard_base@DV?$string_output_adapter@D@__crt_stdio_output@@@2@@__crt_stdio_output@@AAE_NXZ 10038268 f i libucrt:output.obj
 0001:00037268       ?type_case_Z@?$output_processor@DV?$stream_output_adapter@D@__crt_stdio_output@@V?$standard_base@DV?$stream_output_adapter@D@__crt_stdio_output@@@2@@__crt_stdio_output@@AAE_NXZ 10038268 f i libucrt:output.obj
 0001:000372cb       ?type_case_Z@?$output_processor@_WV?$string_output_adapter@_W@__crt_stdio_output@@V?$standard_base@_WV?$string_output_adapter@_W@__crt_stdio_output@@@2@@__crt_stdio_output@@AAE_NXZ 100382cb f i libucrt:output.obj
 0001:0003732e       ?type_case_a@?$output_processor@DV?$stream_output_adapter@D@__crt_stdio_output@@V?$standard_base@DV?$stream_output_adapter@D@__crt_stdio_output@@@2@@__crt_stdio_output@@AAE_NXZ 1003832e f i libucrt:output.obj
 0001:0003732e       ?type_case_a@?$output_processor@DV?$string_output_adapter@D@__crt_stdio_output@@V?$standard_base@DV?$string_output_adapter@D@__crt_stdio_output@@@2@@__crt_stdio_output@@AAE_NXZ 1003832e f i libucrt:output.obj
 0001:0003748c       ?type_case_a@?$output_processor@_WV?$string_output_adapter@_W@__crt_stdio_output@@V?$standard_base@_WV?$string_output_adapter@_W@__crt_stdio_output@@@2@@__crt_stdio_output@@AAE_NXZ 1003848c f i libucrt:output.obj
 0001:00037602       ?type_case_c_tchar@?$output_processor@DV?$stream_output_adapter@D@__crt_stdio_output@@V?$standard_base@DV?$stream_output_adapter@D@__crt_stdio_output@@@2@@__crt_stdio_output@@AAE_ND@Z 10038602 f i libucrt:output.obj
 0001:00037602       ?type_case_c_tchar@?$output_processor@DV?$string_output_adapter@D@__crt_stdio_output@@V?$standard_base@DV?$string_output_adapter@D@__crt_stdio_output@@@2@@__crt_stdio_output@@AAE_ND@Z 10038602 f i libucrt:output.obj
 0001:00037692       ?type_case_c_tchar@?$output_processor@_WV?$string_output_adapter@_W@__crt_stdio_output@@V?$standard_base@_WV?$string_output_adapter@_W@__crt_stdio_output@@@2@@__crt_stdio_output@@AAE_N_W@Z 10038692 f i libucrt:output.obj
 0001:0003772a       ?type_case_integer@?$output_processor@DV?$stream_output_adapter@D@__crt_stdio_output@@V?$standard_base@DV?$stream_output_adapter@D@__crt_stdio_output@@@2@@__crt_stdio_output@@AAE_NI_N@Z 1003872a f i libucrt:output.obj
 0001:0003772a       ?type_case_integer@?$output_processor@DV?$string_output_adapter@D@__crt_stdio_output@@V?$standard_base@DV?$string_output_adapter@D@__crt_stdio_output@@@2@@__crt_stdio_output@@AAE_NI_N@Z 1003872a f i libucrt:output.obj
 0001:0003787b       ?type_case_integer@?$output_processor@_WV?$string_output_adapter@_W@__crt_stdio_output@@V?$standard_base@_WV?$string_output_adapter@_W@__crt_stdio_output@@@2@@__crt_stdio_output@@AAE_NI_N@Z 1003887b f i libucrt:output.obj
 0001:000379d0       ?type_case_n@?$output_processor@DV?$stream_output_adapter@D@__crt_stdio_output@@V?$standard_base@DV?$stream_output_adapter@D@__crt_stdio_output@@@2@@__crt_stdio_output@@AAE_NXZ 100389d0 f i libucrt:output.obj
 0001:000379d0       ?type_case_n@?$output_processor@_WV?$string_output_adapter@_W@__crt_stdio_output@@V?$standard_base@_WV?$string_output_adapter@_W@__crt_stdio_output@@@2@@__crt_stdio_output@@AAE_NXZ 100389d0 f i libucrt:output.obj
 0001:000379d0       ?type_case_n@?$output_processor@DV?$string_output_adapter@D@__crt_stdio_output@@V?$standard_base@DV?$string_output_adapter@D@__crt_stdio_output@@@2@@__crt_stdio_output@@AAE_NXZ 100389d0 f i libucrt:output.obj
 0001:00037a44       ?type_case_o@?$output_processor@DV?$string_output_adapter@D@__crt_stdio_output@@V?$standard_base@DV?$string_output_adapter@D@__crt_stdio_output@@@2@@__crt_stdio_output@@AAE_NXZ 10038a44 f i libucrt:output.obj
 0001:00037a44       ?type_case_o@?$output_processor@DV?$stream_output_adapter@D@__crt_stdio_output@@V?$standard_base@DV?$stream_output_adapter@D@__crt_stdio_output@@@2@@__crt_stdio_output@@AAE_NXZ 10038a44 f i libucrt:output.obj
 0001:00037a63       ?type_case_o@?$output_processor@_WV?$string_output_adapter@_W@__crt_stdio_output@@V?$standard_base@_WV?$string_output_adapter@_W@__crt_stdio_output@@@2@@__crt_stdio_output@@AAE_NXZ 10038a63 f i libucrt:output.obj
 0001:00037a82       ?type_case_p@?$output_processor@DV?$string_output_adapter@D@__crt_stdio_output@@V?$standard_base@DV?$string_output_adapter@D@__crt_stdio_output@@@2@@__crt_stdio_output@@AAE_NXZ 10038a82 f i libucrt:output.obj
 0001:00037a82       ?type_case_p@?$output_processor@DV?$stream_output_adapter@D@__crt_stdio_output@@V?$standard_base@DV?$stream_output_adapter@D@__crt_stdio_output@@@2@@__crt_stdio_output@@AAE_NXZ 10038a82 f i libucrt:output.obj
 0001:00037a9a       ?type_case_p@?$output_processor@_WV?$string_output_adapter@_W@__crt_stdio_output@@V?$standard_base@_WV?$string_output_adapter@_W@__crt_stdio_output@@@2@@__crt_stdio_output@@AAE_NXZ 10038a9a f i libucrt:output.obj
 0001:00037ab2       ?type_case_s@?$output_processor@DV?$string_output_adapter@D@__crt_stdio_output@@V?$standard_base@DV?$string_output_adapter@D@__crt_stdio_output@@@2@@__crt_stdio_output@@AAE_NXZ 10038ab2 f i libucrt:output.obj
 0001:00037ab2       ?type_case_s@?$output_processor@DV?$stream_output_adapter@D@__crt_stdio_output@@V?$standard_base@DV?$stream_output_adapter@D@__crt_stdio_output@@@2@@__crt_stdio_output@@AAE_NXZ 10038ab2 f i libucrt:output.obj
 0001:00037b25       ?type_case_s@?$output_processor@_WV?$string_output_adapter@_W@__crt_stdio_output@@V?$standard_base@_WV?$string_output_adapter@_W@__crt_stdio_output@@@2@@__crt_stdio_output@@AAE_NXZ 10038b25 f i libucrt:output.obj
 0001:00037b99       ?type_case_s_compute_narrow_string_length@?$output_processor@_WV?$string_output_adapter@_W@__crt_stdio_output@@V?$standard_base@_WV?$string_output_adapter@_W@__crt_stdio_output@@@2@@__crt_stdio_output@@ABEHH_W@Z 10038b99 f i libucrt:output.obj
 0001:00037bd6       ?validate@?$stream_input_adapter@D@__crt_stdio_input@@QBE_NXZ 10038bd6 f i libucrt:input.obj
 0001:00037bd6       ?validate@?$stream_output_adapter@D@__crt_stdio_output@@QBE_NXZ 10038bd6 f i libucrt:output.obj
 0001:00037bf7       ?validate@?$string_output_adapter@D@__crt_stdio_output@@QBE_NXZ 10038bf7 f i libucrt:output.obj
 0001:00037bf7       ?validate@?$string_output_adapter@_W@__crt_stdio_output@@QBE_NXZ 10038bf7 f i libucrt:output.obj
 0001:00037bf7       ?validate@?$c_string_character_source@D@__crt_strtox@@QBE_NXZ 10038bf7 f i libucrt:atox.obj
 0001:00037bf7       ?validate@?$c_string_character_source@_W@__crt_strtox@@QBE_NXZ 10038bf7 f i libucrt:atox.obj
 0001:00037c12       ?validate_stream_is_ansi_if_required@?$__acrt_stdio_char_traits@D@@SA_NQAU_iobuf@@@Z 10038c12 f i libucrt:output.obj
 0001:00037c94       ?write_character@?$string_output_adapter@D@__crt_stdio_output@@QBE_NDQAH@Z 10038c94 f i libucrt:output.obj
 0001:00037cd6       ?write_character@?$string_output_adapter@_W@__crt_stdio_output@@QBE_N_WQAH@Z 10038cd6 f i libucrt:output.obj
 0001:00037d1b       ?write_character_without_count_update@?$stream_output_adapter@D@__crt_stdio_output@@QBE_ND@Z 10038d1b f i libucrt:output.obj
 0001:00037d50       ?write_stored_string_tchar@?$output_processor@DV?$stream_output_adapter@D@__crt_stdio_output@@V?$standard_base@DV?$stream_output_adapter@D@__crt_stdio_output@@@2@@__crt_stdio_output@@AAE_ND@Z 10038d50 f i libucrt:output.obj
 0001:00037df9       ?write_stored_string_tchar@?$output_processor@DV?$string_output_adapter@D@__crt_stdio_output@@V?$standard_base@DV?$string_output_adapter@D@__crt_stdio_output@@@2@@__crt_stdio_output@@AAE_ND@Z 10038df9 f i libucrt:output.obj
 0001:00037ea2       ?write_stored_string_tchar@?$output_processor@_WV?$string_output_adapter@_W@__crt_stdio_output@@V?$standard_base@_WV?$string_output_adapter@_W@__crt_stdio_output@@@2@@__crt_stdio_output@@AAE_N_W@Z 10038ea2 f i libucrt:output.obj
 0001:00037f2e       ?write_string@?$stream_output_adapter@D@__crt_stdio_output@@QBEXQBDHQAHAAV__crt_deferred_errno_cache@@@Z 10038f2e f i libucrt:output.obj
 0001:00037f59       ?write_string@?$string_output_adapter@D@__crt_stdio_output@@QBEXQBDHQAHAAV__crt_deferred_errno_cache@@@Z 10038f59 f i libucrt:output.obj
 0001:00037fc0       ?write_string@?$string_output_adapter@_W@__crt_stdio_output@@QBEXQB_WHQAHAAV__crt_deferred_errno_cache@@@Z 10038fc0 f i libucrt:output.obj
 0001:00038033       ?write_string_impl@?$output_adapter_common@DV?$stream_output_adapter@D@__crt_stdio_output@@@__crt_stdio_output@@IBEXQBDHQAHAAV__crt_deferred_errno_cache@@@Z 10039033 f i libucrt:output.obj
 0001:000380d3       ___stdio_common_vfprintf   100390d3 f   libucrt:output.obj
 0001:00038158       ___stdio_common_vsprintf   10039158 f   libucrt:output.obj
 0001:0003817c       ___stdio_common_vswprintf  1003917c f   libucrt:output.obj
 0001:000381a0       _wcsdup                    100391a0 f   libucrt:wcsdup.obj
 0001:000381a0       __wcsdup                   100391a0 f   libucrt:wcsdup.obj
 0001:00038201       _free                      10039201 f   libucrt:free.obj
 0001:0003821e       _malloc                    1003921e f   libucrt:malloc.obj
 0001:000382d5       __wfopen                   100392d5 f   libucrt:fopen.obj
 0001:000382ec       __fclose_nolock            100392ec f   libucrt:fclose.obj
 0001:00038362       _fclose                    10039362 f   libucrt:fclose.obj
 0001:00038482       __clearfp                  10039482 f   libucrt:ieee87.obj
 0001:00038562       __control87                10039562 f   libucrt:ieee87.obj
 0001:00038900       ___acrt_errno_from_os_error 10039900 f   libucrt:errno.obj
 0001:00038943       ___acrt_errno_map_os_error 10039943 f   libucrt:errno.obj
 0001:00038966       ___doserrno                10039966 f   libucrt:errno.obj
 0001:00038979       __errno                    10039979 f   libucrt:errno.obj
 0001:00038a08       __get_sys_err_msg          10039a08 f i libucrt:strerror.obj
 0001:00038a2c       _strerror                  10039a2c f   libucrt:strerror.obj
 0001:00038a37       ___acrt_initialize_stdio   10039a37 f   libucrt:_file.obj
 0001:00038aff       ___acrt_iob_func           10039aff f   libucrt:_file.obj
 0001:00038b0f       ___acrt_uninitialize_stdio 10039b0f f   libucrt:_file.obj
 0001:00038b5b       __lock_file                10039b5b f   libucrt:_file.obj
 0001:00038b6f       __unlock_file              10039b6f f   libucrt:_file.obj
 0001:00038c81       __wfreopen                 10039c81 f   libucrt:freopen.obj
 0001:00038ca9       _feof                      10039ca9 f   libucrt:feoferr.obj
 0001:00038cd4       _ferror                    10039cd4 f   libucrt:feoferr.obj
 0001:00038cff       __fread_nolock_s           10039cff f   libucrt:fread.obj
 0001:00038ed8       _fread                     10039ed8 f   libucrt:fread.obj
 0001:00038ef5       _fread_s                   10039ef5 f   libucrt:fread.obj
 0001:00039009       __fgetc_nolock             1003a009 f   libucrt:fgetc.obj
 0001:00039045       __getc_nolock              1003a045 f   libucrt:fgetc.obj
 0001:00039050       _fgetc                     1003a050 f   libucrt:fgetc.obj
 0001:0003914b       _getc                      1003a14b f   libucrt:fgetc.obj
 0001:00039156       _rewind                    1003a156 f   libucrt:rewind.obj
 0001:00039218       __ungetc_nolock            1003a218 f   libucrt:ungetc.obj
 0001:00039307       _ungetc                    1003a307 f   libucrt:ungetc.obj
 0001:00039370       _iswctype                  1003a370 f   libucrt:iswctype.obj
 0001:000393db       __chvalidchk_l             1003a3db f i libucrt:_ctype.obj
 0001:00039405       __ischartype_l             1003a405 f i libucrt:_ctype.obj
 0001:00039438       __isdigit_l                1003a438 f i libucrt:_ctype.obj
 0001:00039470       __isspace_l                1003a470 f i libucrt:_ctype.obj
 0001:000394a8       _isdigit                   1003a4a8 f i libucrt:_ctype.obj
 0001:000394d5       _isspace                   1003a4d5 f i libucrt:_ctype.obj
 0001:00039502       _wcsncpy                   1003a502 f   libucrt:wcsncpy.obj
 0001:00039545       __wcsicmp                  1003a545 f   libucrt:wcsicmp.obj
 0001:000395d3       __wcsicmp_l                1003a5d3 f   libucrt:wcsicmp.obj
 0001:000396b0       _strncmp                   1003a6b0 f   libucrt:strncmp.obj
 0001:00039730       _strncpy                   1003a730 f   libucrt:strncpy.obj
 0001:00039860       _strpbrk                   1003a860 f   libucrt:strpbrk.obj
 0001:00039e04       ?__crt_stdio_path_requires_backslash@@YA_NQB_W@Z 1003ae04 f i libucrt:popen.obj
 0001:00039eb1       __pclose                   1003aeb1 f   libucrt:popen.obj
 0001:00039f7e       __wpopen                   1003af7e f   libucrt:popen.obj
 0001:00039f89       _clearerr                  1003af89 f   libucrt:clearerr.obj
 0001:00039f8f       _clearerr_s                1003af8f f   libucrt:clearerr.obj
 0001:0003a24d       ___acrt_stdio_flush_nolock 1003b24d f   libucrt:fflush.obj
 0001:0003a2b0       __fflush_nolock            1003b2b0 f   libucrt:fflush.obj
 0001:0003a2f7       __flushall                 1003b2f7 f   libucrt:fflush.obj
 0001:0003a300       _fflush                    1003b300 f   libucrt:fflush.obj
 0001:0003a413       _fgets                     1003b413 f   libucrt:fgets.obj
 0001:0003a41e       ?LongLongSub@@YAJ_J0PA_J@Z 1003b41e f i libucrt:fseek.obj
 0001:0003a6d2       _fseek                     1003b6d2 f   libucrt:fseek.obj
 0001:0003acdf       __ftelli64_nolock          1003bcdf f   libucrt:ftell.obj
 0001:0003acea       _ftell                     1003bcea f   libucrt:ftell.obj
 0001:0003ad8b       __fwrite_nolock            1003bd8b f   libucrt:fwrite.obj
 0001:0003af06       _fwrite                    1003bf06 f   libucrt:fwrite.obj
 0001:0003b089       _setvbuf                   1003c089 f   libucrt:setvbuf.obj
 0001:0003b41e       ___acrt_stdio_free_tmpfile_name_buffers_nolock 1003c41e f   libucrt:tmpfile.obj
 0001:0003b479       _tmpfile                   1003c479 f   libucrt:tmpfile.obj
 0001:0003b4e8       ??$assemble_floating_point_ind@N@__crt_strtox@@YAXAAN@Z 1003c4e8 f i libucrt:input.obj
 0001:0003b517       ??$assemble_floating_point_infinity@N@__crt_strtox@@YAX_NAAN@Z 1003c517 f i libucrt:input.obj
 0001:0003b552       ??$assemble_floating_point_qnan@N@__crt_strtox@@YAX_NAAN@Z 1003c552 f i libucrt:input.obj
 0001:0003b58d       ??$assemble_floating_point_snan@N@__crt_strtox@@YAX_NAAN@Z 1003c58d f i libucrt:input.obj
 0001:0003b5cd       ??$assemble_floating_point_value_t@M@__crt_strtox@@YA?AW4SLD_STATUS@@_NH_KAAM@Z 1003c5cd f i libucrt:input.obj
 0001:0003b5fd       ??$assemble_floating_point_value_t@N@__crt_strtox@@YA?AW4SLD_STATUS@@_NH_KAAN@Z 1003c5fd f i libucrt:input.obj
 0001:0003b656       ??$assemble_floating_point_zero@N@__crt_strtox@@YAX_NAAN@Z 1003c656 f i libucrt:input.obj
 0001:0003b691       ??$convert_decimal_string_to_floating_type@M@__crt_strtox@@YA?AW4SLD_STATUS@@ABUfloating_point_string@0@AAM@Z 1003c691 f i libucrt:input.obj
 0001:0003b6b4       ??$convert_decimal_string_to_floating_type@N@__crt_strtox@@YA?AW4SLD_STATUS@@ABUfloating_point_string@0@AAN@Z 1003c6b4 f i libucrt:input.obj
 0001:0003b6d7       ??$convert_hexadecimal_string_to_floating_type@M@__crt_strtox@@YA?AW4SLD_STATUS@@ABUfloating_point_string@0@AAM@Z 1003c6d7 f i libucrt:input.obj
 0001:0003b6fa       ??$convert_hexadecimal_string_to_floating_type@N@__crt_strtox@@YA?AW4SLD_STATUS@@ABUfloating_point_string@0@AAN@Z 1003c6fa f i libucrt:input.obj
 0001:0003b71d       ??$is_overflow_condition@_K@__crt_strtox@@YA_NI_K@Z 1003c71d f i libucrt:input.obj
 0001:0003b75e       ??$make_input_adapter_character_source@V?$stream_input_adapter@D@__crt_stdio_input@@@__crt_strtox@@YA?AV?$input_adapter_character_source@V?$stream_input_adapter@D@__crt_stdio_input@@@0@QAV?$stream_input_adapter@D@__crt_stdio_input@@_KQA_N@Z 1003c75e f i libucrt:input.obj
 0001:0003b77c       ??$parse_floating_point@V?$input_adapter_character_source@V?$stream_input_adapter@D@__crt_stdio_input@@@__crt_strtox@@M@__crt_strtox@@YA?AW4SLD_STATUS@@QAU__crt_locale_pointers@@V?$input_adapter_character_source@V?$stream_input_adapter@D@__crt_stdio_input@@@0@QAM@Z 1003c77c f i libucrt:input.obj
 0001:0003b7f7       ??$parse_floating_point@V?$input_adapter_character_source@V?$stream_input_adapter@D@__crt_stdio_input@@@__crt_strtox@@N@__crt_strtox@@YA?AW4SLD_STATUS@@QAU__crt_locale_pointers@@V?$input_adapter_character_source@V?$stream_input_adapter@D@__crt_stdio_input@@@0@QAN@Z 1003c7f7 f i libucrt:input.obj
 0001:0003b872       ??$parse_floating_point_from_source@V?$input_adapter_character_source@V?$stream_input_adapter@D@__crt_stdio_input@@@__crt_strtox@@@__crt_strtox@@YA?AW4floating_point_parse_result@0@QAU__crt_locale_pointers@@AAV?$input_adapter_character_source@V?$stream_input_adapter@D@__crt_stdio_input@@@0@AAUfloating_point_string@0@@Z 1003c872 f i libucrt:input.obj
 0001:0003bcd4       ??$parse_floating_point_possible_infinity@DV?$input_adapter_character_source@V?$stream_input_adapter@D@__crt_stdio_input@@@__crt_strtox@@_K@__crt_strtox@@YA?AW4floating_point_parse_result@0@AADAAV?$input_adapter_character_source@V?$stream_input_adapter@D@__crt_stdio_input@@@0@_K@Z 1003ccd4 f i libucrt:input.obj
 0001:0003bd95       ??$parse_floating_point_possible_nan@DV?$input_adapter_character_source@V?$stream_input_adapter@D@__crt_stdio_input@@@__crt_strtox@@_K@__crt_strtox@@YA?AW4floating_point_parse_result@0@AADAAV?$input_adapter_character_source@V?$stream_input_adapter@D@__crt_stdio_input@@@0@_K@Z 1003cd95 f i libucrt:input.obj
 0001:0003bea7       ??$parse_floating_point_possible_nan_is_ind@DV?$input_adapter_character_source@V?$stream_input_adapter@D@__crt_stdio_input@@@__crt_strtox@@@__crt_strtox@@YA_NAADAAV?$input_adapter_character_source@V?$stream_input_adapter@D@__crt_stdio_input@@@0@@Z 1003cea7 f i libucrt:input.obj
 0001:0003bee1       ??$parse_floating_point_possible_nan_is_snan@DV?$input_adapter_character_source@V?$stream_input_adapter@D@__crt_stdio_input@@@__crt_strtox@@@__crt_strtox@@YA_NAADAAV?$input_adapter_character_source@V?$stream_input_adapter@D@__crt_stdio_input@@@0@@Z 1003cee1 f i libucrt:input.obj
 0001:0003bf1b       ??$parse_floating_point_write_result@M@__crt_strtox@@YA?AW4SLD_STATUS@@W4floating_point_parse_result@0@ABUfloating_point_string@0@QAM@Z 1003cf1b f i libucrt:input.obj
 0001:0003c02b       ??$parse_floating_point_write_result@N@__crt_strtox@@YA?AW4SLD_STATUS@@W4floating_point_parse_result@0@ABUfloating_point_string@0@QAN@Z 1003d02b f i libucrt:input.obj
 0001:0003c12f       ??$parse_integer@_KV?$input_adapter_character_source@V?$stream_input_adapter@D@__crt_stdio_input@@@__crt_strtox@@@__crt_strtox@@YA_KQAU__crt_locale_pointers@@V?$input_adapter_character_source@V?$stream_input_adapter@D@__crt_stdio_input@@@0@H_N@Z 1003d12f f i libucrt:input.obj
 0001:0003c3e6       ??$process_floating_point_specifier_t@M@?$input_processor@DV?$stream_input_adapter@D@__crt_stdio_input@@@__crt_stdio_input@@AAE_NXZ 1003d3e6 f i libucrt:input.obj
 0001:0003c44e       ??$process_floating_point_specifier_t@N@?$input_processor@DV?$stream_input_adapter@D@__crt_stdio_input@@@__crt_stdio_input@@AAE_NXZ 1003d44e f i libucrt:input.obj
 0001:0003c4b6       ??$process_string_specifier_tchar@D@?$input_processor@DV?$stream_input_adapter@D@__crt_stdio_input@@@__crt_stdio_input@@AAE_NW4conversion_mode@1@D@Z 1003d4b6 f i libucrt:input.obj
 0001:0003c629       ??$process_string_specifier_tchar@_W@?$input_processor@DV?$stream_input_adapter@D@__crt_stdio_input@@@__crt_stdio_input@@AAE_NW4conversion_mode@1@_W@Z 1003d629 f i libucrt:input.obj
 0001:0003c7a6       ??$skip_whitespace@Vstream_input_adapter@__crt_stdio_input@@D@__crt_stdio_input@@YAHAAV?$stream_input_adapter@D@0@QAU__crt_locale_pointers@@@Z 1003d7a6 f i libucrt:input.obj
 0001:0003c7dd       ??$write_floating_point@M@?$input_processor@DV?$stream_input_adapter@D@__crt_stdio_input@@@__crt_stdio_input@@AAE_NABM@Z 1003d7dd f i libucrt:input.obj
 0001:0003c811       ??$write_floating_point@N@?$input_processor@DV?$stream_input_adapter@D@__crt_stdio_input@@@__crt_stdio_input@@AAE_NABN@Z 1003d811 f i libucrt:input.obj
 0001:0003c84b       ??0?$format_string_parser@D@__crt_stdio_input@@QAE@_KQBE@Z 1003d84b f i libucrt:input.obj
 0001:0003c895       ??0?$input_adapter_character_source@V?$stream_input_adapter@D@__crt_stdio_input@@@__crt_strtox@@QAE@QAV?$stream_input_adapter@D@__crt_stdio_input@@_KQA_N@Z 1003d895 f i libucrt:input.obj
 0001:0003c8c6       ??0?$input_processor@DV?$stream_input_adapter@D@__crt_stdio_input@@@__crt_stdio_input@@QAE@ABV?$stream_input_adapter@D@1@_KQBDQAU__crt_locale_pointers@@QAD@Z 1003d8c6 f i libucrt:input.obj
 0001:0003c9bb       ?advance@?$format_string_parser@D@__crt_stdio_input@@QAE_NXZ 1003d9bb f i libucrt:input.obj
 0001:0003cadd       ?as_double@floating_point_value@__crt_strtox@@QBEAANXZ 1003dadd f i libucrt:input.obj
 0001:0003cb02       ?as_float@floating_point_value@__crt_strtox@@QBEAAMXZ 1003db02 f i libucrt:input.obj
 0001:0003cb27       ?assemble_floating_point_infinity@__crt_strtox@@YAX_NABVfloating_point_value@1@@Z 1003db27 f i libucrt:input.obj
 0001:0003cb5d       ?assemble_floating_point_value@__crt_strtox@@YA?AW4SLD_STATUS@@_KH_N1ABVfloating_point_value@1@@Z 1003db5d f i libucrt:input.obj
 0001:0003cea5       ?assemble_floating_point_value_from_big_integer@__crt_strtox@@YA?AW4SLD_STATUS@@ABUbig_integer@1@I_N1ABVfloating_point_value@1@@Z 1003dea5 f i libucrt:input.obj
 0001:0003d035       ?assemble_floating_point_zero@__crt_strtox@@YAX_NABVfloating_point_value@1@@Z 1003e035 f i libucrt:input.obj
 0001:0003d065       ?convert_decimal_string_to_floating_type_common@__crt_strtox@@YA?AW4SLD_STATUS@@ABUfloating_point_string@1@ABVfloating_point_value@1@@Z 1003e065 f i libucrt:input.obj
 0001:0003ed97       ?convert_hexadecimal_string_to_floating_type_common@__crt_strtox@@YA?AW4SLD_STATUS@@ABUfloating_point_string@1@ABVfloating_point_value@1@@Z 1003fd97 f i libucrt:input.obj
 0001:0003ee3f       ?denormal_mantissa_mask@floating_point_value@__crt_strtox@@QBE_KXZ 1003fe3f f i libucrt:input.obj
 0001:0003ee60       ?divide@__crt_strtox@@YA_KAAUbig_integer@1@ABU21@@Z 1003fe60 f i libucrt:input.obj
 0001:0003f302       ?get@?$input_adapter_character_source@V?$stream_input_adapter@D@__crt_stdio_input@@@__crt_strtox@@QAEDXZ 10040302 f i libucrt:input.obj
 0001:0003f33b       ?invert@?$scanset_buffer@E@__crt_stdio_input@@QAEXXZ 1004033b f i libucrt:input.obj
 0001:0003f359       ?is_character_allowed_in_string@?$input_processor@DV?$stream_input_adapter@D@__crt_stdio_input@@@__crt_stdio_input@@ABE_NW4conversion_mode@2@H@Z 10040359 f i libucrt:input.obj
 0001:0003f3ad       ?length@?$format_string_parser@D@__crt_stdio_input@@QBEIXZ 100403ad f i libucrt:input.obj
 0001:0003f3ee       ?normal_mantissa_mask@floating_point_value@__crt_strtox@@QBE_KXZ 100403ee f i libucrt:input.obj
 0001:0003f405       ?process@?$input_processor@DV?$stream_input_adapter@D@__crt_stdio_input@@@__crt_stdio_input@@QAEHXZ 10040405 f i libucrt:input.obj
 0001:0003f495       ?process_character_count_specifier@?$input_processor@DV?$stream_input_adapter@D@__crt_stdio_input@@@__crt_stdio_input@@AAE_NXZ 10040495 f i libucrt:input.obj
 0001:0003f4a9       ?process_conversion_specifier@?$input_processor@DV?$stream_input_adapter@D@__crt_stdio_input@@@__crt_stdio_input@@AAE_NXZ 100404a9 f i libucrt:input.obj
 0001:0003f51d       ?process_floating_point_specifier@?$input_processor@DV?$stream_input_adapter@D@__crt_stdio_input@@@__crt_stdio_input@@AAE_NXZ 1004051d f i libucrt:input.obj
 0001:0003f54d       ?process_integer_specifier@?$input_processor@DV?$stream_input_adapter@D@__crt_stdio_input@@@__crt_stdio_input@@AAE_NI_N@Z 1004054d f i libucrt:input.obj
 0001:0003f5b1       ?process_literal_character@?$input_processor@DV?$stream_input_adapter@D@__crt_stdio_input@@@__crt_stdio_input@@AAE_NXZ 100405b1 f i libucrt:input.obj
 0001:0003f5e7       ?process_literal_character_tchar@?$input_processor@DV?$stream_input_adapter@D@__crt_stdio_input@@@__crt_stdio_input@@AAE_ND@Z 100405e7 f i libucrt:input.obj
 0001:0003f642       ?process_state@?$input_processor@DV?$stream_input_adapter@D@__crt_stdio_input@@@__crt_stdio_input@@AAE_NXZ 10040642 f i libucrt:input.obj
 0001:0003f684       ?process_string_specifier@?$input_processor@DV?$stream_input_adapter@D@__crt_stdio_input@@@__crt_stdio_input@@AAE_NW4conversion_mode@2@@Z 10040684 f i libucrt:input.obj
 0001:0003f6cc       ?process_whitespace@?$input_processor@DV?$stream_input_adapter@D@__crt_stdio_input@@@__crt_stdio_input@@AAE_NXZ 100406cc f i libucrt:input.obj
 0001:0003f6e9       ?restore_state@?$input_adapter_character_source@V?$stream_input_adapter@D@__crt_stdio_input@@@__crt_strtox@@QAE_N_K@Z 100406e9 f i libucrt:input.obj
 0001:0003f70e       ?scan_conversion_specifier@?$format_string_parser@D@__crt_stdio_input@@AAE_NXZ 1004070e f i libucrt:input.obj
 0001:0003f87e       ?scan_optional_field_width@?$format_string_parser@D@__crt_stdio_input@@AAE_NXZ 1004087e f i libucrt:input.obj
 0001:0003f91d       ?scan_optional_length_modifier@?$format_string_parser@D@__crt_stdio_input@@AAEXXZ 1004091d f i libucrt:input.obj
 0001:0003fa3d       ?scan_optional_literal_character_trail_bytes_tchar@?$format_string_parser@D@__crt_stdio_input@@AAE_ND@Z 10040a3d f i libucrt:input.obj
 0001:0003fa8f       ?scan_optional_wide_modifier@?$format_string_parser@D@__crt_stdio_input@@AAEXXZ 10040a8f f i libucrt:input.obj
 0001:0003faad       ?scan_scanset_range@?$format_string_parser@D@__crt_stdio_input@@AAE_NXZ 10040aad f i libucrt:input.obj
 0001:0003fbb8       ?set_wide_for_c_s_or_scanset@?$format_string_parser@D@__crt_stdio_input@@AAEXXZ 10040bb8 f i libucrt:input.obj
 0001:0003fbd8       ?to_floating_point_length@__crt_stdio_input@@YAIW4length_modifier@1@@Z 10040bd8 f i libucrt:input.obj
 0001:0003fbfb       ?to_integer_length@__crt_stdio_input@@YAIW4length_modifier@1@@Z 10040bfb f i libucrt:input.obj
 0001:0003fc53       ?unget@?$input_adapter_character_source@V?$stream_input_adapter@D@__crt_stdio_input@@@__crt_strtox@@QAEXD@Z 10040c53 f i libucrt:input.obj
 0001:0003fc94       ?unget@?$stream_input_adapter@D@__crt_stdio_input@@QAEXH@Z 10040c94 f i libucrt:input.obj
 0001:0003fcb2       ?validate@?$format_string_parser@D@__crt_stdio_input@@QBE_NXZ 10040cb2 f i libucrt:input.obj
 0001:0003fcce       ?validate@?$input_adapter_character_source@V?$stream_input_adapter@D@__crt_stdio_input@@@__crt_strtox@@QBE_NXZ 10040cce f i libucrt:input.obj
 0001:0003fcef       ?write_character@?$input_processor@DV?$stream_input_adapter@D@__crt_stdio_input@@@__crt_stdio_input@@AAE_NQA_WIAAPA_WAAID@Z 10040cef f i libucrt:input.obj
 0001:0003fd67       ?write_integer@?$input_processor@DV?$stream_input_adapter@D@__crt_stdio_input@@@__crt_stdio_input@@AAE_N_K@Z 10040d67 f i libucrt:input.obj
 0001:0003fdd5       ___stdio_common_vfscanf    10040dd5 f   libucrt:input.obj
 0001:00040062       __wdupenv_s                10041062 f   libucrt:getenv.obj
 0001:00040080       __wgetenv                  10041080 f   libucrt:getenv.obj
 0001:0004018b       __wsystem                  1004118b f   libucrt:system.obj
 0001:00040196       _wcscmp                    10041196 f   libucrt:wcscmp.obj
 0001:000401d2       __seh_filter_dll           100411d2 f   libucrt:exception_filter.obj
 0001:000401f2       __seh_filter_exe           100411f2 f   libucrt:exception_filter.obj
 0001:000405ed       ___acrt_initialize_thread_local_exit_callback 100415ed f   libucrt:exit.obj
 0001:000405fc       __cexit                    100415fc f   libucrt:exit.obj
 0001:0004060b       __exit                     1004160b f   libucrt:exit.obj
 0001:00040621       __is_c_termination_complete 10041621 f   libucrt:exit.obj
 0001:000408d1       ___acrt_allocate_buffer_for_argv 100418d1 f   libucrt:argv_parsing.obj
 0001:00040920       __configure_narrow_argv    10041920 f   libucrt:argv_parsing.obj
 0001:00040c6b       ??$uninitialize@A6AXAAPAPAD@Z@?$dual_state_global@PAPAD@__crt_state_management@@QAEXA6AXAAPAPAD@Z@Z 10041c6b f i libucrt:environment_initialization.obj
 0001:00040c6b       ??$uninitialize@A6AXAAPAPA_W@Z@?$dual_state_global@PAPA_W@__crt_state_management@@QAEXA6AXAAPAPA_W@Z@Z 10041c6b f i libucrt:environment_initialization.obj
 0001:00040ce1       ___dcrt_get_or_create_wide_environment_nolock 10041ce1 f   libucrt:environment_initialization.obj
 0001:00040ce6       ___dcrt_uninitialize_environments_nolock 10041ce6 f   libucrt:environment_initialization.obj
 0001:00040d1d       __initialize_narrow_environment 10041d1d f   libucrt:environment_initialization.obj
 0001:00040dc4       ??$__crt_fast_encode_pointer@P6AHXZ@@YAP6AHXZQ6AHXZ@Z 10041dc4 f i libucrt:onexit.obj
 0001:00041048       __crt_atexit               10042048 f   libucrt:onexit.obj
 0001:0004105e       __execute_onexit_table     1004205e f   libucrt:onexit.obj
 0001:0004108d       __initialize_onexit_table  1004208d f   libucrt:onexit.obj
 0001:000410ca       __register_onexit_function 100420ca f   libucrt:onexit.obj
 0001:00041126       ___acrt_uninitialize_command_line 10042126 f   libucrt:argv_data.obj
 0001:0004120e       ___acrt_initialize         1004220e f   libucrt:initialization.obj
 0001:00041220       ___acrt_thread_attach      10042220 f   libucrt:initialization.obj
 0001:0004122b       ___acrt_thread_detach      1004222b f   libucrt:initialization.obj
 0001:00041233       ___acrt_uninitialize       10042233 f   libucrt:initialization.obj
 0001:00041263       ___acrt_uninitialize_critical 10042263 f   libucrt:initialization.obj
 0001:00041275       __initterm                 10042275 f   libucrt:initterm.obj
 0001:000412d1       __initterm_e               100422d1 f   libucrt:initterm.obj
 0001:00041316       _terminate                 10042316 f   libucrt:terminate.obj
 0001:000414c1       __freea_crt                100424c1 f i libucrt:strupr.obj
 0001:000414e1       __strupr                   100424e1 f   libucrt:strupr.obj
 0001:000414e1       _strupr                    100424e1 f   libucrt:strupr.obj
 0001:0004153f       __strupr_s_l               1004253f f   libucrt:strupr.obj
 0001:00041578       _strcpy_s                  10042578 f   libucrt:strcpy_s.obj
 0001:000415d2       _abort                     100425d2 f   libucrt:abort.obj
 0001:00041616       _calloc                    10042616 f   libucrt:calloc.obj
 0001:00041621       _wcsncmp                   10042621 f   libucrt:wcsncmp.obj
 0001:0004165b       ??$is_overflow_condition@K@__crt_strtox@@YA_NIK@Z 1004265b f i libucrt:atox.obj
 0001:0004168c       ??$parse_integer@KV?$c_string_character_source@D@__crt_strtox@@@__crt_strtox@@YAKQAU__crt_locale_pointers@@V?$c_string_character_source@D@0@H_N@Z 1004268c f i libucrt:atox.obj
 0001:000418b5       ??$parse_integer@KV?$c_string_character_source@_W@__crt_strtox@@@__crt_strtox@@YAKQAU__crt_locale_pointers@@V?$c_string_character_source@_W@0@H_N@Z 100428b5 f i libucrt:atox.obj
 0001:00041f96       ??$parse_integer@_KV?$c_string_character_source@D@__crt_strtox@@@__crt_strtox@@YA_KQAU__crt_locale_pointers@@V?$c_string_character_source@D@0@H_N@Z 10042f96 f i libucrt:atox.obj
 0001:0004223c       ?unget@?$c_string_character_source@D@__crt_strtox@@QAEXD@Z 1004323c f i libucrt:atox.obj
 0001:00042264       ?unget@?$c_string_character_source@_W@__crt_strtox@@QAEX_W@Z 10043264 f i libucrt:atox.obj
 0001:00042290       ___acrt_call_reportfault   10043290 f   libucrt:invalid_parameter.obj
 0001:000423cb       ___acrt_initialize_invalid_parameter_handler 100433cb f   libucrt:invalid_parameter.obj
 0001:000423da       __invalid_parameter        100433da f   libucrt:invalid_parameter.obj
 0001:00042455       __invalid_parameter_noinfo 10043455 f   libucrt:invalid_parameter.obj
 0001:00042465       __invoke_watson            10043465 f   libucrt:invalid_parameter.obj
 0001:000425ff       __tolower_l                100435ff f   libucrt:tolower_toupper.obj
 0001:00042619       _tolower                   10043619 f   libucrt:tolower_toupper.obj
 0001:00042649       __free_base                10043649 f   libucrt:free_base.obj
 0001:00042683       __malloc_base              10043683 f   libucrt:malloc_base.obj
 0001:000426d1       ??$make_c_string_character_source@_WPAPA_W@__crt_strtox@@YA?AV?$c_string_character_source@_W@0@QB_WQAPA_W@Z 100436d1 f i libucrt:strtox.obj
 0001:000426d1       ??$make_c_string_character_source@DPAPAD@__crt_strtox@@YA?AV?$c_string_character_source@D@0@QBDQAPAD@Z 100436d1 f i libucrt:strtox.obj
 0001:000426ec       _strtol                    100436ec f   libucrt:strtox.obj
 0001:00042718       _strtoull                  10043718 f   libucrt:strtox.obj
 0001:00042744       _wcstol                    10043744 f   libucrt:strtox.obj
 0001:00042770       __mbtowc_l                 10043770 f   libucrt:mbtowc.obj
 0001:0004286e       _mbtowc                    1004386e f   libucrt:mbtowc.obj
 0001:00042888       __wctomb_s_l               10043888 f   libucrt:wctomb.obj
 0001:000429ab       _wctomb_s                  100439ab f   libucrt:wctomb.obj
 0001:000429c8       _strnlen                   100439c8 f   libucrt:strnlen.obj
 0001:00042aea       _wcsnlen                   10043aea f   libucrt:strnlen.obj
 0001:00042faf       ___acrt_freeptd            10043faf f   libucrt:per_thread_data.obj
 0001:00042fdb       ___acrt_getptd             10043fdb f   libucrt:per_thread_data.obj
 0001:0004308f       ___acrt_getptd_head        1004408f f   libucrt:per_thread_data.obj
 0001:00043129       ___acrt_getptd_noexit      10044129 f   libucrt:per_thread_data.obj
 0001:000431dc       ___acrt_initialize_ptd     100441dc f   libucrt:per_thread_data.obj
 0001:00043208       ___acrt_uninitialize_ptd   10044208 f   libucrt:per_thread_data.obj
 0001:00043222       ___acrt_update_locale_info 10044222 f   libucrt:locale_update.obj
 0001:0004324f       ___acrt_update_multibyte_info 1004424f f   libucrt:locale_update.obj
 0001:0004327c       ?__acrt_fp_classify@@YA?AW4__acrt_fp_class@@ABN@Z 1004427c f i libucrt:cvt.obj
 0001:00043b42       ___acrt_fp_format          10044b42 f   libucrt:cvt.obj
 0001:00043c7b       __fileno                   10044c7b f   libucrt:fileno.obj
 0001:00043ca1       __fputc_nolock             10044ca1 f   libucrt:fputc.obj
 0001:00043cca       __get_printf_count_output  10044cca f   libucrt:printf_count_output.obj
 0001:00043cdf       ___acrt_stdio_begin_temporary_buffering_nolock 10044cdf f   libucrt:_sftbuf.obj
 0001:00043d94       ___acrt_stdio_end_temporary_buffering_nolock 10044d94 f   libucrt:_sftbuf.obj
 0001:00043e31       ___acrt_set_locale_changed 10044e31 f   libucrt:wsetlocale.obj
 0001:00043e3c       ___acrt_uninitialize_locale 10044e3c f   libucrt:wsetlocale.obj
 0001:00043fd1       ___acrt_initialize_lowio   10044fd1 f   libucrt:ioinit.obj
 0001:00044027       ___acrt_uninitialize_lowio 10045027 f   libucrt:ioinit.obj
 0001:00044053       _wcscpy_s                  10045053 f   libucrt:wcscpy_s.obj
 0001:000440b7       ?__acrt_stdio_allocate_stream@@YA?AV__crt_stdio_stream@@XZ 100450b7 f   libucrt:stream.obj
 0001:00044116       ?__acrt_stdio_free_stream@@YAXV__crt_stdio_stream@@@Z 10045116 f   libucrt:stream.obj
 0001:00044214       ??$__acrt_stdio_parse_mode@_W@@YA?AU__acrt_stdio_stream_mode@@QB_W@Z 10045214 f i libucrt:openfile.obj
 0001:000444e3       ?__acrt_stdio_parse_mode_D@@YA_NAAU__acrt_stdio_stream_mode@@@Z 100454e3 f i libucrt:openfile.obj
 0001:000444fe       ?__acrt_stdio_parse_mode_T@@YA_NAAU__acrt_stdio_stream_mode@@@Z 100454fe f i libucrt:openfile.obj
 0001:0004451d       ?__acrt_stdio_parse_mode_b@@YA_NAAU__acrt_stdio_stream_mode@@@Z 1004551d f i libucrt:openfile.obj
 0001:0004453d       ?__acrt_stdio_parse_mode_c@@YA_NAAU__acrt_stdio_stream_mode@@AA_N@Z 1004553d f i libucrt:openfile.obj
 0001:0004455f       ?__acrt_stdio_parse_mode_n@@YA_NAAU__acrt_stdio_stream_mode@@AA_N@Z 1004555f f i libucrt:openfile.obj
 0001:00044581       ?__acrt_stdio_parse_mode_plus@@YA_NAAU__acrt_stdio_stream_mode@@AA_N@Z 10045581 f i libucrt:openfile.obj
 0001:000445b6       ?__acrt_stdio_parse_mode_t@@YA_NAAU__acrt_stdio_stream_mode@@@Z 100455b6 f i libucrt:openfile.obj
 0001:000445d6       __wopenfile                100455d6 f   libucrt:openfile.obj
 0001:00044663       __close                    10045663 f   libucrt:close.obj
 0001:000446f2       __close_nolock             100456f2 f   libucrt:close.obj
 0001:0004478e       ___acrt_stdio_free_buffer_nolock 1004578e f   libucrt:_freebuf.obj
 0001:00044890       ___acrt_get_sigabrt_handler 10045890 f   libucrt:signal.obj
 0001:000448b9       ___acrt_initialize_signal_handlers 100458b9 f   libucrt:signal.obj
 0001:000448d7       ___fpecode                 100458d7 f   libucrt:signal.obj
 0001:000448e0       _raise                     100458e0 f   libucrt:signal.obj
 0001:00044ad6       ___set_fpsr_sse2           10045ad6 f   libucrt:fpctrl.obj
 0001:00044b4c       __clrfp                    10045b4c f   libucrt:fpctrl.obj
 0001:00044b5f       __ctrlfp                   10045b5f f   libucrt:fpctrl.obj
 0001:00044b8b       __set_statfp               10045b8b f   libucrt:fpctrl.obj
 0001:00044be6       __statfp                   10045be6 f   libucrt:fpctrl.obj
 0001:00044bf8       __calloc_base              10045bf8 f   libucrt:calloc_base.obj
 0001:00044c55       ___sys_errlist             10045c55 f   libucrt:syserr.obj
 0001:00044c5b       ___sys_nerr                10045c5b f   libucrt:syserr.obj
 0001:00044d12       _strncpy_s                 10045d12 f   libucrt:strncpy_s.obj
 0001:00044ecf       ___acrt_AppPolicyGetProcessTerminationMethodInternal@4 10045ecf f   libucrt:winapi_thunks.obj
 0001:00044f26       ___acrt_AreFileApisANSI@0  10045f26 f   libucrt:winapi_thunks.obj
 0001:00044f60       ___acrt_CompareStringEx@36 10045f60 f   libucrt:winapi_thunks.obj
 0001:00044fd4       ___acrt_FlsAlloc@4         10045fd4 f   libucrt:winapi_thunks.obj
 0001:0004502a       ___acrt_FlsFree@4          1004602a f   libucrt:winapi_thunks.obj
 0001:00045080       ___acrt_FlsGetValue@4      10046080 f   libucrt:winapi_thunks.obj
 0001:000450d6       ___acrt_FlsSetValue@8      100460d6 f   libucrt:winapi_thunks.obj
 0001:0004512f       ___acrt_InitializeCriticalSectionEx@12 1004612f f   libucrt:winapi_thunks.obj
 0001:00045191       ___acrt_LCMapStringEx@36   10046191 f   libucrt:winapi_thunks.obj
 0001:00045205       ___acrt_LocaleNameToLCID@8 10046205 f   libucrt:winapi_thunks.obj
 0001:0004524d       ___acrt_initialize_winapi_thunks 1004624d f   libucrt:winapi_thunks.obj
 0001:00045289       ___acrt_uninitialize_winapi_thunks 10046289 f   libucrt:winapi_thunks.obj
 0001:000452bf       __fcloseall                100462bf f   libucrt:closeall.obj
 0001:00045820       __read                     10046820 f   libucrt:read.obj
 0001:0004592a       __read_nolock              1004692a f   libucrt:read.obj
 0001:00045e62       ___acrt_stdio_refill_and_read_narrow_nolock 10046e62 f   libucrt:_filbuf.obj
 0001:000461b0       __lseek                    100471b0 f   libucrt:lseek.obj
 0001:000461bb       __lseeki64                 100471bb f   libucrt:lseek.obj
 0001:000461d6       __lseeki64_nolock          100471d6 f   libucrt:lseek.obj
 0001:000461f1       ___acrt_stdio_allocate_buffer_nolock 100471f1 f   libucrt:_getbuf.obj
 0001:0004624e       ___acrt_GetStringTypeW     1004724e f   libucrt:getstringtypew.obj
 0001:00046267       ___pctype_func             10047267 f   libucrt:ctype.obj
 0001:0004628d       __isctype_l                1004728d f   libucrt:isctype.obj
 0001:0004635f       __towlower_l               1004735f f   libucrt:towlower.obj
 0001:00046428       __recalloc                 10047428 f   libucrt:recalloc.obj
 0001:00046433       __recalloc_base            10047433 f   libucrt:recalloc.obj
 0001:000464a0       _wcscat_s                  100474a0 f   libucrt:wcscat_s.obj
 0001:00046515       __cwait                    10047515 f   libucrt:wait.obj
 0001:00046693       ___acrt_wgetpath           10047693 f   libucrt:getpath.obj
 0001:0004669e       ___acrt_initialize_locks   1004769e f   libucrt:locks.obj
 0001:000466df       ___acrt_lock               100476df f   libucrt:locks.obj
 0001:000466f6       ___acrt_uninitialize_locks 100476f6 f   libucrt:locks.obj
 0001:00046727       ___acrt_unlock             10047727 f   libucrt:locks.obj
 0001:0004673e       __waccess_s                1004773e f   libucrt:waccess.obj
 0001:000467fe       __pipe                     100477fe f   libucrt:pipe.obj
 0001:00046b66       __wfdopen                  10047b66 f   libucrt:fdopen.obj
 0001:00046c09       __commit                   10047c09 f   libucrt:commit.obj
 0001:00047229       __write                    10048229 f   libucrt:write.obj
 0001:00047311       __write_nolock             10048311 f   libucrt:write.obj
 0001:000476ff       ___acrt_stdio_flush_and_write_narrow_nolock 100486ff f   libucrt:_flsbuf.obj
 0001:0004781f       __ui64toa_s                1004881f f   libucrt:xtoa.obj
 0001:0004783f       __strdup                   1004883f f   libucrt:strdup.obj
 0001:00047895       ___acrt_GetTempPathA       10048895 f   libucrt:gettemppath.obj
 0001:00047f8e       __sopen_nolock             10048f8e f   libucrt:open.obj
 0001:00047fdf       __sopen_s                  10048fdf f   libucrt:open.obj
 0001:00047fff       __wsopen_nolock            10048fff f   libucrt:open.obj
 0001:00048328       __wsopen_s                 10049328 f   libucrt:open.obj
 0001:00048348       ___acrt_uninitialize_tmpfile 10049348 f   libucrt:rmtmp.obj
 0001:00048352       __rmtmp                    10049352 f   libucrt:rmtmp.obj
 0001:000483e9       _fegetround                100493e9 f   libucrt:fegetround.obj
 0001:000483f6       __wcsnicoll                100493f6 f   libucrt:wcsnicol.obj
 0001:000484bd       __wcsnicoll_l              100494bd f   libucrt:wcsnicol.obj
 0001:00048bc5       __wspawnve                 10049bc5 f   libucrt:spawnv.obj
 0001:00048eb9       __wspawnvpe                10049eb9 f   libucrt:spawnvp.obj
 0001:00048ec4       ___acrt_get_process_end_policy 10049ec4 f   libucrt:win_policies.obj
 0001:000493a9       ___acrt_expand_narrow_argv_wildcards 1004a3a9 f   libucrt:argv_wildcards.obj
 0001:000498d2       ___acrt_initialize_multibyte 1004a8d2 f   libucrt:mbctype.obj
 0001:0004991a       ___acrt_update_thread_multibyte_data 1004a91a f   libucrt:mbctype.obj
 0001:0004992d       __setmbcp_nolock           1004a92d f   libucrt:mbctype.obj
 0001:00049b80       __ismbblead                1004ab80 f   libucrt:ismbbyte.obj
 0001:00049b98       ___acrt_initialize_command_line 1004ab98 f   libucrt:argv_data.obj
 0001:00049be8       ___dcrt_get_narrow_environment_from_os 1004abe8 f   libucrt:get_environment_from_os.obj
 0001:00049c6b       ___dcrt_get_wide_environment_from_os 1004ac6b f   libucrt:get_environment_from_os.obj
 0001:0004a045       ___dcrt_set_variable_in_wide_environment_nolock 1004b045 f   libucrt:setenv.obj
 0001:0004a050       ___acrt_initialize_heap    1004b050 f   libucrt:heap_handle.obj
 0001:0004a061       ___acrt_uninitialize_heap  1004b061 f   libucrt:heap_handle.obj
 0001:0004a06b       ___acrt_execute_initializers 1004b06b f   libucrt:shared_initialization.obj
 0001:0004a0ee       ___acrt_execute_uninitializers 1004b0ee f   libucrt:shared_initialization.obj
 0001:0004a136       ___acrt_initialize_new_handler 1004b136 f   libucrt:new_handler.obj
 0001:0004a145       __callnewh                 1004b145 f   libucrt:new_handler.obj
 0001:0004a189       __query_new_handler        1004b189 f   libucrt:new_handler.obj
 0001:0004a1db       ___acrt_has_user_matherr   1004b1db f   libucrt:matherr.obj
 0001:0004a1f3       ___acrt_initialize_user_matherr 1004b1f3 f   libucrt:matherr.obj
 0001:0004a202       ___acrt_invoke_user_matherr 1004b202 f   libucrt:matherr.obj
 0001:0004a431       ___acrt_LCMapStringA       1004b431 f   libucrt:lcmapstringa.obj
 0001:0004a47c       __isleadbyte_l             1004b47c f i libucrt:_wctype.obj
 0001:0004a4b5       __query_new_mode           1004b4b5 f   libucrt:new_mode.obj
 0001:0004a4bb       ___acrt_MultiByteToWideChar 1004b4bb f   libucrt:multibytetowidechar.obj
 0001:0004a4da       ___acrt_WideCharToMultiByte 1004b4da f   libucrt:widechartomultibyte.obj
 0001:0004a4ff       ___acrt_add_locale_ref     1004b4ff f   libucrt:locale_refcounting.obj
 0001:0004a57c       ___acrt_free_locale        1004b57c f   libucrt:locale_refcounting.obj
 0001:0004a6c6       ___acrt_locale_add_lc_time_reference 1004b6c6 f   libucrt:locale_refcounting.obj
 0001:0004a6ef       ___acrt_locale_free_lc_time_if_unreferenced 1004b6ef f   libucrt:locale_refcounting.obj
 0001:0004a71f       ___acrt_locale_release_lc_time_reference 1004b71f f   libucrt:locale_refcounting.obj
 0001:0004a748       ___acrt_release_locale_ref 1004b748 f   libucrt:locale_refcounting.obj
 0001:0004a7c9       ___acrt_update_thread_locale_data 1004b7c9 f   libucrt:locale_refcounting.obj
 0001:0004a840       __updatetlocinfoEx_nolock  1004b840 f   libucrt:locale_refcounting.obj
 0001:0004a890       ___acrt_fp_strflt_to_string 1004b890 f   libucrt:_fptostr.obj
 0001:0004a94c       ___acrt_fltout             1004b94c f   libucrt:cfout.obj
 0001:0004bcbf       __isatty                   1004ccbf f   libucrt:isatty.obj
 0001:0004bd15       ___acrt_locale_free_monetary 1004cd15 f   libucrt:initmon.obj
 0001:0004be13       ___acrt_locale_free_numeric 1004ce13 f   libucrt:initnum.obj
 0001:0004beb4       ___acrt_locale_free_time   1004ceb4 f   libucrt:inittime.obj
 0001:0004bf98       ___acrt_GetStringTypeA     1004cf98 f   libucrt:getstringtypea.obj
 0001:0004c09c       ___acrt_lowio_create_handle_array 1004d09c f   libucrt:osfinfo.obj
 0001:0004c116       ___acrt_lowio_destroy_handle_array 1004d116 f   libucrt:osfinfo.obj
 0001:0004c14b       ___acrt_lowio_ensure_fh_exists 1004d14b f   libucrt:osfinfo.obj
 0001:0004c1df       ___acrt_lowio_lock_fh      1004d1df f   libucrt:osfinfo.obj
 0001:0004c202       ___acrt_lowio_set_os_handle 1004d202 f   libucrt:osfinfo.obj
 0001:0004c296       ___acrt_lowio_unlock_fh    1004d296 f   libucrt:osfinfo.obj
 0001:0004c2b9       __alloc_osfhnd             1004d2b9 f   libucrt:osfinfo.obj
 0001:0004c3c2       __free_osfhnd              1004d3c2 f   libucrt:osfinfo.obj
 0001:0004c453       __get_osfhandle            1004d453 f   libucrt:osfinfo.obj
 0001:0004c4bd       __wcsnicmp                 1004d4bd f   libucrt:wcsnicmp.obj
 0001:0004c56e       __wcsnicmp_l               1004d56e f   libucrt:wcsnicmp.obj
 0001:0004c71f       ___acrt_DownlevelLocaleNameToLCID 1004d71f f   libucrt:lcidtoname_downlevel.obj
 0001:0004c74b       ___acrt_LCMapStringW       1004d74b f   libucrt:lcmapstringw.obj
 0001:0004c789       __msize                    1004d789 f   libucrt:msize.obj
 0001:0004c794       __msize_base               1004d794 f   libucrt:msize.obj
 0001:0004c7c7       __realloc_base             1004d7c7 f   libucrt:realloc_base.obj
 0001:0004c830       ___acrt_copy_path_to_wide_string 1004d830 f   libucrt:string_utilities.obj
 0001:0004c8f7       __get_fmode                1004d8f7 f   libucrt:setmode.obj
 0001:0004c923       __setmode_nolock           1004d923 f   libucrt:setmode.obj
 0001:0004c9f4       __putwch_nolock            1004d9f4 f   libucrt:putwch.obj
 0001:0004ca28       __chsize_nolock            1004da28 f   libucrt:chsize.obj
 0001:0004cf39       ___acrt_fenv_get_common_round_control 1004df39 f   libucrt:_fenvutils.obj
 0001:0004cf5b       ___acrt_fenv_get_control   1004df5b f   libucrt:_fenvutils.obj
 0001:0004cfdd       ___acrt_fenv_get_status    1004dfdd f   libucrt:_fenvutils.obj
 0001:0004d0a0       ___acrt_fenv_set_control   1004e0a0 f   libucrt:_fenvutils.obj
 0001:0004d10a       ___acrt_fenv_set_status    1004e10a f   libucrt:_fenvutils.obj
 0001:0004d203       ___acrt_CompareStringW     1004e203 f   libucrt:comparestringw.obj
 0001:0004d699       ___acrt_pack_wide_command_line_and_environment 1004e699 f   libucrt:cenvarg.obj
 0001:0004d760       _qsort                     1004e760 f   libucrt:qsort.obj
 0001:0004dba4       __mbsdec                   1004eba4 f   libucrt:mbsdec.obj
 0001:0004dbbb       __mbsdec_l                 1004ebbb f   libucrt:mbsdec.obj
 0001:0004dc41       ___strncnt                 1004ec41 f   libucrt:strncnt.obj
 0001:0004dc5d       _fegetenv                  1004ec5d f   libucrt:fegetenv.obj
 0001:0004dc7a       _fesetenv                  1004ec7a f   libucrt:fesetenv.obj
 0001:0004dcc7       _feholdexcept              1004ecc7 f   libucrt:feholdexcept.obj
 0001:0004dd20       __CIlog10                  1004ed20 f   libucrt:log10_impl.obj
 0001:0004dd5b       __CIlog10_default          1004ed5b f   libucrt:log10_impl.obj
 0001:0004dd6f       __log10_default            1004ed6f     libucrt:log10_impl.obj
 0001:0004de30       _ceil                      1004ee30 f   libucrt:ceil_pentium4.obj
 0001:0004de70       __ceil_pentium4            1004ee70 f   libucrt:ceil_pentium4.obj
 0001:0004df4d       __query_app_type           1004ef4d f   libucrt:report_runtime_error.obj
 0001:0004df60       ___ascii_strnicmp          1004ef60 f   libucrt:_strnicm.obj
 0001:0004dfe0       ___dcrt_lowio_ensure_console_output_initialized 1004efe0 f   libucrt:initcon.obj
 0001:0004dfff       ___dcrt_terminate_console_output 1004efff f   libucrt:initcon.obj
 0001:0004e016       ___dcrt_write_console_w    1004f016 f   libucrt:initcon.obj
 0001:0004e06b       ___acrt_initialize_sse2    1004f06b f   libucrt:mathfcns.obj
 0001:0004e080       __CIlog10_pentium4         1004f080 f   libucrt:log10_pentium4.obj
 0001:0004e098       __log10_pentium4           1004f098     libucrt:log10_pentium4.obj
 0001:0004e321       __fFEXP                    1004f321     libucrt:87tran.obj
 0001:0004e378       __rtinfpopse               1004f378     libucrt:87tran.obj
 0001:0004e37a       __rtinfnpopse              1004f37a     libucrt:87tran.obj
 0001:0004e38a       __fFLN                     1004f38a     libucrt:87tran.obj
 0001:0004e43f       __rtinfpop                 1004f43f     libucrt:87tran.obj
 0001:0004e441       __rtinfnpop                1004f441     libucrt:87tran.obj
 0001:0004e45e       __ffexpm1                  1004f45e     libucrt:87tran.obj
 0001:0004e510       __trandisp1                1004f510 f   libucrt:87disp.obj
 0001:0004e577       __trandisp2                1004f577 f   libucrt:87disp.obj
 0001:0004e603       __rttospopde               1004f603     libucrt:87disp.obj
 0001:0004e608       __rttospop                 1004f608     libucrt:87disp.obj
 0001:0004e60a       __rtnospop                 1004f60a     libucrt:87disp.obj
 0001:0004e60c       __rttosnpop                1004f60c     libucrt:87disp.obj
 0001:0004e60d       __rtnospopde               1004f60d     libucrt:87disp.obj
 0001:0004e614       __rtzeropop                1004f614     libucrt:87disp.obj
 0001:0004e616       __rtzeronpop               1004f616     libucrt:87disp.obj
 0001:0004e61b       __rtzerospop               1004f61b     libucrt:87disp.obj
 0001:0004e628       __rtonepop                 1004f628     libucrt:87disp.obj
 0001:0004e62a       __rtonenpop                1004f62a     libucrt:87disp.obj
 0001:0004e62f       __tosnan1                  1004f62f     libucrt:87disp.obj
 0001:0004e65a       __nosnan2                  1004f65a     libucrt:87disp.obj
 0001:0004e65c       __tosnan2                  1004f65c     libucrt:87disp.obj
 0001:0004e684       __nan2                     1004f684     libucrt:87disp.obj
 0001:0004e6c3       __rtindfpop                1004f6c3     libucrt:87disp.obj
 0001:0004e6c5       __rtindfnpop               1004f6c5     libucrt:87disp.obj
 0001:0004e6d6       __rttosnpopde              1004f6d6     libucrt:87disp.obj
 0001:0004e6e0       __rtatan2inf               1004f6e0     libucrt:87disp.obj
 0001:0004e6fd       __rtchsifneg               1004f6fd     libucrt:87disp.obj
 0001:0004e710       __twoToTOS                 1004f710 f   libucrt:common.obj
 0001:0004e725       __load_CW                  1004f725 f   libucrt:common.obj
 0001:0004e73c       __convertTOStoQNaN         1004f73c f   libucrt:common.obj
 0001:0004e755       __fload_withFB             1004f755 f   libucrt:common.obj
 0001:0004e798       __checkTOS_withFB          1004f798 f   libucrt:common.obj
 0001:0004e7ae       __fast_exit                1004f7ae f   libucrt:common.obj
 0001:0004e7bb       __math_exit                1004f7bb f   libucrt:common.obj
 0001:0004e7e5       __check_overflow_exit      1004f7e5 f   libucrt:common.obj
 0001:0004e7f9       __check_range_exit         1004f7f9 f   libucrt:common.obj
 0001:0004e8a0       __startTwoArgErrorHandling 1004f8a0 f   libucrt:genexcep.obj
 0001:0004e8b7       __startOneArgErrorHandling 1004f8b7 f   libucrt:genexcep.obj
 0001:0004e8f3       ___libm_error_support      1004f8f3 f   libucrt:libm_error.obj
 0001:0004eb0b       __ceil_default             1004fb0b f   libucrt:ceil.obj
 0001:0004ebc4       __d_inttype                1004fbc4 f   libucrt:powhlp.obj
 0001:0004ec2e       __powhlp                   1004fc2e f   libucrt:powhlp.obj
 0001:0004ed59       __87except                 1004fd59 f   libucrt:87except.obj
 0001:0004ee64       __frnd                     1004fe64 f   libucrt:frnd.obj
 0001:0004ee7a       __errcode                  1004fe7a f   libucrt:fpexcept.obj
 0001:0004eeae       __except1                  1004feae f   libucrt:fpexcept.obj
 0001:0004ef7c       __handle_exc               1004ff7c f   libucrt:fpexcept.obj
 0001:0004f169       __raise_exc                10050169 f   libucrt:fpexcept.obj
 0001:0004f18c       __raise_exc_ex             1005018c f   libucrt:fpexcept.obj
 0001:0004f47d       __set_errno_from_matherr   1005047d f   libucrt:fpexcept.obj
 0001:0004f4ac       __umatherr                 100504ac f   libucrt:fpexcept.obj
 0001:0004f54e       __decomp                   1005054e f   libucrt:util.obj
 0001:0004f622       __set_exp                  10050622 f   libucrt:util.obj
 0001:0004f651       __sptype                   10050651 f   libucrt:util.obj
 0001:0004f6af       __fpclass                  100506af f   libucrt:ieeemisc.obj
 0001:0004f753       _IsProcessorFeaturePresent@4 10050753 f   kernel32:KERNEL32.dll
 0001:0004f760       __FindPESection            10050760 f   LIBCMT:pesect.obj
 0001:0004f7b0       __IsNonwritableInCurrentImage 100507b0 f   LIBCMT:pesect.obj
 0001:0004f870       __ValidateImageBase        10050870 f   LIBCMT:pesect.obj
 0001:0004f8b0       __aulldvrm                 100508b0 f   LIBCMT:ulldvrm.obj
 0001:0004f950       __SEH_prolog4_GS           10050950 f   LIBCMT:_sehprolg4gs_.obj
 0001:0004f999       __SEH_epilog4_GS           10050999 f   LIBCMT:_sehprolg4gs_.obj
 0001:0004f9b0       __alloca_probe_16          100509b0 f   LIBCMT:alloca16.obj
 0001:0004f9c6       __alloca_probe_8           100509c6     LIBCMT:alloca16.obj
 0002:00000000       _Keys                      10052000     flags.obj
 0002:00000b28       _VirtualKeyStrings         10052b28     service.obj
 0002:000045e0       __fltused                  100565e0     LIBCMT:fltused.obj
 0002:000045f0       ___scrt_native_dllmain_reason 100565f0     LIBCMT:utility.obj
 0002:000045f4       ___isa_enabled             100565f4     LIBCMT:_cpu_disp_.obj
 0002:00004600       ___security_cookie         10056600     LIBCMT:gs_cookie.obj
 0002:00004604       ___security_cookie_complement 10056604     LIBCMT:gs_cookie.obj
 0002:00004620       __NLG_Destination          10056620     libvcruntime:_exsup_.obj
 0002:00004638       __iob                      10056638     libucrt:_file.obj
 0002:000046e0       ___abort_behavior          100566e0     libucrt:abort.obj
 0002:000046e8       ___acrt_initial_locale_data 100566e8     libucrt:nlsdata.obj
 0002:000047a0       ___acrt_initial_locale_pointers 100567a0     libucrt:nlsdata.obj
 0002:000047a8       ___acrt_wide_c_locale_string 100567a8     libucrt:nlsdata.obj
 0002:000047b0       ___badioinfo               100567b0     libucrt:ioinit.obj
 0002:000047e8       __lookuptrailbytes         100567e8     libucrt:read.obj
 0002:000048e8       __pwctype                  100568e8     libucrt:ctype.obj
 0002:00004bf0       ___acrt_initial_multibyte_data 10056bf0     libucrt:mbctype.obj
 0002:00004e10       ___globallocalestatus      10056e10     libucrt:glstatus.obj
 0002:00004e14       ___acrt_lconv_static_decimal 10056e14     libucrt:localeconv.obj
 0002:00004e18       ___acrt_lconv_static_W_decimal 10056e18     libucrt:localeconv.obj
 0002:00004e20       ___acrt_lconv_c            10056e20     libucrt:localeconv.obj
 0002:00004e8c       ?Ptr@?1???R<lambda_1af49d8e19f959e583a46d83b89ae789>@@QBE@XZ@4PAXA 10056e8c     vc_crt_fix_impl.obj
 0002:00004f38       ___scrt_current_native_startup_state 10056f38     LIBCMT:utility.obj
 0002:00004f3c       ___scrt_native_startup_lock 10056f3c     LIBCMT:utility.obj
 0002:00004f48       ___isa_available           10056f48     LIBCMT:_cpu_disp_.obj
 0002:00004f4c       ___favor                   10056f4c     LIBCMT:_cpu_disp_.obj
 0002:00004f50       ___scrt_debugger_hook_flag 10056f50     LIBCMT:utility_desktop.obj
 0002:00004f58       ?__type_info_root_node@@3U__type_info_node@@A 10056f58     LIBCMT:tncleanup.obj
 0002:000052e0       ___pPurecall               100572e0     libvcruntime:purevirt_data.obj
 0002:000052e4       ?pArgList@UnDecorator@@0PAVReplicator@@A 100572e4     libvcruntime:undname.obj
 0002:000052e8       ?pZNameList@UnDecorator@@0PAVReplicator@@A 100572e8     libvcruntime:undname.obj
 0002:000052ec       ?pTemplateArgList@UnDecorator@@0PAVReplicator@@A 100572ec     libvcruntime:undname.obj
 0002:000052f0       ?gName@UnDecorator@@0PBDB  100572f0     libvcruntime:undname.obj
 0002:000052f4       ?name@UnDecorator@@0PBDB   100572f4     libvcruntime:undname.obj
 0002:000052f8       ?disableFlags@UnDecorator@@0KA 100572f8     libvcruntime:undname.obj
 0002:000052fc       ?fExplicitTemplateParams@UnDecorator@@0_NA 100572fc     libvcruntime:undname.obj
 0002:000052fd       ?fGetTemplateArgumentList@UnDecorator@@0_NA 100572fd     libvcruntime:undname.obj
 0002:00005300       ?m_pGetParameter@UnDecorator@@0P6APADJ@ZA 10057300     libvcruntime:undname.obj
 0002:00005304       ?m_CHPENameOffset@UnDecorator@@0KA 10057304     libvcruntime:undname.obj
 0002:00005308       ?m_recursionLevel@UnDecorator@@0KA 10057308     libvcruntime:undname.obj
 0002:00005320       ?__WinRTOutOfMemoryExceptionCallback@@3P6GPAXXZA 10057320     libvcruntime:ehhelpers.obj
 0002:00005324       __nstream                  10057324     libucrt:_file.obj
 0002:00005328       ___piob                    10057328     libucrt:_file.obj
 0002:0000532c       __cflush                   1005732c     libucrt:_file.obj
 0002:00005358       ?c_exit_complete@?1???R<lambda_6e4b09c48022b2350581041d5f6b0c4c>@@QBE@XZ@4_NA 10057358     libucrt:exit.obj
 0002:00005468       __environ_table            10057468     libucrt:environment_initialization.obj
 0002:0000546c       __wenviron_table           1005746c     libucrt:environment_initialization.obj
 0002:00005470       ___dcrt_initial_wide_environment 10057470     libucrt:environment_initialization.obj
 0002:00005474       ___dcrt_initial_narrow_environment 10057474     libucrt:environment_initialization.obj
 0002:00005478       ___acrt_atexit_table       10057478     libucrt:onexit.obj
 0002:00005484       ___acrt_at_quick_exit_table 10057484     libucrt:onexit.obj
 0002:00005498       ___acrt_stdout_buffer      10057498     libucrt:_sftbuf.obj
 0002:0000549c       ___acrt_stderr_buffer      1005749c     libucrt:_sftbuf.obj
 0002:000054a0       ___acrt_locale_changed_data 100574a0     libucrt:wsetlocale.obj
 0002:000054a4       ___acrt_current_locale_data 100574a4     libucrt:nlsdata.obj
 0002:000054a8       ___pioinfo                 100574a8     libucrt:ioinit.obj
 0002:000056a8       __nhandle                  100576a8     libucrt:ioinit.obj
 0002:000058ec       __commode                  100578ec     libucrt:ncommode.obj
 0002:000058f0       __mbctype                  100578f0     libucrt:mbctype.obj
 0002:000058f4       __mbcasemap                100578f4     libucrt:mbctype.obj
 0002:000058f8       ___acrt_current_multibyte_data 100578f8     libucrt:mbctype.obj
 0002:00005904       ___argc                    10057904     libucrt:argv_data.obj
 0002:00005908       ___argv                    10057908     libucrt:argv_data.obj
 0002:0000590c       ___wargv                   1005790c     libucrt:argv_data.obj
 0002:00005910       __acmdln                   10057910     libucrt:argv_data.obj
 0002:00005914       __wcmdln                   10057914     libucrt:argv_data.obj
 0002:00005918       __pgmptr                   10057918     libucrt:argv_data.obj
 0002:0000591c       ___acrt_heap               1005791c     libucrt:heap_handle.obj
 0002:0000592c       ___acrt_lconv_static_null  1005792c     libucrt:localeconv.obj
 0002:00005930       ___acrt_lconv_static_W_null 10057930     libucrt:localeconv.obj
 0002:00005934       __umaskval                 10057934     libucrt:umask.obj
 0002:0000593c       __fmode                    1005793c     libucrt:txtmode.obj
 0002:00005940       ___fastflag                10057940     libucrt:fp_flags.obj
 0002:00005948       _EnumCP                    10057948     <common>
 0002:00005950       ?_OptionsStorage@?1??__local_stdio_scanf_options@@9@9 10057950     <common>
 0002:00005958       ?_OptionsStorage@?1??__local_stdio_printf_options@@9@9 10057958     <common>
 0002:00005960       ___dyn_tls_init_callback   10057960     <common>
 0002:00005964       ___scrt_ucrt_dll_is_in_use 10057964     <common>
 0002:00005968       __pmatherr                 10057968     <common>
 0002:0000596c       ___use_sse2_mathfcns       1005796c     <common>
 0003:00000000       __imp__RegEnumValueW@32    10058000     advapi32:ADVAPI32.dll
 0003:00000004       __imp__RegEnumKeyExW@32    10058004     advapi32:ADVAPI32.dll
 0003:00000008       __imp__RegDeleteValueW@8   10058008     advapi32:ADVAPI32.dll
 0003:0000000c       __imp__RegDeleteKeyW@8     1005800c     advapi32:ADVAPI32.dll
 0003:00000010       __imp__RegSetValueExW@24   10058010     advapi32:ADVAPI32.dll
 0003:00000014       __imp__RegQueryValueExW@24 10058014     advapi32:ADVAPI32.dll
 0003:00000018       __imp__RegOpenKeyExW@20    10058018     advapi32:ADVAPI32.dll
 0003:0000001c       __imp__RegCreateKeyExW@36  1005801c     advapi32:ADVAPI32.dll
 0003:00000020       __imp__RegCloseKey@4       10058020     advapi32:ADVAPI32.dll
 0003:00000024       \177ADVAPI32_NULL_THUNK_DATA 10058024     advapi32:ADVAPI32.dll
 0003:00000028       __imp__GetConsoleScreenBufferInfo@8 10058028     kernel32:KERNEL32.dll
 0003:0000002c       __imp__FreeLibrary@4       1005802c     kernel32:KERNEL32.dll
 0003:00000030       __imp__GetModuleFileNameW@12 10058030     kernel32:KERNEL32.dll
 0003:00000034       __imp__LoadLibraryW@4      10058034     kernel32:KERNEL32.dll
 0003:00000038       __imp__SetCurrentDirectoryW@4 10058038     kernel32:KERNEL32.dll
 0003:0000003c       __imp__GetCurrentDirectoryW@8 1005803c     kernel32:KERNEL32.dll
 0003:00000040       __imp__SearchPathW@24      10058040     kernel32:KERNEL32.dll
 0003:00000044       __imp__GetDriveTypeW@4     10058044     kernel32:KERNEL32.dll
 0003:00000048       __imp__GetLogicalDriveStringsW@8 10058048     kernel32:KERNEL32.dll
 0003:0000004c       __imp__SetFileAttributesW@8 1005804c     kernel32:KERNEL32.dll
 0003:00000050       __imp__OutputDebugStringW@4 10058050     kernel32:KERNEL32.dll
 0003:00000054       __imp__GetLastError@0      10058054     kernel32:KERNEL32.dll
 0003:00000058       __imp__Sleep@4             10058058     kernel32:KERNEL32.dll
 0003:0000005c       __imp__GlobalMemoryStatusEx@4 1005805c     kernel32:KERNEL32.dll
 0003:00000060       __imp__FormatMessageW@28   10058060     kernel32:KERNEL32.dll
 0003:00000064       __imp__MultiByteToWideChar@24 10058064     kernel32:KERNEL32.dll
 0003:00000068       __imp__WideCharToMultiByte@32 10058068     kernel32:KERNEL32.dll
 0003:0000006c       __imp__GetACP@0            1005806c     kernel32:KERNEL32.dll
 0003:00000070       __imp__GetOEMCP@0          10058070     kernel32:KERNEL32.dll
 0003:00000074       __imp__GetCPInfoExW@12     10058074     kernel32:KERNEL32.dll
 0003:00000078       __imp__EnumSystemCodePagesW@8 10058078     kernel32:KERNEL32.dll
 0003:0000007c       __imp__GetConsoleCP@0      1005807c     kernel32:KERNEL32.dll
 0003:00000080       __imp__GetConsoleOutputCP@0 10058080     kernel32:KERNEL32.dll
 0003:00000084       __imp__SetConsoleCP@4      10058084     kernel32:KERNEL32.dll
 0003:00000088       __imp__SetConsoleOutputCP@4 10058088     kernel32:KERNEL32.dll
 0003:0000008c       __imp__GetProcAddress@8    1005808c     kernel32:KERNEL32.dll
 0003:00000090       __imp__CreateDirectoryW@8  10058090     kernel32:KERNEL32.dll
 0003:00000094       __imp__DeleteFileW@4       10058094     kernel32:KERNEL32.dll
 0003:00000098       __imp__FileTimeToLocalFileTime@8 10058098     kernel32:KERNEL32.dll
 0003:0000009c       __imp__FindClose@4         1005809c     kernel32:KERNEL32.dll
 0003:000000a0       __imp__FindFirstFileW@8    100580a0     kernel32:KERNEL32.dll
 0003:000000a4       __imp__RemoveDirectoryW@4  100580a4     kernel32:KERNEL32.dll
 0003:000000a8       __imp__GetSystemTimeAsFileTime@4 100580a8     kernel32:KERNEL32.dll
 0003:000000ac       __imp__GetModuleHandleW@4  100580ac     kernel32:KERNEL32.dll
 0003:000000b0       __imp__CopyFileW@12        100580b0     kernel32:KERNEL32.dll
 0003:000000b4       __imp__MoveFileExW@12      100580b4     kernel32:KERNEL32.dll
 0003:000000b8       __imp__FileTimeToSystemTime@8 100580b8     kernel32:KERNEL32.dll
 0003:000000bc       __imp__SystemTimeToFileTime@8 100580bc     kernel32:KERNEL32.dll
 0003:000000c0       __imp__CompareStringW@24   100580c0     kernel32:KERNEL32.dll
 0003:000000c4       __imp__PeekConsoleInputW@16 100580c4     kernel32:KERNEL32.dll
 0003:000000c8       __imp__ReadConsoleInputW@16 100580c8     kernel32:KERNEL32.dll
 0003:000000cc       __imp__SetLastError@4      100580cc     kernel32:KERNEL32.dll
 0003:000000d0       __imp__InitializeCriticalSection@4 100580d0     kernel32:KERNEL32.dll
 0003:000000d4       __imp__EnterCriticalSection@4 100580d4     kernel32:KERNEL32.dll
 0003:000000d8       __imp__LeaveCriticalSection@4 100580d8     kernel32:KERNEL32.dll
 0003:000000dc       __imp__DeleteCriticalSection@4 100580dc     kernel32:KERNEL32.dll
 0003:000000e0       __imp__GetCurrentThread@0  100580e0     kernel32:KERNEL32.dll
 0003:000000e4       __imp__GetThreadTimes@20   100580e4     kernel32:KERNEL32.dll
 0003:000000e8       __imp__VirtualQuery@12     100580e8     kernel32:KERNEL32.dll
 0003:000000ec       __imp__SetEndOfFile@4      100580ec     kernel32:KERNEL32.dll
 0003:000000f0       __imp__HeapReAlloc@16      100580f0     kernel32:KERNEL32.dll
 0003:000000f4       __imp__HeapSize@12         100580f4     kernel32:KERNEL32.dll
 0003:000000f8       __imp__GetModuleHandleA@4  100580f8     kernel32:KERNEL32.dll
 0003:000000fc       __imp__DeleteTimerQueueTimer@12 100580fc     kernel32:KERNEL32.dll
 0003:00000100       __imp__ChangeTimerQueueTimer@16 10058100     kernel32:KERNEL32.dll
 0003:00000104       __imp__CreateTimerQueueTimer@28 10058104     kernel32:KERNEL32.dll
 0003:00000108       __imp__CreateTimerQueue@0  10058108     kernel32:KERNEL32.dll
 0003:0000010c       __imp__GetFileAttributesW@4 1005810c     kernel32:KERNEL32.dll
 0003:00000110       __imp__GetEnvironmentVariableW@12 10058110     kernel32:KERNEL32.dll
 0003:00000114       __imp__GetStdHandle@4      10058114     kernel32:KERNEL32.dll
 0003:00000118       __imp__SetEnvironmentVariableW@8 10058118     kernel32:KERNEL32.dll
 0003:0000011c       __imp__DeleteTimerQueueEx@8 1005811c     kernel32:KERNEL32.dll
 0003:00000120       __imp__SetStdHandle@8      10058120     kernel32:KERNEL32.dll
 0003:00000124       __imp__GetProcessHeap@0    10058124     kernel32:KERNEL32.dll
 0003:00000128       __imp__FreeEnvironmentStringsW@4 10058128     kernel32:KERNEL32.dll
 0003:0000012c       __imp__GetEnvironmentStringsW@0 1005812c     kernel32:KERNEL32.dll
 0003:00000130       __imp__GetCommandLineW@0   10058130     kernel32:KERNEL32.dll
 0003:00000134       __imp__GetCommandLineA@0   10058134     kernel32:KERNEL32.dll
 0003:00000138       __imp__GetCPInfo@8         10058138     kernel32:KERNEL32.dll
 0003:0000013c       __imp__IsValidCodePage@4   1005813c     kernel32:KERNEL32.dll
 0003:00000140       __imp__FindNextFileA@8     10058140     kernel32:KERNEL32.dll
 0003:00000144       __imp__FindFirstFileExA@24 10058144     kernel32:KERNEL32.dll
 0003:00000148       __imp__CreateFileW@28      10058148     kernel32:KERNEL32.dll
 0003:0000014c       __imp__WriteFile@20        1005814c     kernel32:KERNEL32.dll
 0003:00000150       __imp__FlushFileBuffers@4  10058150     kernel32:KERNEL32.dll
 0003:00000154       __imp__CreatePipe@16       10058154     kernel32:KERNEL32.dll
 0003:00000158       __imp__GetFileAttributesExW@12 10058158     kernel32:KERNEL32.dll
 0003:0000015c       __imp__GetExitCodeProcess@8 1005815c     kernel32:KERNEL32.dll
 0003:00000160       __imp__WaitForSingleObject@8 10058160     kernel32:KERNEL32.dll
 0003:00000164       __imp__GetStringTypeW@16   10058164     kernel32:KERNEL32.dll
 0003:00000168       __imp__SetFilePointerEx@20 10058168     kernel32:KERNEL32.dll
 0003:0000016c       __imp__ReadConsoleW@20     1005816c     kernel32:KERNEL32.dll
 0003:00000170       __imp__GetConsoleMode@8    10058170     kernel32:KERNEL32.dll
 0003:00000174       __imp__LCMapStringW@24     10058174     kernel32:KERNEL32.dll
 0003:00000178       __imp__GetFileType@4       10058178     kernel32:KERNEL32.dll
 0003:0000017c       __imp__HeapAlloc@12        1005817c     kernel32:KERNEL32.dll
 0003:00000180       __imp__HeapFree@12         10058180     kernel32:KERNEL32.dll
 0003:00000184       __imp__GetModuleFileNameA@12 10058184     kernel32:KERNEL32.dll
 0003:00000188       __imp__ExitProcess@4       10058188     kernel32:KERNEL32.dll
 0003:0000018c       __imp__GetTempPathW@8      1005818c     kernel32:KERNEL32.dll
 0003:00000190       __imp__ReadFile@20         10058190     kernel32:KERNEL32.dll
 0003:00000194       __imp__CreateProcessW@40   10058194     kernel32:KERNEL32.dll
 0003:00000198       __imp__DuplicateHandle@28  10058198     kernel32:KERNEL32.dll
 0003:0000019c       __imp__CloseHandle@4       1005819c     kernel32:KERNEL32.dll
 0003:000001a0       __imp__RaiseException@16   100581a0     kernel32:KERNEL32.dll
 0003:000001a4       __imp__WriteConsoleW@20    100581a4     kernel32:KERNEL32.dll
 0003:000001a8       __imp__RtlUnwind@16        100581a8     kernel32:KERNEL32.dll
 0003:000001ac       __imp__LoadLibraryExW@12   100581ac     kernel32:KERNEL32.dll
 0003:000001b0       __imp__TlsFree@4           100581b0     kernel32:KERNEL32.dll
 0003:000001b4       __imp__TlsSetValue@8       100581b4     kernel32:KERNEL32.dll
 0003:000001b8       __imp__TlsGetValue@4       100581b8     kernel32:KERNEL32.dll
 0003:000001bc       __imp__TlsAlloc@0          100581bc     kernel32:KERNEL32.dll
 0003:000001c0       __imp__InitializeCriticalSectionAndSpinCount@8 100581c0     kernel32:KERNEL32.dll
 0003:000001c4       __imp__TerminateProcess@8  100581c4     kernel32:KERNEL32.dll
 0003:000001c8       __imp__GetCurrentProcess@0 100581c8     kernel32:KERNEL32.dll
 0003:000001cc       __imp__GetCurrentThreadId@0 100581cc     kernel32:KERNEL32.dll
 0003:000001d0       __imp__GetCurrentProcessId@0 100581d0     kernel32:KERNEL32.dll
 0003:000001d4       __imp__QueryPerformanceCounter@4 100581d4     kernel32:KERNEL32.dll
 0003:000001d8       __imp__GetStartupInfoW@4   100581d8     kernel32:KERNEL32.dll
 0003:000001dc       __imp__SetUnhandledExceptionFilter@4 100581dc     kernel32:KERNEL32.dll
 0003:000001e0       __imp__UnhandledExceptionFilter@4 100581e0     kernel32:KERNEL32.dll
 0003:000001e4       __imp__IsDebuggerPresent@0 100581e4     kernel32:KERNEL32.dll
 0003:000001e8       __imp__IsProcessorFeaturePresent@4 100581e8     kernel32:KERNEL32.dll
 0003:000001ec       \177KERNEL32_NULL_THUNK_DATA 100581ec     kernel32:KERNEL32.dll
 0003:000001f0       __imp__RpcStringFreeA@4    100581f0     rpcrt4:RPCRT4.dll
 0003:000001f4       __imp__UuidCreate@4        100581f4     rpcrt4:RPCRT4.dll
 0003:000001f8       __imp__UuidToStringA@8     100581f8     rpcrt4:RPCRT4.dll
 0003:000001fc       __imp__UuidFromStringA@8   100581fc     rpcrt4:RPCRT4.dll
 0003:00000200       \177RPCRT4_NULL_THUNK_DATA 10058200     rpcrt4:RPCRT4.dll
 0003:00000204       __imp__ShellExecuteW@24    10058204     shell32:SHELL32.dll
 0003:00000208       __imp__SHGetFolderPathW@20 10058208     shell32:SHELL32.dll
 0003:0000020c       \177SHELL32_NULL_THUNK_DATA 1005820c     shell32:SHELL32.dll
 0003:00000210       __imp__GetKeyState@4       10058210     user32:USER32.dll
 0003:00000214       \177USER32_NULL_THUNK_DATA 10058214     user32:USER32.dll
 0003:00000218       __imp__lua_next            10058218     lua51:lua51.dll
 0003:0000021c       __imp__lua_getallocf       1005821c     lua51:lua51.dll
 0003:00000220       __imp__lua_setallocf       10058220     lua51:lua51.dll
 0003:00000224       __imp__luaL_typerror       10058224     lua51:lua51.dll
 0003:00000228       __imp__luaL_checknumber    10058228     lua51:lua51.dll
 0003:0000022c       __imp__luaL_optnumber      1005822c     lua51:lua51.dll
 0003:00000230       __imp__luaL_checkany       10058230     lua51:lua51.dll
 0003:00000234       __imp__luaL_findtable      10058234     lua51:lua51.dll
 0003:00000238       __imp__lua_typename        10058238     lua51:lua51.dll
 0003:0000023c       __imp__lua_dump            1005823c     lua51:lua51.dll
 0003:00000240       __imp__luaL_checkstack     10058240     lua51:lua51.dll
 0003:00000244       __imp__luaL_prepbuffer     10058244     lua51:lua51.dll
 0003:00000248       __imp__lua_tocfunction     10058248     lua51:lua51.dll
 0003:0000024c       __imp__luaL_checkoption    1005824c     lua51:lua51.dll
 0003:00000250       __imp__lua_iscfunction     10058250     lua51:lua51.dll
 0003:00000254       __imp__luaL_gsub           10058254     lua51:lua51.dll
 0003:00000258       __imp__lua_isuserdata      10058258     lua51:lua51.dll
 0003:0000025c       __imp__lua_setfenv         1005825c     lua51:lua51.dll
 0003:00000260       __imp__lua_rawset          10058260     lua51:lua51.dll
 0003:00000264       __imp__lua_settable        10058264     lua51:lua51.dll
 0003:00000268       __imp__lua_getfenv         10058268     lua51:lua51.dll
 0003:0000026c       __imp__lua_rawget          1005826c     lua51:lua51.dll
 0003:00000270       __imp__luaopen_debug       10058270     lua51:lua51.dll
 0003:00000274       __imp__luaL_checktype      10058274     lua51:lua51.dll
 0003:00000278       __imp__lua_getinfo         10058278     lua51:lua51.dll
 0003:0000027c       __imp__lua_getstack        1005827c     lua51:lua51.dll
 0003:00000280       __imp__luaL_addvalue       10058280     lua51:lua51.dll
 0003:00000284       __imp__luaL_error          10058284     lua51:lua51.dll
 0003:00000288       __imp__luaL_checkudata     10058288     lua51:lua51.dll
 0003:0000028c       __imp__luaL_optinteger     1005828c     lua51:lua51.dll
 0003:00000290       __imp__luaL_optlstring     10058290     lua51:lua51.dll
 0003:00000294       __imp__luaL_checklstring   10058294     lua51:lua51.dll
 0003:00000298       __imp__lua_checkstack      10058298     lua51:lua51.dll
 0003:0000029c       __imp__lua_replace         1005829c     lua51:lua51.dll
 0003:000002a0       __imp__luaL_pushresult     100582a0     lua51:lua51.dll
 0003:000002a4       __imp__luaL_addlstring     100582a4     lua51:lua51.dll
 0003:000002a8       __imp__luaL_buffinit       100582a8     lua51:lua51.dll
 0003:000002ac       __imp__luaopen_math        100582ac     lua51:lua51.dll
 0003:000002b0       __imp__lua_error           100582b0     lua51:lua51.dll
 0003:000002b4       __imp__lua_load            100582b4     lua51:lua51.dll
 0003:000002b8       __imp__luaL_loadstring     100582b8     lua51:lua51.dll
 0003:000002bc       __imp__luaL_unref          100582bc     lua51:lua51.dll
 0003:000002c0       __imp__luaL_ref            100582c0     lua51:lua51.dll
 0003:000002c4       __imp__lua_gc              100582c4     lua51:lua51.dll
 0003:000002c8       __imp__lua_pcall           100582c8     lua51:lua51.dll
 0003:000002cc       __imp__lua_call            100582cc     lua51:lua51.dll
 0003:000002d0       __imp__lua_rawseti         100582d0     lua51:lua51.dll
 0003:000002d4       __imp__lua_setfield        100582d4     lua51:lua51.dll
 0003:000002d8       __imp__lua_createtable     100582d8     lua51:lua51.dll
 0003:000002dc       __imp__lua_rawgeti         100582dc     lua51:lua51.dll
 0003:000002e0       __imp__lua_gettable        100582e0     lua51:lua51.dll
 0003:000002e4       __imp__lua_pushlightuserdata 100582e4     lua51:lua51.dll
 0003:000002e8       __imp__lua_pushcclosure    100582e8     lua51:lua51.dll
 0003:000002ec       __imp__lua_pushlstring     100582ec     lua51:lua51.dll
 0003:000002f0       __imp__lua_pushinteger     100582f0     lua51:lua51.dll
 0003:000002f4       __imp__lua_objlen          100582f4     lua51:lua51.dll
 0003:000002f8       __imp__lua_toboolean       100582f8     lua51:lua51.dll
 0003:000002fc       __imp__lua_tointeger       100582fc     lua51:lua51.dll
 0003:00000300       __imp__lua_isstring        10058300     lua51:lua51.dll
 0003:00000304       __imp__lua_isnumber        10058304     lua51:lua51.dll
 0003:00000308       __imp__lua_insert          10058308     lua51:lua51.dll
 0003:0000030c       __imp__lua_remove          1005830c     lua51:lua51.dll
 0003:00000310       __imp__lua_pushvalue       10058310     lua51:lua51.dll
 0003:00000314       __imp__luaL_newmetatable   10058314     lua51:lua51.dll
 0003:00000318       __imp__luaL_checkinteger   10058318     lua51:lua51.dll
 0003:0000031c       __imp__luaL_argerror       1005831c     lua51:lua51.dll
 0003:00000320       __imp__luaL_register       10058320     lua51:lua51.dll
 0003:00000324       __imp__lua_setmetatable    10058324     lua51:lua51.dll
 0003:00000328       __imp__lua_getmetatable    10058328     lua51:lua51.dll
 0003:0000032c       __imp__lua_newuserdata     1005832c     lua51:lua51.dll
 0003:00000330       __imp__lua_getfield        10058330     lua51:lua51.dll
 0003:00000334       __imp__lua_pushboolean     10058334     lua51:lua51.dll
 0003:00000338       __imp__lua_pushstring      10058338     lua51:lua51.dll
 0003:0000033c       __imp__lua_pushnumber      1005833c     lua51:lua51.dll
 0003:00000340       __imp__lua_pushnil         10058340     lua51:lua51.dll
 0003:00000344       __imp__lua_touserdata      10058344     lua51:lua51.dll
 0003:00000348       __imp__lua_tolstring       10058348     lua51:lua51.dll
 0003:0000034c       __imp__lua_tonumber        1005834c     lua51:lua51.dll
 0003:00000350       __imp__lua_rawequal        10058350     lua51:lua51.dll
 0003:00000354       __imp__lua_type            10058354     lua51:lua51.dll
 0003:00000358       __imp__lua_settop          10058358     lua51:lua51.dll
 0003:0000035c       __imp__lua_gettop          1005835c     lua51:lua51.dll
 0003:00000360       __imp__luaopen_string      10058360     lua51:lua51.dll
 0003:00000364       __imp__luaopen_os          10058364     lua51:lua51.dll
 0003:00000368       __imp__luaopen_table       10058368     lua51:lua51.dll
 0003:0000036c       __imp__lua_concat          1005836c     lua51:lua51.dll
 0003:00000370       __imp__luaopen_base        10058370     lua51:lua51.dll
 0003:00000374       __imp__lua_pushfstring     10058374     lua51:lua51.dll
 0003:00000378       \177lua51_NULL_THUNK_DATA  10058378     lua51:lua51.dll
 0003:0000037c       ___guard_check_icall_fptr  1005837c     LIBCMT:guard_support.obj
 0003:00000380       __IMPORT_DESCRIPTOR_KERNEL32 10058380     kernel32:KERNEL32.dll
 0003:00000394       __IMPORT_DESCRIPTOR_USER32 10058394     user32:USER32.dll
 0003:000003a8       __IMPORT_DESCRIPTOR_ADVAPI32 100583a8     advapi32:ADVAPI32.dll
 0003:000003bc       __IMPORT_DESCRIPTOR_SHELL32 100583bc     shell32:SHELL32.dll
 0003:000003d0       __IMPORT_DESCRIPTOR_lua51  100583d0     lua51:lua51.dll
 0003:000003e4       __IMPORT_DESCRIPTOR_RPCRT4 100583e4     rpcrt4:RPCRT4.dll
 0003:000003f8       __NULL_IMPORT_DESCRIPTOR   100583f8     kernel32:KERNEL32.dll

 entry point at        0001:000330a9

 Static symbols

 0001:00000050       _funcs                     10001050     bit64.obj
 0001:000000e0       _metamethods               100010e0     bit64.obj
 0001:00000210       _FCF_FG_4BIT               10001210     exported.obj
 0001:00000218       _FCF_BG_4BIT               10001218     exported.obj
 0001:00000220       _FCF_4BITMASK              10001220     exported.obj
 0001:00000228       _FCF_RAWATTR_MASK          10001228     exported.obj
 0001:00000230       _FCF_EXTENDEDFLAGS         10001230     exported.obj
 0001:00000238       _FCF_FG_BOLD               10001238     exported.obj
 0001:00000240       _FCF_FG_ITALIC             10001240     exported.obj
 0001:00000248       _FCF_FG_UNDERLINE          10001248     exported.obj
 0001:00000250       _FCF_STYLEMASK             10001250     exported.obj
 0001:00000258       _FCF_NONE                  10001258     exported.obj
 0001:00000260       _CDF_NONE                  10001260     exported.obj
 0001:00000268       _FMSG_WARNING              10001268     exported.obj
 0001:00000270       _FMSG_ERRORTYPE            10001270     exported.obj
 0001:00000278       _FMSG_KEEPBACKGROUND       10001278     exported.obj
 0001:00000280       _FMSG_LEFTALIGN            10001280     exported.obj
 0001:00000288       _FMSG_ALLINONE             10001288     exported.obj
 0001:00000290       _FMSG_MB_OK                10001290     exported.obj
 0001:00000298       _FMSG_MB_OKCANCEL          10001298     exported.obj
 0001:000002a0       _FMSG_MB_ABORTRETRYIGNORE  100012a0     exported.obj
 0001:000002a8       _FMSG_MB_YESNO             100012a8     exported.obj
 0001:000002b0       _FMSG_MB_YESNOCANCEL       100012b0     exported.obj
 0001:000002b8       _FMSG_MB_RETRYCANCEL       100012b8     exported.obj
 0001:000002c0       _FMSG_NONE                 100012c0     exported.obj
 0001:000002c8       _DIF_BOXCOLOR              100012c8     exported.obj
 0001:000002d0       _DIF_GROUP                 100012d0     exported.obj
 0001:000002d8       _DIF_LEFTTEXT              100012d8     exported.obj
 0001:000002e0       _DIF_MOVESELECT            100012e0     exported.obj
 0001:000002e8       _DIF_SHOWAMPERSAND         100012e8     exported.obj
 0001:000002f0       _DIF_CENTERGROUP           100012f0     exported.obj
 0001:000002f8       _DIF_NOBRACKETS            100012f8     exported.obj
 0001:00000300       _DIF_MANUALADDHISTORY      10001300     exported.obj
 0001:00000308       _DIF_SEPARATOR             10001308     exported.obj
 0001:00000310       _DIF_SEPARATOR2            10001310     exported.obj
 0001:00000318       _DIF_EDITOR                10001318     exported.obj
 0001:00000320       _DIF_LISTNOAMPERSAND       10001320     exported.obj
 0001:00000328       _DIF_LISTNOBOX             10001328     exported.obj
 0001:00000330       _DIF_HISTORY               10001330     exported.obj
 0001:00000338       _DIF_BTNNOCLOSE            10001338     exported.obj
 0001:00000340       _DIF_CENTERTEXT            10001340     exported.obj
 0001:00000348       _DIF_SEPARATORUSER         10001348     exported.obj
 0001:00000350       _DIF_SETSHIELD             10001350     exported.obj
 0001:00000358       _DIF_EDITEXPAND            10001358     exported.obj
 0001:00000360       _DIF_DROPDOWNLIST          10001360     exported.obj
 0001:00000368       _DIF_USELASTHISTORY        10001368     exported.obj
 0001:00000370       _DIF_MASKEDIT              10001370     exported.obj
 0001:00000378       _DIF_LISTTRACKMOUSE        10001378     exported.obj
 0001:00000380       _DIF_LISTTRACKMOUSEINFOCUS 10001380     exported.obj
 0001:00000388       _DIF_SELECTONENTRY         10001388     exported.obj
 0001:00000390       _DIF_3STATE                10001390     exported.obj
 0001:00000398       _DIF_EDITPATH              10001398     exported.obj
 0001:000003a0       _DIF_LISTWRAPMODE          100013a0     exported.obj
 0001:000003a8       _DIF_NOAUTOCOMPLETE        100013a8     exported.obj
 0001:000003b0       _DIF_LISTAUTOHIGHLIGHT     100013b0     exported.obj
 0001:000003b8       _DIF_LISTNOCLOSE           100013b8     exported.obj
 0001:000003c0       _DIF_EDITPATHEXEC          100013c0     exported.obj
 0001:000003c8       _DIF_HIDDEN                100013c8     exported.obj
 0001:000003d0       _DIF_READONLY              100013d0     exported.obj
 0001:000003d8       _DIF_NOFOCUS               100013d8     exported.obj
 0001:000003e0       _DIF_DISABLE               100013e0     exported.obj
 0001:000003e8       _DIF_DEFAULTBUTTON         100013e8     exported.obj
 0001:000003f0       _DIF_FOCUS                 100013f0     exported.obj
 0001:000003f8       _DIF_RIGHTTEXT             100013f8     exported.obj
 0001:00000400       _DIF_WORDWRAP              10001400     exported.obj
 0001:00000408       _DIF_NONE                  10001408     exported.obj
 0001:00000410       _LIF_SELECTED              10001410     exported.obj
 0001:00000418       _LIF_CHECKED               10001418     exported.obj
 0001:00000420       _LIF_SEPARATOR             10001420     exported.obj
 0001:00000428       _LIF_DISABLE               10001428     exported.obj
 0001:00000430       _LIF_GRAYED                10001430     exported.obj
 0001:00000438       _LIF_HIDDEN                10001438     exported.obj
 0001:00000440       _LIF_DELETEUSERDATA        10001440     exported.obj
 0001:00000448       _LIF_NONE                  10001448     exported.obj
 0001:00000450       _LIFIND_EXACTMATCH         10001450     exported.obj
 0001:00000458       _LIFIND_NONE               10001458     exported.obj
 0001:00000460       _LINFO_SHOWNOBOX           10001460     exported.obj
 0001:00000468       _LINFO_AUTOHIGHLIGHT       10001468     exported.obj
 0001:00000470       _LINFO_REVERSEHIGHLIGHT    10001470     exported.obj
 0001:00000478       _LINFO_WRAPMODE            10001478     exported.obj
 0001:00000480       _LINFO_SHOWAMPERSAND       10001480     exported.obj
 0001:00000488       _LINFO_NONE                10001488     exported.obj
 0001:00000490       _FDLG_WARNING              10001490     exported.obj
 0001:00000498       _FDLG_SMALLDIALOG          10001498     exported.obj
 0001:000004a0       _FDLG_NODRAWSHADOW         100014a0     exported.obj
 0001:000004a8       _FDLG_NODRAWPANEL          100014a8     exported.obj
 0001:000004b0       _FDLG_KEEPCONSOLETITLE     100014b0     exported.obj
 0001:000004b8       _FDLG_NONMODAL             100014b8     exported.obj
 0001:000004c0       _FDLG_NONE                 100014c0     exported.obj
 0001:000004c8       _MIF_SELECTED              100014c8     exported.obj
 0001:000004d0       _MIF_CHECKED               100014d0     exported.obj
 0001:000004d8       _MIF_SEPARATOR             100014d8     exported.obj
 0001:000004e0       _MIF_DISABLE               100014e0     exported.obj
 0001:000004e8       _MIF_GRAYED                100014e8     exported.obj
 0001:000004f0       _MIF_HIDDEN                100014f0     exported.obj
 0001:000004f8       _MIF_NONE                  100014f8     exported.obj
 0001:00000500       _FMENU_SHOWAMPERSAND       10001500     exported.obj
 0001:00000508       _FMENU_WRAPMODE            10001508     exported.obj
 0001:00000510       _FMENU_AUTOHIGHLIGHT       10001510     exported.obj
 0001:00000518       _FMENU_REVERSEAUTOHIGHLIGHT 10001518     exported.obj
 0001:00000520       _FMENU_CHANGECONSOLETITLE  10001520     exported.obj
 0001:00000528       _FMENU_NONE                10001528     exported.obj
 0001:00000530       _PPIF_SELECTED             10001530     exported.obj
 0001:00000538       _PPIF_PROCESSDESCR         10001538     exported.obj
 0001:00000540       _PPIF_NONE                 10001540     exported.obj
 0001:00000548       _PFLAGS_SHOWHIDDEN         10001548     exported.obj
 0001:00000550       _PFLAGS_HIGHLIGHT          10001550     exported.obj
 0001:00000558       _PFLAGS_REVERSESORTORDER   10001558     exported.obj
 0001:00000560       _PFLAGS_USESORTGROUPS      10001560     exported.obj
 0001:00000568       _PFLAGS_SELECTEDFIRST      10001568     exported.obj
 0001:00000570       _PFLAGS_REALNAMES          10001570     exported.obj
 0001:00000578       _PFLAGS_PANELLEFT          10001578     exported.obj
 0001:00000580       _PFLAGS_DIRECTORIESFIRST   10001580     exported.obj
 0001:00000588       _PFLAGS_USECRC32           10001588     exported.obj
 0001:00000590       _PFLAGS_PLUGIN             10001590     exported.obj
 0001:00000598       _PFLAGS_VISIBLE            10001598     exported.obj
 0001:000005a0       _PFLAGS_FOCUS              100015a0     exported.obj
 0001:000005a8       _PFLAGS_ALTERNATIVENAMES   100015a8     exported.obj
 0001:000005b0       _PFLAGS_SHORTCUT           100015b0     exported.obj
 0001:000005b8       _PFLAGS_NONE               100015b8     exported.obj
 0001:000005c0       _VF_NONMODAL               100015c0     exported.obj
 0001:000005c8       _VF_DELETEONCLOSE          100015c8     exported.obj
 0001:000005d0       _VF_ENABLE_F6              100015d0     exported.obj
 0001:000005d8       _VF_DISABLEHISTORY         100015d8     exported.obj
 0001:000005e0       _VF_IMMEDIATERETURN        100015e0     exported.obj
 0001:000005e8       _VF_DELETEONLYFILEONCLOSE  100015e8     exported.obj
 0001:000005f0       _VF_NONE                   100015f0     exported.obj
 0001:000005f8       _EF_NONMODAL               100015f8     exported.obj
 0001:00000600       _EF_CREATENEW              10001600     exported.obj
 0001:00000608       _EF_ENABLE_F6              10001608     exported.obj
 0001:00000610       _EF_DISABLEHISTORY         10001610     exported.obj
 0001:00000618       _EF_DELETEONCLOSE          10001618     exported.obj
 0001:00000620       _EF_IMMEDIATERETURN        10001620     exported.obj
 0001:00000628       _EF_DELETEONLYFILEONCLOSE  10001628     exported.obj
 0001:00000630       _EF_LOCKED                 10001630     exported.obj
 0001:00000638       _EF_DISABLESAVEPOS         10001638     exported.obj
 0001:00000640       _EF_OPENMODE_MASK          10001640     exported.obj
 0001:00000648       _EF_OPENMODE_QUERY         10001648     exported.obj
 0001:00000650       _EF_OPENMODE_NEWIFOPEN     10001650     exported.obj
 0001:00000658       _EF_OPENMODE_USEEXISTING   10001658     exported.obj
 0001:00000660       _EF_OPENMODE_BREAKIFOPEN   10001660     exported.obj
 0001:00000668       _EF_OPENMODE_RELOADIFOPEN  10001668     exported.obj
 0001:00000670       _EN_NONE                   10001670     exported.obj
 0001:00000678       _FHELP_NOSHOWERROR         10001678     exported.obj
 0001:00000680       _FHELP_SELFHELP            10001680     exported.obj
 0001:00000688       _FHELP_FARHELP             10001688     exported.obj
 0001:00000690       _FHELP_CUSTOMFILE          10001690     exported.obj
 0001:00000698       _FHELP_CUSTOMPATH          10001698     exported.obj
 0001:000006a0       _FHELP_GUID                100016a0     exported.obj
 0001:000006a8       _FHELP_USECONTENTS         100016a8     exported.obj
 0001:000006b0       _FHELP_NONE                100016b0     exported.obj
 0001:000006b8       _KMFLAGS_SILENTCHECK       100016b8     exported.obj
 0001:000006c0       _KMFLAGS_NOSENDKEYSTOPLUGINS 100016c0     exported.obj
 0001:000006c8       _KMFLAGS_ENABLEOUTPUT      100016c8     exported.obj
 0001:000006d0       _KMFLAGS_LANGMASK          100016d0     exported.obj
 0001:000006d8       _KMFLAGS_LUA               100016d8     exported.obj
 0001:000006e0       _KMFLAGS_MOONSCRIPT        100016e0     exported.obj
 0001:000006e8       _KMFLAGS_NONE              100016e8     exported.obj
 0001:000006f0       _AKMFLAGS_NONE             100016f0     exported.obj
 0001:000006f8       _FSETCLR_REDRAW            100016f8     exported.obj
 0001:00000700       _FSETCLR_NONE              10001700     exported.obj
 0001:00000708       _WIF_MODIFIED              10001708     exported.obj
 0001:00000710       _WIF_CURRENT               10001710     exported.obj
 0001:00000718       _WIF_MODAL                 10001718     exported.obj
 0001:00000720       _WIF_NONE                  10001720     exported.obj
 0001:00000728       _VOPT_SAVEFILEPOSITION     10001728     exported.obj
 0001:00000730       _VOPT_AUTODETECTCODEPAGE   10001730     exported.obj
 0001:00000738       _VOPT_SHOWTITLEBAR         10001738     exported.obj
 0001:00000740       _VOPT_SHOWKEYBAR           10001740     exported.obj
 0001:00000748       _VOPT_SHOWSCROLLBAR        10001748     exported.obj
 0001:00000750       _VOPT_QUICKVIEW            10001750     exported.obj
 0001:00000758       _VOPT_NONE                 10001758     exported.obj
 0001:00000760       _VSMFL_REDRAW              10001760     exported.obj
 0001:00000768       _VSMFL_NONE                10001768     exported.obj
 0001:00000770       _VSP_NOREDRAW              10001770     exported.obj
 0001:00000778       _VSP_PERCENT               10001778     exported.obj
 0001:00000780       _VSP_RELATIVE              10001780     exported.obj
 0001:00000788       _VSP_NORETNEWPOS           10001788     exported.obj
 0001:00000790       _VSP_NONE                  10001790     exported.obj
 0001:00000798       _VMF_WRAP                  10001798     exported.obj
 0001:000007a0       _VMF_WORDWRAP              100017a0     exported.obj
 0001:000007a8       _VMF_NONE                  100017a8     exported.obj
 0001:000007b0       _ECF_TABMARKFIRST          100017b0     exported.obj
 0001:000007b8       _ECF_TABMARKCURRENT        100017b8     exported.obj
 0001:000007c0       _ECF_AUTODELETE            100017c0     exported.obj
 0001:000007c8       _ECF_NONE                  100017c8     exported.obj
 0001:000007d0       _FIB_ENABLEEMPTY           100017d0     exported.obj
 0001:000007d8       _FIB_PASSWORD              100017d8     exported.obj
 0001:000007e0       _FIB_EXPANDENV             100017e0     exported.obj
 0001:000007e8       _FIB_NOUSELASTHISTORY      100017e8     exported.obj
 0001:000007f0       _FIB_BUTTONS               100017f0     exported.obj
 0001:000007f8       _FIB_NOAMPERSAND           100017f8     exported.obj
 0001:00000800       _FIB_EDITPATH              10001800     exported.obj
 0001:00000808       _FIB_EDITPATHEXEC          10001808     exported.obj
 0001:00000810       _FIB_NONE                  10001810     exported.obj
 0001:00000818       _FPF_LOADED                10001818     exported.obj
 0001:00000820       _FPF_ANSI                  10001820     exported.obj
 0001:00000828       _FPF_NONE                  10001828     exported.obj
 0001:00000830       _PN_CMPNAME                10001830     exported.obj
 0001:00000838       _PN_CMPNAMELIST            10001838     exported.obj
 0001:00000840       _PN_GENERATENAME           10001840     exported.obj
 0001:00000848       _PN_CHECKMASK              10001848     exported.obj
 0001:00000850       _PN_SKIPPATH               10001850     exported.obj
 0001:00000858       _PN_SHOWERRORMESSAGE       10001858     exported.obj
 0001:00000860       _PN_NONE                   10001860     exported.obj
 0001:00000868       _XLAT_SWITCHKEYBLAYOUT     10001868     exported.obj
 0001:00000870       _XLAT_SWITCHKEYBBEEP       10001870     exported.obj
 0001:00000878       _XLAT_USEKEYBLAYOUTNAME    10001878     exported.obj
 0001:00000880       _XLAT_CONVERTALLCMDLINE    10001880     exported.obj
 0001:00000888       _XLAT_NONE                 10001888     exported.obj
 0001:00000890       _FRS_RETUPDIR              10001890     exported.obj
 0001:00000898       _FRS_RECUR                 10001898     exported.obj
 0001:000008a0       _FRS_SCANSYMLINK           100018a0     exported.obj
 0001:000008a8       _FRS_NONE                  100018a8     exported.obj
 0001:000008b0       _MLF_SHOWERRMSG            100018b0     exported.obj
 0001:000008b8       _MLF_DONOTUPDATEPANEL      100018b8     exported.obj
 0001:000008c0       _MLF_HOLDTARGET            100018c0     exported.obj
 0001:000008c8       _MLF_NONE                  100018c8     exported.obj
 0001:000008d0       _FFFS_COMMAS               100018d0     exported.obj
 0001:000008d8       _FFFS_FLOATSIZE            100018d8     exported.obj
 0001:000008e0       _FFFS_SHOWBYTESINDEX       100018e0     exported.obj
 0001:000008e8       _FFFS_ECONOMIC             100018e8     exported.obj
 0001:000008f0       _FFFS_THOUSAND             100018f0     exported.obj
 0001:000008f8       _FFFS_MINSIZEINDEX         100018f8     exported.obj
 0001:00000900       _FFFS_MINSIZEINDEX_MASK    10001900     exported.obj
 0001:00000908       _FFFS_NONE                 10001908     exported.obj
 0001:00000910       _PF_PRELOAD                10001910     exported.obj
 0001:00000918       _PF_DISABLEPANELS          10001918     exported.obj
 0001:00000920       _PF_EDITOR                 10001920     exported.obj
 0001:00000928       _PF_VIEWER                 10001928     exported.obj
 0001:00000930       _PF_FULLCMDLINE            10001930     exported.obj
 0001:00000938       _PF_DIALOG                 10001938     exported.obj
 0001:00000940       _PF_NONE                   10001940     exported.obj
 0001:00000948       _IPLFLAGS_SEPARATOR        10001948     exported.obj
 0001:00000950       _IPLFLAGS_NONE             10001950     exported.obj
 0001:00000958       _PMFLAGS_FULLSCREEN        10001958     exported.obj
 0001:00000960       _PMFLAGS_DETAILEDSTATUS    10001960     exported.obj
 0001:00000968       _PMFLAGS_ALIGNEXTENSIONS   10001968     exported.obj
 0001:00000970       _PMFLAGS_CASECONVERSION    10001970     exported.obj
 0001:00000978       _PMFLAGS_NONE              10001978     exported.obj
 0001:00000980       _OPIF_DISABLEFILTER        10001980     exported.obj
 0001:00000988       _OPIF_DISABLESORTGROUPS    10001988     exported.obj
 0001:00000990       _OPIF_DISABLEHIGHLIGHTING  10001990     exported.obj
 0001:00000998       _OPIF_ADDDOTS              10001998     exported.obj
 0001:000009a0       _OPIF_RAWSELECTION         100019a0     exported.obj
 0001:000009a8       _OPIF_REALNAMES            100019a8     exported.obj
 0001:000009b0       _OPIF_SHOWNAMESONLY        100019b0     exported.obj
 0001:000009b8       _OPIF_SHOWRIGHTALIGNNAMES  100019b8     exported.obj
 0001:000009c0       _OPIF_SHOWPRESERVECASE     100019c0     exported.obj
 0001:000009c8       _OPIF_COMPAREFATTIME       100019c8     exported.obj
 0001:000009d0       _OPIF_EXTERNALGET          100019d0     exported.obj
 0001:000009d8       _OPIF_EXTERNALPUT          100019d8     exported.obj
 0001:000009e0       _OPIF_EXTERNALDELETE       100019e0     exported.obj
 0001:000009e8       _OPIF_EXTERNALMKDIR        100019e8     exported.obj
 0001:000009f0       _OPIF_USEATTRHIGHLIGHTING  100019f0     exported.obj
 0001:000009f8       _OPIF_USECRC32             100019f8     exported.obj
 0001:00000a00       _OPIF_USEFREESIZE          10001a00     exported.obj
 0001:00000a08       _OPIF_SHORTCUT             10001a08     exported.obj
 0001:00000a10       _OPIF_NONE                 10001a10     exported.obj
 0001:00000a18       _OPM_SILENT                10001a18     exported.obj
 0001:00000a20       _OPM_FIND                  10001a20     exported.obj
 0001:00000a28       _OPM_VIEW                  10001a28     exported.obj
 0001:00000a30       _OPM_EDIT                  10001a30     exported.obj
 0001:00000a38       _OPM_TOPLEVEL              10001a38     exported.obj
 0001:00000a40       _OPM_DESCR                 10001a40     exported.obj
 0001:00000a48       _OPM_QUICKVIEW             10001a48     exported.obj
 0001:00000a50       _OPM_PGDN                  10001a50     exported.obj
 0001:00000a58       _OPM_COMMANDS              10001a58     exported.obj
 0001:00000a60       _OPM_NONE                  10001a60     exported.obj
 0001:00000a68       _FOSF_ACTIVE               10001a68     exported.obj
 0001:00000a70       _FOSF_NONE                 10001a70     exported.obj
 0001:00000a78       _PCIF_NONE                 10001a78     exported.obj
 0001:00000a80       _FarGuid                   10001a80     exported.obj
 0001:00000a90       _PDF_DIALOGEVENTDRAWENABLE 10001a90     exported.obj
 0001:00000a94       _PDF_PROCESSINGERROR       10001a94     exported.obj
 0001:000010e0       _FCF_FG_4BIT               100020e0     flags.obj
 0001:000010e8       _FCF_BG_4BIT               100020e8     flags.obj
 0001:000010f0       _FCF_4BITMASK              100020f0     flags.obj
 0001:000010f8       _FCF_RAWATTR_MASK          100020f8     flags.obj
 0001:00001100       _FCF_EXTENDEDFLAGS         10002100     flags.obj
 0001:00001108       _FCF_FG_BOLD               10002108     flags.obj
 0001:00001110       _FCF_FG_ITALIC             10002110     flags.obj
 0001:00001118       _FCF_FG_UNDERLINE          10002118     flags.obj
 0001:00001120       _FCF_STYLEMASK             10002120     flags.obj
 0001:00001128       _FCF_NONE                  10002128     flags.obj
 0001:00001130       _CDF_NONE                  10002130     flags.obj
 0001:00001138       _FMSG_WARNING              10002138     flags.obj
 0001:00001140       _FMSG_ERRORTYPE            10002140     flags.obj
 0001:00001148       _FMSG_KEEPBACKGROUND       10002148     flags.obj
 0001:00001150       _FMSG_LEFTALIGN            10002150     flags.obj
 0001:00001158       _FMSG_ALLINONE             10002158     flags.obj
 0001:00001160       _FMSG_MB_OK                10002160     flags.obj
 0001:00001168       _FMSG_MB_OKCANCEL          10002168     flags.obj
 0001:00001170       _FMSG_MB_ABORTRETRYIGNORE  10002170     flags.obj
 0001:00001178       _FMSG_MB_YESNO             10002178     flags.obj
 0001:00001180       _FMSG_MB_YESNOCANCEL       10002180     flags.obj
 0001:00001188       _FMSG_MB_RETRYCANCEL       10002188     flags.obj
 0001:00001190       _FMSG_NONE                 10002190     flags.obj
 0001:00001198       _DIF_BOXCOLOR              10002198     flags.obj
 0001:000011a0       _DIF_GROUP                 100021a0     flags.obj
 0001:000011a8       _DIF_LEFTTEXT              100021a8     flags.obj
 0001:000011b0       _DIF_MOVESELECT            100021b0     flags.obj
 0001:000011b8       _DIF_SHOWAMPERSAND         100021b8     flags.obj
 0001:000011c0       _DIF_CENTERGROUP           100021c0     flags.obj
 0001:000011c8       _DIF_NOBRACKETS            100021c8     flags.obj
 0001:000011d0       _DIF_MANUALADDHISTORY      100021d0     flags.obj
 0001:000011d8       _DIF_SEPARATOR             100021d8     flags.obj
 0001:000011e0       _DIF_SEPARATOR2            100021e0     flags.obj
 0001:000011e8       _DIF_EDITOR                100021e8     flags.obj
 0001:000011f0       _DIF_LISTNOAMPERSAND       100021f0     flags.obj
 0001:000011f8       _DIF_LISTNOBOX             100021f8     flags.obj
 0001:00001200       _DIF_HISTORY               10002200     flags.obj
 0001:00001208       _DIF_BTNNOCLOSE            10002208     flags.obj
 0001:00001210       _DIF_CENTERTEXT            10002210     flags.obj
 0001:00001218       _DIF_SEPARATORUSER         10002218     flags.obj
 0001:00001220       _DIF_SETSHIELD             10002220     flags.obj
 0001:00001228       _DIF_EDITEXPAND            10002228     flags.obj
 0001:00001230       _DIF_DROPDOWNLIST          10002230     flags.obj
 0001:00001238       _DIF_USELASTHISTORY        10002238     flags.obj
 0001:00001240       _DIF_MASKEDIT              10002240     flags.obj
 0001:00001248       _DIF_LISTTRACKMOUSE        10002248     flags.obj
 0001:00001250       _DIF_LISTTRACKMOUSEINFOCUS 10002250     flags.obj
 0001:00001258       _DIF_SELECTONENTRY         10002258     flags.obj
 0001:00001260       _DIF_3STATE                10002260     flags.obj
 0001:00001268       _DIF_EDITPATH              10002268     flags.obj
 0001:00001270       _DIF_LISTWRAPMODE          10002270     flags.obj
 0001:00001278       _DIF_NOAUTOCOMPLETE        10002278     flags.obj
 0001:00001280       _DIF_LISTAUTOHIGHLIGHT     10002280     flags.obj
 0001:00001288       _DIF_LISTNOCLOSE           10002288     flags.obj
 0001:00001290       _DIF_EDITPATHEXEC          10002290     flags.obj
 0001:00001298       _DIF_HIDDEN                10002298     flags.obj
 0001:000012a0       _DIF_READONLY              100022a0     flags.obj
 0001:000012a8       _DIF_NOFOCUS               100022a8     flags.obj
 0001:000012b0       _DIF_DISABLE               100022b0     flags.obj
 0001:000012b8       _DIF_DEFAULTBUTTON         100022b8     flags.obj
 0001:000012c0       _DIF_FOCUS                 100022c0     flags.obj
 0001:000012c8       _DIF_RIGHTTEXT             100022c8     flags.obj
 0001:000012d0       _DIF_WORDWRAP              100022d0     flags.obj
 0001:000012d8       _DIF_NONE                  100022d8     flags.obj
 0001:000012e0       _LIF_SELECTED              100022e0     flags.obj
 0001:000012e8       _LIF_CHECKED               100022e8     flags.obj
 0001:000012f0       _LIF_SEPARATOR             100022f0     flags.obj
 0001:000012f8       _LIF_DISABLE               100022f8     flags.obj
 0001:00001300       _LIF_GRAYED                10002300     flags.obj
 0001:00001308       _LIF_HIDDEN                10002308     flags.obj
 0001:00001310       _LIF_DELETEUSERDATA        10002310     flags.obj
 0001:00001318       _LIF_NONE                  10002318     flags.obj
 0001:00001320       _LIFIND_EXACTMATCH         10002320     flags.obj
 0001:00001328       _LIFIND_NONE               10002328     flags.obj
 0001:00001330       _LINFO_SHOWNOBOX           10002330     flags.obj
 0001:00001338       _LINFO_AUTOHIGHLIGHT       10002338     flags.obj
 0001:00001340       _LINFO_REVERSEHIGHLIGHT    10002340     flags.obj
 0001:00001348       _LINFO_WRAPMODE            10002348     flags.obj
 0001:00001350       _LINFO_SHOWAMPERSAND       10002350     flags.obj
 0001:00001358       _LINFO_NONE                10002358     flags.obj
 0001:00001360       _FDLG_WARNING              10002360     flags.obj
 0001:00001368       _FDLG_SMALLDIALOG          10002368     flags.obj
 0001:00001370       _FDLG_NODRAWSHADOW         10002370     flags.obj
 0001:00001378       _FDLG_NODRAWPANEL          10002378     flags.obj
 0001:00001380       _FDLG_KEEPCONSOLETITLE     10002380     flags.obj
 0001:00001388       _FDLG_NONMODAL             10002388     flags.obj
 0001:00001390       _FDLG_NONE                 10002390     flags.obj
 0001:00001398       _MIF_SELECTED              10002398     flags.obj
 0001:000013a0       _MIF_CHECKED               100023a0     flags.obj
 0001:000013a8       _MIF_SEPARATOR             100023a8     flags.obj
 0001:000013b0       _MIF_DISABLE               100023b0     flags.obj
 0001:000013b8       _MIF_GRAYED                100023b8     flags.obj
 0001:000013c0       _MIF_HIDDEN                100023c0     flags.obj
 0001:000013c8       _MIF_NONE                  100023c8     flags.obj
 0001:000013d0       _FMENU_SHOWAMPERSAND       100023d0     flags.obj
 0001:000013d8       _FMENU_WRAPMODE            100023d8     flags.obj
 0001:000013e0       _FMENU_AUTOHIGHLIGHT       100023e0     flags.obj
 0001:000013e8       _FMENU_REVERSEAUTOHIGHLIGHT 100023e8     flags.obj
 0001:000013f0       _FMENU_CHANGECONSOLETITLE  100023f0     flags.obj
 0001:000013f8       _FMENU_NONE                100023f8     flags.obj
 0001:00001400       _PPIF_SELECTED             10002400     flags.obj
 0001:00001408       _PPIF_PROCESSDESCR         10002408     flags.obj
 0001:00001410       _PPIF_NONE                 10002410     flags.obj
 0001:00001418       _PFLAGS_SHOWHIDDEN         10002418     flags.obj
 0001:00001420       _PFLAGS_HIGHLIGHT          10002420     flags.obj
 0001:00001428       _PFLAGS_REVERSESORTORDER   10002428     flags.obj
 0001:00001430       _PFLAGS_USESORTGROUPS      10002430     flags.obj
 0001:00001438       _PFLAGS_SELECTEDFIRST      10002438     flags.obj
 0001:00001440       _PFLAGS_REALNAMES          10002440     flags.obj
 0001:00001448       _PFLAGS_PANELLEFT          10002448     flags.obj
 0001:00001450       _PFLAGS_DIRECTORIESFIRST   10002450     flags.obj
 0001:00001458       _PFLAGS_USECRC32           10002458     flags.obj
 0001:00001460       _PFLAGS_PLUGIN             10002460     flags.obj
 0001:00001468       _PFLAGS_VISIBLE            10002468     flags.obj
 0001:00001470       _PFLAGS_FOCUS              10002470     flags.obj
 0001:00001478       _PFLAGS_ALTERNATIVENAMES   10002478     flags.obj
 0001:00001480       _PFLAGS_SHORTCUT           10002480     flags.obj
 0001:00001488       _PFLAGS_NONE               10002488     flags.obj
 0001:00001490       _VF_NONMODAL               10002490     flags.obj
 0001:00001498       _VF_DELETEONCLOSE          10002498     flags.obj
 0001:000014a0       _VF_ENABLE_F6              100024a0     flags.obj
 0001:000014a8       _VF_DISABLEHISTORY         100024a8     flags.obj
 0001:000014b0       _VF_IMMEDIATERETURN        100024b0     flags.obj
 0001:000014b8       _VF_DELETEONLYFILEONCLOSE  100024b8     flags.obj
 0001:000014c0       _VF_NONE                   100024c0     flags.obj
 0001:000014c8       _EF_NONMODAL               100024c8     flags.obj
 0001:000014d0       _EF_CREATENEW              100024d0     flags.obj
 0001:000014d8       _EF_ENABLE_F6              100024d8     flags.obj
 0001:000014e0       _EF_DISABLEHISTORY         100024e0     flags.obj
 0001:000014e8       _EF_DELETEONCLOSE          100024e8     flags.obj
 0001:000014f0       _EF_IMMEDIATERETURN        100024f0     flags.obj
 0001:000014f8       _EF_DELETEONLYFILEONCLOSE  100024f8     flags.obj
 0001:00001500       _EF_LOCKED                 10002500     flags.obj
 0001:00001508       _EF_DISABLESAVEPOS         10002508     flags.obj
 0001:00001510       _EF_OPENMODE_MASK          10002510     flags.obj
 0001:00001518       _EF_OPENMODE_QUERY         10002518     flags.obj
 0001:00001520       _EF_OPENMODE_NEWIFOPEN     10002520     flags.obj
 0001:00001528       _EF_OPENMODE_USEEXISTING   10002528     flags.obj
 0001:00001530       _EF_OPENMODE_BREAKIFOPEN   10002530     flags.obj
 0001:00001538       _EF_OPENMODE_RELOADIFOPEN  10002538     flags.obj
 0001:00001540       _EN_NONE                   10002540     flags.obj
 0001:00001548       _FHELP_NOSHOWERROR         10002548     flags.obj
 0001:00001550       _FHELP_SELFHELP            10002550     flags.obj
 0001:00001558       _FHELP_FARHELP             10002558     flags.obj
 0001:00001560       _FHELP_CUSTOMFILE          10002560     flags.obj
 0001:00001568       _FHELP_CUSTOMPATH          10002568     flags.obj
 0001:00001570       _FHELP_GUID                10002570     flags.obj
 0001:00001578       _FHELP_USECONTENTS         10002578     flags.obj
 0001:00001580       _FHELP_NONE                10002580     flags.obj
 0001:00001588       _KMFLAGS_SILENTCHECK       10002588     flags.obj
 0001:00001590       _KMFLAGS_NOSENDKEYSTOPLUGINS 10002590     flags.obj
 0001:00001598       _KMFLAGS_ENABLEOUTPUT      10002598     flags.obj
 0001:000015a0       _KMFLAGS_LANGMASK          100025a0     flags.obj
 0001:000015a8       _KMFLAGS_LUA               100025a8     flags.obj
 0001:000015b0       _KMFLAGS_MOONSCRIPT        100025b0     flags.obj
 0001:000015b8       _KMFLAGS_NONE              100025b8     flags.obj
 0001:000015c0       _AKMFLAGS_NONE             100025c0     flags.obj
 0001:000015c8       _FSETCLR_REDRAW            100025c8     flags.obj
 0001:000015d0       _FSETCLR_NONE              100025d0     flags.obj
 0001:000015d8       _WIF_MODIFIED              100025d8     flags.obj
 0001:000015e0       _WIF_CURRENT               100025e0     flags.obj
 0001:000015e8       _WIF_MODAL                 100025e8     flags.obj
 0001:000015f0       _WIF_NONE                  100025f0     flags.obj
 0001:000015f8       _VOPT_SAVEFILEPOSITION     100025f8     flags.obj
 0001:00001600       _VOPT_AUTODETECTCODEPAGE   10002600     flags.obj
 0001:00001608       _VOPT_SHOWTITLEBAR         10002608     flags.obj
 0001:00001610       _VOPT_SHOWKEYBAR           10002610     flags.obj
 0001:00001618       _VOPT_SHOWSCROLLBAR        10002618     flags.obj
 0001:00001620       _VOPT_QUICKVIEW            10002620     flags.obj
 0001:00001628       _VOPT_NONE                 10002628     flags.obj
 0001:00001630       _VSMFL_REDRAW              10002630     flags.obj
 0001:00001638       _VSMFL_NONE                10002638     flags.obj
 0001:00001640       _VSP_NOREDRAW              10002640     flags.obj
 0001:00001648       _VSP_PERCENT               10002648     flags.obj
 0001:00001650       _VSP_RELATIVE              10002650     flags.obj
 0001:00001658       _VSP_NORETNEWPOS           10002658     flags.obj
 0001:00001660       _VSP_NONE                  10002660     flags.obj
 0001:00001668       _VMF_WRAP                  10002668     flags.obj
 0001:00001670       _VMF_WORDWRAP              10002670     flags.obj
 0001:00001678       _VMF_NONE                  10002678     flags.obj
 0001:00001680       _ECF_TABMARKFIRST          10002680     flags.obj
 0001:00001688       _ECF_TABMARKCURRENT        10002688     flags.obj
 0001:00001690       _ECF_AUTODELETE            10002690     flags.obj
 0001:00001698       _ECF_NONE                  10002698     flags.obj
 0001:000016a0       _FIB_ENABLEEMPTY           100026a0     flags.obj
 0001:000016a8       _FIB_PASSWORD              100026a8     flags.obj
 0001:000016b0       _FIB_EXPANDENV             100026b0     flags.obj
 0001:000016b8       _FIB_NOUSELASTHISTORY      100026b8     flags.obj
 0001:000016c0       _FIB_BUTTONS               100026c0     flags.obj
 0001:000016c8       _FIB_NOAMPERSAND           100026c8     flags.obj
 0001:000016d0       _FIB_EDITPATH              100026d0     flags.obj
 0001:000016d8       _FIB_EDITPATHEXEC          100026d8     flags.obj
 0001:000016e0       _FIB_NONE                  100026e0     flags.obj
 0001:000016e8       _FPF_LOADED                100026e8     flags.obj
 0001:000016f0       _FPF_ANSI                  100026f0     flags.obj
 0001:000016f8       _FPF_NONE                  100026f8     flags.obj
 0001:00001700       _PN_CMPNAME                10002700     flags.obj
 0001:00001708       _PN_CMPNAMELIST            10002708     flags.obj
 0001:00001710       _PN_GENERATENAME           10002710     flags.obj
 0001:00001718       _PN_CHECKMASK              10002718     flags.obj
 0001:00001720       _PN_SKIPPATH               10002720     flags.obj
 0001:00001728       _PN_SHOWERRORMESSAGE       10002728     flags.obj
 0001:00001730       _PN_NONE                   10002730     flags.obj
 0001:00001738       _XLAT_SWITCHKEYBLAYOUT     10002738     flags.obj
 0001:00001740       _XLAT_SWITCHKEYBBEEP       10002740     flags.obj
 0001:00001748       _XLAT_USEKEYBLAYOUTNAME    10002748     flags.obj
 0001:00001750       _XLAT_CONVERTALLCMDLINE    10002750     flags.obj
 0001:00001758       _XLAT_NONE                 10002758     flags.obj
 0001:00001760       _FRS_RETUPDIR              10002760     flags.obj
 0001:00001768       _FRS_RECUR                 10002768     flags.obj
 0001:00001770       _FRS_SCANSYMLINK           10002770     flags.obj
 0001:00001778       _FRS_NONE                  10002778     flags.obj
 0001:00001780       _MLF_SHOWERRMSG            10002780     flags.obj
 0001:00001788       _MLF_DONOTUPDATEPANEL      10002788     flags.obj
 0001:00001790       _MLF_HOLDTARGET            10002790     flags.obj
 0001:00001798       _MLF_NONE                  10002798     flags.obj
 0001:000017a0       _FFFS_COMMAS               100027a0     flags.obj
 0001:000017a8       _FFFS_FLOATSIZE            100027a8     flags.obj
 0001:000017b0       _FFFS_SHOWBYTESINDEX       100027b0     flags.obj
 0001:000017b8       _FFFS_ECONOMIC             100027b8     flags.obj
 0001:000017c0       _FFFS_THOUSAND             100027c0     flags.obj
 0001:000017c8       _FFFS_MINSIZEINDEX         100027c8     flags.obj
 0001:000017d0       _FFFS_MINSIZEINDEX_MASK    100027d0     flags.obj
 0001:000017d8       _FFFS_NONE                 100027d8     flags.obj
 0001:000017e0       _PF_PRELOAD                100027e0     flags.obj
 0001:000017e8       _PF_DISABLEPANELS          100027e8     flags.obj
 0001:000017f0       _PF_EDITOR                 100027f0     flags.obj
 0001:000017f8       _PF_VIEWER                 100027f8     flags.obj
 0001:00001800       _PF_FULLCMDLINE            10002800     flags.obj
 0001:00001808       _PF_DIALOG                 10002808     flags.obj
 0001:00001810       _PF_NONE                   10002810     flags.obj
 0001:00001818       _IPLFLAGS_SEPARATOR        10002818     flags.obj
 0001:00001820       _IPLFLAGS_NONE             10002820     flags.obj
 0001:00001828       _PMFLAGS_FULLSCREEN        10002828     flags.obj
 0001:00001830       _PMFLAGS_DETAILEDSTATUS    10002830     flags.obj
 0001:00001838       _PMFLAGS_ALIGNEXTENSIONS   10002838     flags.obj
 0001:00001840       _PMFLAGS_CASECONVERSION    10002840     flags.obj
 0001:00001848       _PMFLAGS_NONE              10002848     flags.obj
 0001:00001850       _OPIF_DISABLEFILTER        10002850     flags.obj
 0001:00001858       _OPIF_DISABLESORTGROUPS    10002858     flags.obj
 0001:00001860       _OPIF_DISABLEHIGHLIGHTING  10002860     flags.obj
 0001:00001868       _OPIF_ADDDOTS              10002868     flags.obj
 0001:00001870       _OPIF_RAWSELECTION         10002870     flags.obj
 0001:00001878       _OPIF_REALNAMES            10002878     flags.obj
 0001:00001880       _OPIF_SHOWNAMESONLY        10002880     flags.obj
 0001:00001888       _OPIF_SHOWRIGHTALIGNNAMES  10002888     flags.obj
 0001:00001890       _OPIF_SHOWPRESERVECASE     10002890     flags.obj
 0001:00001898       _OPIF_COMPAREFATTIME       10002898     flags.obj
 0001:000018a0       _OPIF_EXTERNALGET          100028a0     flags.obj
 0001:000018a8       _OPIF_EXTERNALPUT          100028a8     flags.obj
 0001:000018b0       _OPIF_EXTERNALDELETE       100028b0     flags.obj
 0001:000018b8       _OPIF_EXTERNALMKDIR        100028b8     flags.obj
 0001:000018c0       _OPIF_USEATTRHIGHLIGHTING  100028c0     flags.obj
 0001:000018c8       _OPIF_USECRC32             100028c8     flags.obj
 0001:000018d0       _OPIF_USEFREESIZE          100028d0     flags.obj
 0001:000018d8       _OPIF_SHORTCUT             100028d8     flags.obj
 0001:000018e0       _OPIF_NONE                 100028e0     flags.obj
 0001:000018e8       _OPM_SILENT                100028e8     flags.obj
 0001:000018f0       _OPM_FIND                  100028f0     flags.obj
 0001:000018f8       _OPM_VIEW                  100028f8     flags.obj
 0001:00001900       _OPM_EDIT                  10002900     flags.obj
 0001:00001908       _OPM_TOPLEVEL              10002908     flags.obj
 0001:00001910       _OPM_DESCR                 10002910     flags.obj
 0001:00001918       _OPM_QUICKVIEW             10002918     flags.obj
 0001:00001920       _OPM_PGDN                  10002920     flags.obj
 0001:00001928       _OPM_COMMANDS              10002928     flags.obj
 0001:00001930       _OPM_NONE                  10002930     flags.obj
 0001:00001938       _FOSF_ACTIVE               10002938     flags.obj
 0001:00001940       _FOSF_NONE                 10002940     flags.obj
 0001:00001948       _PCIF_NONE                 10002948     flags.obj
 0001:00001950       _FarGuid                   10002950     flags.obj
 0001:00005e78       _colors                    10006e78     keysandcolors.obj
 0001:00006dd8       _guids                     10007dd8     keysandcolors.obj
 0001:00008158       _FCF_FG_4BIT               10009158     lflua.obj
 0001:00008160       _FCF_BG_4BIT               10009160     lflua.obj
 0001:00008168       _FCF_4BITMASK              10009168     lflua.obj
 0001:00008170       _FCF_RAWATTR_MASK          10009170     lflua.obj
 0001:00008178       _FCF_EXTENDEDFLAGS         10009178     lflua.obj
 0001:00008180       _FCF_FG_BOLD               10009180     lflua.obj
 0001:00008188       _FCF_FG_ITALIC             10009188     lflua.obj
 0001:00008190       _FCF_FG_UNDERLINE          10009190     lflua.obj
 0001:00008198       _FCF_STYLEMASK             10009198     lflua.obj
 0001:000081a0       _FCF_NONE                  100091a0     lflua.obj
 0001:000081a8       _CDF_NONE                  100091a8     lflua.obj
 0001:000081b0       _FMSG_WARNING              100091b0     lflua.obj
 0001:000081b8       _FMSG_ERRORTYPE            100091b8     lflua.obj
 0001:000081c0       _FMSG_KEEPBACKGROUND       100091c0     lflua.obj
 0001:000081c8       _FMSG_LEFTALIGN            100091c8     lflua.obj
 0001:000081d0       _FMSG_ALLINONE             100091d0     lflua.obj
 0001:000081d8       _FMSG_MB_OK                100091d8     lflua.obj
 0001:000081e0       _FMSG_MB_OKCANCEL          100091e0     lflua.obj
 0001:000081e8       _FMSG_MB_ABORTRETRYIGNORE  100091e8     lflua.obj
 0001:000081f0       _FMSG_MB_YESNO             100091f0     lflua.obj
 0001:000081f8       _FMSG_MB_YESNOCANCEL       100091f8     lflua.obj
 0001:00008200       _FMSG_MB_RETRYCANCEL       10009200     lflua.obj
 0001:00008208       _FMSG_NONE                 10009208     lflua.obj
 0001:00008210       _DIF_BOXCOLOR              10009210     lflua.obj
 0001:00008218       _DIF_GROUP                 10009218     lflua.obj
 0001:00008220       _DIF_LEFTTEXT              10009220     lflua.obj
 0001:00008228       _DIF_MOVESELECT            10009228     lflua.obj
 0001:00008230       _DIF_SHOWAMPERSAND         10009230     lflua.obj
 0001:00008238       _DIF_CENTERGROUP           10009238     lflua.obj
 0001:00008240       _DIF_NOBRACKETS            10009240     lflua.obj
 0001:00008248       _DIF_MANUALADDHISTORY      10009248     lflua.obj
 0001:00008250       _DIF_SEPARATOR             10009250     lflua.obj
 0001:00008258       _DIF_SEPARATOR2            10009258     lflua.obj
 0001:00008260       _DIF_EDITOR                10009260     lflua.obj
 0001:00008268       _DIF_LISTNOAMPERSAND       10009268     lflua.obj
 0001:00008270       _DIF_LISTNOBOX             10009270     lflua.obj
 0001:00008278       _DIF_HISTORY               10009278     lflua.obj
 0001:00008280       _DIF_BTNNOCLOSE            10009280     lflua.obj
 0001:00008288       _DIF_CENTERTEXT            10009288     lflua.obj
 0001:00008290       _DIF_SEPARATORUSER         10009290     lflua.obj
 0001:00008298       _DIF_SETSHIELD             10009298     lflua.obj
 0001:000082a0       _DIF_EDITEXPAND            100092a0     lflua.obj
 0001:000082a8       _DIF_DROPDOWNLIST          100092a8     lflua.obj
 0001:000082b0       _DIF_USELASTHISTORY        100092b0     lflua.obj
 0001:000082b8       _DIF_MASKEDIT              100092b8     lflua.obj
 0001:000082c0       _DIF_LISTTRACKMOUSE        100092c0     lflua.obj
 0001:000082c8       _DIF_LISTTRACKMOUSEINFOCUS 100092c8     lflua.obj
 0001:000082d0       _DIF_SELECTONENTRY         100092d0     lflua.obj
 0001:000082d8       _DIF_3STATE                100092d8     lflua.obj
 0001:000082e0       _DIF_EDITPATH              100092e0     lflua.obj
 0001:000082e8       _DIF_LISTWRAPMODE          100092e8     lflua.obj
 0001:000082f0       _DIF_NOAUTOCOMPLETE        100092f0     lflua.obj
 0001:000082f8       _DIF_LISTAUTOHIGHLIGHT     100092f8     lflua.obj
 0001:00008300       _DIF_LISTNOCLOSE           10009300     lflua.obj
 0001:00008308       _DIF_EDITPATHEXEC          10009308     lflua.obj
 0001:00008310       _DIF_HIDDEN                10009310     lflua.obj
 0001:00008318       _DIF_READONLY              10009318     lflua.obj
 0001:00008320       _DIF_NOFOCUS               10009320     lflua.obj
 0001:00008328       _DIF_DISABLE               10009328     lflua.obj
 0001:00008330       _DIF_DEFAULTBUTTON         10009330     lflua.obj
 0001:00008338       _DIF_FOCUS                 10009338     lflua.obj
 0001:00008340       _DIF_RIGHTTEXT             10009340     lflua.obj
 0001:00008348       _DIF_WORDWRAP              10009348     lflua.obj
 0001:00008350       _DIF_NONE                  10009350     lflua.obj
 0001:00008358       _LIF_SELECTED              10009358     lflua.obj
 0001:00008360       _LIF_CHECKED               10009360     lflua.obj
 0001:00008368       _LIF_SEPARATOR             10009368     lflua.obj
 0001:00008370       _LIF_DISABLE               10009370     lflua.obj
 0001:00008378       _LIF_GRAYED                10009378     lflua.obj
 0001:00008380       _LIF_HIDDEN                10009380     lflua.obj
 0001:00008388       _LIF_DELETEUSERDATA        10009388     lflua.obj
 0001:00008390       _LIF_NONE                  10009390     lflua.obj
 0001:00008398       _LIFIND_EXACTMATCH         10009398     lflua.obj
 0001:000083a0       _LIFIND_NONE               100093a0     lflua.obj
 0001:000083a8       _LINFO_SHOWNOBOX           100093a8     lflua.obj
 0001:000083b0       _LINFO_AUTOHIGHLIGHT       100093b0     lflua.obj
 0001:000083b8       _LINFO_REVERSEHIGHLIGHT    100093b8     lflua.obj
 0001:000083c0       _LINFO_WRAPMODE            100093c0     lflua.obj
 0001:000083c8       _LINFO_SHOWAMPERSAND       100093c8     lflua.obj
 0001:000083d0       _LINFO_NONE                100093d0     lflua.obj
 0001:000083d8       _FDLG_WARNING              100093d8     lflua.obj
 0001:000083e0       _FDLG_SMALLDIALOG          100093e0     lflua.obj
 0001:000083e8       _FDLG_NODRAWSHADOW         100093e8     lflua.obj
 0001:000083f0       _FDLG_NODRAWPANEL          100093f0     lflua.obj
 0001:000083f8       _FDLG_KEEPCONSOLETITLE     100093f8     lflua.obj
 0001:00008400       _FDLG_NONMODAL             10009400     lflua.obj
 0001:00008408       _FDLG_NONE                 10009408     lflua.obj
 0001:00008410       _MIF_SELECTED              10009410     lflua.obj
 0001:00008418       _MIF_CHECKED               10009418     lflua.obj
 0001:00008420       _MIF_SEPARATOR             10009420     lflua.obj
 0001:00008428       _MIF_DISABLE               10009428     lflua.obj
 0001:00008430       _MIF_GRAYED                10009430     lflua.obj
 0001:00008438       _MIF_HIDDEN                10009438     lflua.obj
 0001:00008440       _MIF_NONE                  10009440     lflua.obj
 0001:00008448       _FMENU_SHOWAMPERSAND       10009448     lflua.obj
 0001:00008450       _FMENU_WRAPMODE            10009450     lflua.obj
 0001:00008458       _FMENU_AUTOHIGHLIGHT       10009458     lflua.obj
 0001:00008460       _FMENU_REVERSEAUTOHIGHLIGHT 10009460     lflua.obj
 0001:00008468       _FMENU_CHANGECONSOLETITLE  10009468     lflua.obj
 0001:00008470       _FMENU_NONE                10009470     lflua.obj
 0001:00008478       _PPIF_SELECTED             10009478     lflua.obj
 0001:00008480       _PPIF_PROCESSDESCR         10009480     lflua.obj
 0001:00008488       _PPIF_NONE                 10009488     lflua.obj
 0001:00008490       _PFLAGS_SHOWHIDDEN         10009490     lflua.obj
 0001:00008498       _PFLAGS_HIGHLIGHT          10009498     lflua.obj
 0001:000084a0       _PFLAGS_REVERSESORTORDER   100094a0     lflua.obj
 0001:000084a8       _PFLAGS_USESORTGROUPS      100094a8     lflua.obj
 0001:000084b0       _PFLAGS_SELECTEDFIRST      100094b0     lflua.obj
 0001:000084b8       _PFLAGS_REALNAMES          100094b8     lflua.obj
 0001:000084c0       _PFLAGS_PANELLEFT          100094c0     lflua.obj
 0001:000084c8       _PFLAGS_DIRECTORIESFIRST   100094c8     lflua.obj
 0001:000084d0       _PFLAGS_USECRC32           100094d0     lflua.obj
 0001:000084d8       _PFLAGS_PLUGIN             100094d8     lflua.obj
 0001:000084e0       _PFLAGS_VISIBLE            100094e0     lflua.obj
 0001:000084e8       _PFLAGS_FOCUS              100094e8     lflua.obj
 0001:000084f0       _PFLAGS_ALTERNATIVENAMES   100094f0     lflua.obj
 0001:000084f8       _PFLAGS_SHORTCUT           100094f8     lflua.obj
 0001:00008500       _PFLAGS_NONE               10009500     lflua.obj
 0001:00008508       _VF_NONMODAL               10009508     lflua.obj
 0001:00008510       _VF_DELETEONCLOSE          10009510     lflua.obj
 0001:00008518       _VF_ENABLE_F6              10009518     lflua.obj
 0001:00008520       _VF_DISABLEHISTORY         10009520     lflua.obj
 0001:00008528       _VF_IMMEDIATERETURN        10009528     lflua.obj
 0001:00008530       _VF_DELETEONLYFILEONCLOSE  10009530     lflua.obj
 0001:00008538       _VF_NONE                   10009538     lflua.obj
 0001:00008540       _EF_NONMODAL               10009540     lflua.obj
 0001:00008548       _EF_CREATENEW              10009548     lflua.obj
 0001:00008550       _EF_ENABLE_F6              10009550     lflua.obj
 0001:00008558       _EF_DISABLEHISTORY         10009558     lflua.obj
 0001:00008560       _EF_DELETEONCLOSE          10009560     lflua.obj
 0001:00008568       _EF_IMMEDIATERETURN        10009568     lflua.obj
 0001:00008570       _EF_DELETEONLYFILEONCLOSE  10009570     lflua.obj
 0001:00008578       _EF_LOCKED                 10009578     lflua.obj
 0001:00008580       _EF_DISABLESAVEPOS         10009580     lflua.obj
 0001:00008588       _EF_OPENMODE_MASK          10009588     lflua.obj
 0001:00008590       _EF_OPENMODE_QUERY         10009590     lflua.obj
 0001:00008598       _EF_OPENMODE_NEWIFOPEN     10009598     lflua.obj
 0001:000085a0       _EF_OPENMODE_USEEXISTING   100095a0     lflua.obj
 0001:000085a8       _EF_OPENMODE_BREAKIFOPEN   100095a8     lflua.obj
 0001:000085b0       _EF_OPENMODE_RELOADIFOPEN  100095b0     lflua.obj
 0001:000085b8       _EN_NONE                   100095b8     lflua.obj
 0001:000085c0       _FHELP_NOSHOWERROR         100095c0     lflua.obj
 0001:000085c8       _FHELP_SELFHELP            100095c8     lflua.obj
 0001:000085d0       _FHELP_FARHELP             100095d0     lflua.obj
 0001:000085d8       _FHELP_CUSTOMFILE          100095d8     lflua.obj
 0001:000085e0       _FHELP_CUSTOMPATH          100095e0     lflua.obj
 0001:000085e8       _FHELP_GUID                100095e8     lflua.obj
 0001:000085f0       _FHELP_USECONTENTS         100095f0     lflua.obj
 0001:000085f8       _FHELP_NONE                100095f8     lflua.obj
 0001:00008600       _KMFLAGS_SILENTCHECK       10009600     lflua.obj
 0001:00008608       _KMFLAGS_NOSENDKEYSTOPLUGINS 10009608     lflua.obj
 0001:00008610       _KMFLAGS_ENABLEOUTPUT      10009610     lflua.obj
 0001:00008618       _KMFLAGS_LANGMASK          10009618     lflua.obj
 0001:00008620       _KMFLAGS_LUA               10009620     lflua.obj
 0001:00008628       _KMFLAGS_MOONSCRIPT        10009628     lflua.obj
 0001:00008630       _KMFLAGS_NONE              10009630     lflua.obj
 0001:00008638       _AKMFLAGS_NONE             10009638     lflua.obj
 0001:00008640       _FSETCLR_REDRAW            10009640     lflua.obj
 0001:00008648       _FSETCLR_NONE              10009648     lflua.obj
 0001:00008650       _WIF_MODIFIED              10009650     lflua.obj
 0001:00008658       _WIF_CURRENT               10009658     lflua.obj
 0001:00008660       _WIF_MODAL                 10009660     lflua.obj
 0001:00008668       _WIF_NONE                  10009668     lflua.obj
 0001:00008670       _VOPT_SAVEFILEPOSITION     10009670     lflua.obj
 0001:00008678       _VOPT_AUTODETECTCODEPAGE   10009678     lflua.obj
 0001:00008680       _VOPT_SHOWTITLEBAR         10009680     lflua.obj
 0001:00008688       _VOPT_SHOWKEYBAR           10009688     lflua.obj
 0001:00008690       _VOPT_SHOWSCROLLBAR        10009690     lflua.obj
 0001:00008698       _VOPT_QUICKVIEW            10009698     lflua.obj
 0001:000086a0       _VOPT_NONE                 100096a0     lflua.obj
 0001:000086a8       _VSMFL_REDRAW              100096a8     lflua.obj
 0001:000086b0       _VSMFL_NONE                100096b0     lflua.obj
 0001:000086b8       _VSP_NOREDRAW              100096b8     lflua.obj
 0001:000086c0       _VSP_PERCENT               100096c0     lflua.obj
 0001:000086c8       _VSP_RELATIVE              100096c8     lflua.obj
 0001:000086d0       _VSP_NORETNEWPOS           100096d0     lflua.obj
 0001:000086d8       _VSP_NONE                  100096d8     lflua.obj
 0001:000086e0       _VMF_WRAP                  100096e0     lflua.obj
 0001:000086e8       _VMF_WORDWRAP              100096e8     lflua.obj
 0001:000086f0       _VMF_NONE                  100096f0     lflua.obj
 0001:000086f8       _ECF_TABMARKFIRST          100096f8     lflua.obj
 0001:00008700       _ECF_TABMARKCURRENT        10009700     lflua.obj
 0001:00008708       _ECF_AUTODELETE            10009708     lflua.obj
 0001:00008710       _ECF_NONE                  10009710     lflua.obj
 0001:00008718       _FIB_ENABLEEMPTY           10009718     lflua.obj
 0001:00008720       _FIB_PASSWORD              10009720     lflua.obj
 0001:00008728       _FIB_EXPANDENV             10009728     lflua.obj
 0001:00008730       _FIB_NOUSELASTHISTORY      10009730     lflua.obj
 0001:00008738       _FIB_BUTTONS               10009738     lflua.obj
 0001:00008740       _FIB_NOAMPERSAND           10009740     lflua.obj
 0001:00008748       _FIB_EDITPATH              10009748     lflua.obj
 0001:00008750       _FIB_EDITPATHEXEC          10009750     lflua.obj
 0001:00008758       _FIB_NONE                  10009758     lflua.obj
 0001:00008760       _FPF_LOADED                10009760     lflua.obj
 0001:00008768       _FPF_ANSI                  10009768     lflua.obj
 0001:00008770       _FPF_NONE                  10009770     lflua.obj
 0001:00008778       _PN_CMPNAME                10009778     lflua.obj
 0001:00008780       _PN_CMPNAMELIST            10009780     lflua.obj
 0001:00008788       _PN_GENERATENAME           10009788     lflua.obj
 0001:00008790       _PN_CHECKMASK              10009790     lflua.obj
 0001:00008798       _PN_SKIPPATH               10009798     lflua.obj
 0001:000087a0       _PN_SHOWERRORMESSAGE       100097a0     lflua.obj
 0001:000087a8       _PN_NONE                   100097a8     lflua.obj
 0001:000087b0       _XLAT_SWITCHKEYBLAYOUT     100097b0     lflua.obj
 0001:000087b8       _XLAT_SWITCHKEYBBEEP       100097b8     lflua.obj
 0001:000087c0       _XLAT_USEKEYBLAYOUTNAME    100097c0     lflua.obj
 0001:000087c8       _XLAT_CONVERTALLCMDLINE    100097c8     lflua.obj
 0001:000087d0       _XLAT_NONE                 100097d0     lflua.obj
 0001:000087d8       _FRS_RETUPDIR              100097d8     lflua.obj
 0001:000087e0       _FRS_RECUR                 100097e0     lflua.obj
 0001:000087e8       _FRS_SCANSYMLINK           100097e8     lflua.obj
 0001:000087f0       _FRS_NONE                  100097f0     lflua.obj
 0001:000087f8       _MLF_SHOWERRMSG            100097f8     lflua.obj
 0001:00008800       _MLF_DONOTUPDATEPANEL      10009800     lflua.obj
 0001:00008808       _MLF_HOLDTARGET            10009808     lflua.obj
 0001:00008810       _MLF_NONE                  10009810     lflua.obj
 0001:00008818       _FFFS_COMMAS               10009818     lflua.obj
 0001:00008820       _FFFS_FLOATSIZE            10009820     lflua.obj
 0001:00008828       _FFFS_SHOWBYTESINDEX       10009828     lflua.obj
 0001:00008830       _FFFS_ECONOMIC             10009830     lflua.obj
 0001:00008838       _FFFS_THOUSAND             10009838     lflua.obj
 0001:00008840       _FFFS_MINSIZEINDEX         10009840     lflua.obj
 0001:00008848       _FFFS_MINSIZEINDEX_MASK    10009848     lflua.obj
 0001:00008850       _FFFS_NONE                 10009850     lflua.obj
 0001:00008858       _PF_PRELOAD                10009858     lflua.obj
 0001:00008860       _PF_DISABLEPANELS          10009860     lflua.obj
 0001:00008868       _PF_EDITOR                 10009868     lflua.obj
 0001:00008870       _PF_VIEWER                 10009870     lflua.obj
 0001:00008878       _PF_FULLCMDLINE            10009878     lflua.obj
 0001:00008880       _PF_DIALOG                 10009880     lflua.obj
 0001:00008888       _PF_NONE                   10009888     lflua.obj
 0001:00008890       _IPLFLAGS_SEPARATOR        10009890     lflua.obj
 0001:00008898       _IPLFLAGS_NONE             10009898     lflua.obj
 0001:000088a0       _PMFLAGS_FULLSCREEN        100098a0     lflua.obj
 0001:000088a8       _PMFLAGS_DETAILEDSTATUS    100098a8     lflua.obj
 0001:000088b0       _PMFLAGS_ALIGNEXTENSIONS   100098b0     lflua.obj
 0001:000088b8       _PMFLAGS_CASECONVERSION    100098b8     lflua.obj
 0001:000088c0       _PMFLAGS_NONE              100098c0     lflua.obj
 0001:000088c8       _OPIF_DISABLEFILTER        100098c8     lflua.obj
 0001:000088d0       _OPIF_DISABLESORTGROUPS    100098d0     lflua.obj
 0001:000088d8       _OPIF_DISABLEHIGHLIGHTING  100098d8     lflua.obj
 0001:000088e0       _OPIF_ADDDOTS              100098e0     lflua.obj
 0001:000088e8       _OPIF_RAWSELECTION         100098e8     lflua.obj
 0001:000088f0       _OPIF_REALNAMES            100098f0     lflua.obj
 0001:000088f8       _OPIF_SHOWNAMESONLY        100098f8     lflua.obj
 0001:00008900       _OPIF_SHOWRIGHTALIGNNAMES  10009900     lflua.obj
 0001:00008908       _OPIF_SHOWPRESERVECASE     10009908     lflua.obj
 0001:00008910       _OPIF_COMPAREFATTIME       10009910     lflua.obj
 0001:00008918       _OPIF_EXTERNALGET          10009918     lflua.obj
 0001:00008920       _OPIF_EXTERNALPUT          10009920     lflua.obj
 0001:00008928       _OPIF_EXTERNALDELETE       10009928     lflua.obj
 0001:00008930       _OPIF_EXTERNALMKDIR        10009930     lflua.obj
 0001:00008938       _OPIF_USEATTRHIGHLIGHTING  10009938     lflua.obj
 0001:00008940       _OPIF_USECRC32             10009940     lflua.obj
 0001:00008948       _OPIF_USEFREESIZE          10009948     lflua.obj
 0001:00008950       _OPIF_SHORTCUT             10009950     lflua.obj
 0001:00008958       _OPIF_NONE                 10009958     lflua.obj
 0001:00008960       _OPM_SILENT                10009960     lflua.obj
 0001:00008968       _OPM_FIND                  10009968     lflua.obj
 0001:00008970       _OPM_VIEW                  10009970     lflua.obj
 0001:00008978       _OPM_EDIT                  10009978     lflua.obj
 0001:00008980       _OPM_TOPLEVEL              10009980     lflua.obj
 0001:00008988       _OPM_DESCR                 10009988     lflua.obj
 0001:00008990       _OPM_QUICKVIEW             10009990     lflua.obj
 0001:00008998       _OPM_PGDN                  10009998     lflua.obj
 0001:000089a0       _OPM_COMMANDS              100099a0     lflua.obj
 0001:000089a8       _OPM_NONE                  100099a8     lflua.obj
 0001:000089b0       _FOSF_ACTIVE               100099b0     lflua.obj
 0001:000089b8       _FOSF_NONE                 100099b8     lflua.obj
 0001:000089c0       _PCIF_NONE                 100099c0     lflua.obj
 0001:000089c8       _FarGuid                   100099c8     lflua.obj
 0001:000089d8       _PDF_DIALOGEVENTDRAWENABLE 100099d8     lflua.obj
 0001:000089dc       _PDF_PROCESSINGERROR       100099dc     lflua.obj
 0001:00008a30       _FCF_FG_4BIT               10009a30     lregex.obj
 0001:00008a38       _FCF_BG_4BIT               10009a38     lregex.obj
 0001:00008a40       _FCF_4BITMASK              10009a40     lregex.obj
 0001:00008a48       _FCF_RAWATTR_MASK          10009a48     lregex.obj
 0001:00008a50       _FCF_EXTENDEDFLAGS         10009a50     lregex.obj
 0001:00008a58       _FCF_FG_BOLD               10009a58     lregex.obj
 0001:00008a60       _FCF_FG_ITALIC             10009a60     lregex.obj
 0001:00008a68       _FCF_FG_UNDERLINE          10009a68     lregex.obj
 0001:00008a70       _FCF_STYLEMASK             10009a70     lregex.obj
 0001:00008a78       _FCF_NONE                  10009a78     lregex.obj
 0001:00008a80       _CDF_NONE                  10009a80     lregex.obj
 0001:00008a88       _FMSG_WARNING              10009a88     lregex.obj
 0001:00008a90       _FMSG_ERRORTYPE            10009a90     lregex.obj
 0001:00008a98       _FMSG_KEEPBACKGROUND       10009a98     lregex.obj
 0001:00008aa0       _FMSG_LEFTALIGN            10009aa0     lregex.obj
 0001:00008aa8       _FMSG_ALLINONE             10009aa8     lregex.obj
 0001:00008ab0       _FMSG_MB_OK                10009ab0     lregex.obj
 0001:00008ab8       _FMSG_MB_OKCANCEL          10009ab8     lregex.obj
 0001:00008ac0       _FMSG_MB_ABORTRETRYIGNORE  10009ac0     lregex.obj
 0001:00008ac8       _FMSG_MB_YESNO             10009ac8     lregex.obj
 0001:00008ad0       _FMSG_MB_YESNOCANCEL       10009ad0     lregex.obj
 0001:00008ad8       _FMSG_MB_RETRYCANCEL       10009ad8     lregex.obj
 0001:00008ae0       _FMSG_NONE                 10009ae0     lregex.obj
 0001:00008ae8       _DIF_BOXCOLOR              10009ae8     lregex.obj
 0001:00008af0       _DIF_GROUP                 10009af0     lregex.obj
 0001:00008af8       _DIF_LEFTTEXT              10009af8     lregex.obj
 0001:00008b00       _DIF_MOVESELECT            10009b00     lregex.obj
 0001:00008b08       _DIF_SHOWAMPERSAND         10009b08     lregex.obj
 0001:00008b10       _DIF_CENTERGROUP           10009b10     lregex.obj
 0001:00008b18       _DIF_NOBRACKETS            10009b18     lregex.obj
 0001:00008b20       _DIF_MANUALADDHISTORY      10009b20     lregex.obj
 0001:00008b28       _DIF_SEPARATOR             10009b28     lregex.obj
 0001:00008b30       _DIF_SEPARATOR2            10009b30     lregex.obj
 0001:00008b38       _DIF_EDITOR                10009b38     lregex.obj
 0001:00008b40       _DIF_LISTNOAMPERSAND       10009b40     lregex.obj
 0001:00008b48       _DIF_LISTNOBOX             10009b48     lregex.obj
 0001:00008b50       _DIF_HISTORY               10009b50     lregex.obj
 0001:00008b58       _DIF_BTNNOCLOSE            10009b58     lregex.obj
 0001:00008b60       _DIF_CENTERTEXT            10009b60     lregex.obj
 0001:00008b68       _DIF_SEPARATORUSER         10009b68     lregex.obj
 0001:00008b70       _DIF_SETSHIELD             10009b70     lregex.obj
 0001:00008b78       _DIF_EDITEXPAND            10009b78     lregex.obj
 0001:00008b80       _DIF_DROPDOWNLIST          10009b80     lregex.obj
 0001:00008b88       _DIF_USELASTHISTORY        10009b88     lregex.obj
 0001:00008b90       _DIF_MASKEDIT              10009b90     lregex.obj
 0001:00008b98       _DIF_LISTTRACKMOUSE        10009b98     lregex.obj
 0001:00008ba0       _DIF_LISTTRACKMOUSEINFOCUS 10009ba0     lregex.obj
 0001:00008ba8       _DIF_SELECTONENTRY         10009ba8     lregex.obj
 0001:00008bb0       _DIF_3STATE                10009bb0     lregex.obj
 0001:00008bb8       _DIF_EDITPATH              10009bb8     lregex.obj
 0001:00008bc0       _DIF_LISTWRAPMODE          10009bc0     lregex.obj
 0001:00008bc8       _DIF_NOAUTOCOMPLETE        10009bc8     lregex.obj
 0001:00008bd0       _DIF_LISTAUTOHIGHLIGHT     10009bd0     lregex.obj
 0001:00008bd8       _DIF_LISTNOCLOSE           10009bd8     lregex.obj
 0001:00008be0       _DIF_EDITPATHEXEC          10009be0     lregex.obj
 0001:00008be8       _DIF_HIDDEN                10009be8     lregex.obj
 0001:00008bf0       _DIF_READONLY              10009bf0     lregex.obj
 0001:00008bf8       _DIF_NOFOCUS               10009bf8     lregex.obj
 0001:00008c00       _DIF_DISABLE               10009c00     lregex.obj
 0001:00008c08       _DIF_DEFAULTBUTTON         10009c08     lregex.obj
 0001:00008c10       _DIF_FOCUS                 10009c10     lregex.obj
 0001:00008c18       _DIF_RIGHTTEXT             10009c18     lregex.obj
 0001:00008c20       _DIF_WORDWRAP              10009c20     lregex.obj
 0001:00008c28       _DIF_NONE                  10009c28     lregex.obj
 0001:00008c30       _LIF_SELECTED              10009c30     lregex.obj
 0001:00008c38       _LIF_CHECKED               10009c38     lregex.obj
 0001:00008c40       _LIF_SEPARATOR             10009c40     lregex.obj
 0001:00008c48       _LIF_DISABLE               10009c48     lregex.obj
 0001:00008c50       _LIF_GRAYED                10009c50     lregex.obj
 0001:00008c58       _LIF_HIDDEN                10009c58     lregex.obj
 0001:00008c60       _LIF_DELETEUSERDATA        10009c60     lregex.obj
 0001:00008c68       _LIF_NONE                  10009c68     lregex.obj
 0001:00008c70       _LIFIND_EXACTMATCH         10009c70     lregex.obj
 0001:00008c78       _LIFIND_NONE               10009c78     lregex.obj
 0001:00008c80       _LINFO_SHOWNOBOX           10009c80     lregex.obj
 0001:00008c88       _LINFO_AUTOHIGHLIGHT       10009c88     lregex.obj
 0001:00008c90       _LINFO_REVERSEHIGHLIGHT    10009c90     lregex.obj
 0001:00008c98       _LINFO_WRAPMODE            10009c98     lregex.obj
 0001:00008ca0       _LINFO_SHOWAMPERSAND       10009ca0     lregex.obj
 0001:00008ca8       _LINFO_NONE                10009ca8     lregex.obj
 0001:00008cb0       _FDLG_WARNING              10009cb0     lregex.obj
 0001:00008cb8       _FDLG_SMALLDIALOG          10009cb8     lregex.obj
 0001:00008cc0       _FDLG_NODRAWSHADOW         10009cc0     lregex.obj
 0001:00008cc8       _FDLG_NODRAWPANEL          10009cc8     lregex.obj
 0001:00008cd0       _FDLG_KEEPCONSOLETITLE     10009cd0     lregex.obj
 0001:00008cd8       _FDLG_NONMODAL             10009cd8     lregex.obj
 0001:00008ce0       _FDLG_NONE                 10009ce0     lregex.obj
 0001:00008ce8       _MIF_SELECTED              10009ce8     lregex.obj
 0001:00008cf0       _MIF_CHECKED               10009cf0     lregex.obj
 0001:00008cf8       _MIF_SEPARATOR             10009cf8     lregex.obj
 0001:00008d00       _MIF_DISABLE               10009d00     lregex.obj
 0001:00008d08       _MIF_GRAYED                10009d08     lregex.obj
 0001:00008d10       _MIF_HIDDEN                10009d10     lregex.obj
 0001:00008d18       _MIF_NONE                  10009d18     lregex.obj
 0001:00008d20       _FMENU_SHOWAMPERSAND       10009d20     lregex.obj
 0001:00008d28       _FMENU_WRAPMODE            10009d28     lregex.obj
 0001:00008d30       _FMENU_AUTOHIGHLIGHT       10009d30     lregex.obj
 0001:00008d38       _FMENU_REVERSEAUTOHIGHLIGHT 10009d38     lregex.obj
 0001:00008d40       _FMENU_CHANGECONSOLETITLE  10009d40     lregex.obj
 0001:00008d48       _FMENU_NONE                10009d48     lregex.obj
 0001:00008d50       _PPIF_SELECTED             10009d50     lregex.obj
 0001:00008d58       _PPIF_PROCESSDESCR         10009d58     lregex.obj
 0001:00008d60       _PPIF_NONE                 10009d60     lregex.obj
 0001:00008d68       _PFLAGS_SHOWHIDDEN         10009d68     lregex.obj
 0001:00008d70       _PFLAGS_HIGHLIGHT          10009d70     lregex.obj
 0001:00008d78       _PFLAGS_REVERSESORTORDER   10009d78     lregex.obj
 0001:00008d80       _PFLAGS_USESORTGROUPS      10009d80     lregex.obj
 0001:00008d88       _PFLAGS_SELECTEDFIRST      10009d88     lregex.obj
 0001:00008d90       _PFLAGS_REALNAMES          10009d90     lregex.obj
 0001:00008d98       _PFLAGS_PANELLEFT          10009d98     lregex.obj
 0001:00008da0       _PFLAGS_DIRECTORIESFIRST   10009da0     lregex.obj
 0001:00008da8       _PFLAGS_USECRC32           10009da8     lregex.obj
 0001:00008db0       _PFLAGS_PLUGIN             10009db0     lregex.obj
 0001:00008db8       _PFLAGS_VISIBLE            10009db8     lregex.obj
 0001:00008dc0       _PFLAGS_FOCUS              10009dc0     lregex.obj
 0001:00008dc8       _PFLAGS_ALTERNATIVENAMES   10009dc8     lregex.obj
 0001:00008dd0       _PFLAGS_SHORTCUT           10009dd0     lregex.obj
 0001:00008dd8       _PFLAGS_NONE               10009dd8     lregex.obj
 0001:00008de0       _VF_NONMODAL               10009de0     lregex.obj
 0001:00008de8       _VF_DELETEONCLOSE          10009de8     lregex.obj
 0001:00008df0       _VF_ENABLE_F6              10009df0     lregex.obj
 0001:00008df8       _VF_DISABLEHISTORY         10009df8     lregex.obj
 0001:00008e00       _VF_IMMEDIATERETURN        10009e00     lregex.obj
 0001:00008e08       _VF_DELETEONLYFILEONCLOSE  10009e08     lregex.obj
 0001:00008e10       _VF_NONE                   10009e10     lregex.obj
 0001:00008e18       _EF_NONMODAL               10009e18     lregex.obj
 0001:00008e20       _EF_CREATENEW              10009e20     lregex.obj
 0001:00008e28       _EF_ENABLE_F6              10009e28     lregex.obj
 0001:00008e30       _EF_DISABLEHISTORY         10009e30     lregex.obj
 0001:00008e38       _EF_DELETEONCLOSE          10009e38     lregex.obj
 0001:00008e40       _EF_IMMEDIATERETURN        10009e40     lregex.obj
 0001:00008e48       _EF_DELETEONLYFILEONCLOSE  10009e48     lregex.obj
 0001:00008e50       _EF_LOCKED                 10009e50     lregex.obj
 0001:00008e58       _EF_DISABLESAVEPOS         10009e58     lregex.obj
 0001:00008e60       _EF_OPENMODE_MASK          10009e60     lregex.obj
 0001:00008e68       _EF_OPENMODE_QUERY         10009e68     lregex.obj
 0001:00008e70       _EF_OPENMODE_NEWIFOPEN     10009e70     lregex.obj
 0001:00008e78       _EF_OPENMODE_USEEXISTING   10009e78     lregex.obj
 0001:00008e80       _EF_OPENMODE_BREAKIFOPEN   10009e80     lregex.obj
 0001:00008e88       _EF_OPENMODE_RELOADIFOPEN  10009e88     lregex.obj
 0001:00008e90       _EN_NONE                   10009e90     lregex.obj
 0001:00008e98       _FHELP_NOSHOWERROR         10009e98     lregex.obj
 0001:00008ea0       _FHELP_SELFHELP            10009ea0     lregex.obj
 0001:00008ea8       _FHELP_FARHELP             10009ea8     lregex.obj
 0001:00008eb0       _FHELP_CUSTOMFILE          10009eb0     lregex.obj
 0001:00008eb8       _FHELP_CUSTOMPATH          10009eb8     lregex.obj
 0001:00008ec0       _FHELP_GUID                10009ec0     lregex.obj
 0001:00008ec8       _FHELP_USECONTENTS         10009ec8     lregex.obj
 0001:00008ed0       _FHELP_NONE                10009ed0     lregex.obj
 0001:00008ed8       _KMFLAGS_SILENTCHECK       10009ed8     lregex.obj
 0001:00008ee0       _KMFLAGS_NOSENDKEYSTOPLUGINS 10009ee0     lregex.obj
 0001:00008ee8       _KMFLAGS_ENABLEOUTPUT      10009ee8     lregex.obj
 0001:00008ef0       _KMFLAGS_LANGMASK          10009ef0     lregex.obj
 0001:00008ef8       _KMFLAGS_LUA               10009ef8     lregex.obj
 0001:00008f00       _KMFLAGS_MOONSCRIPT        10009f00     lregex.obj
 0001:00008f08       _KMFLAGS_NONE              10009f08     lregex.obj
 0001:00008f10       _AKMFLAGS_NONE             10009f10     lregex.obj
 0001:00008f18       _FSETCLR_REDRAW            10009f18     lregex.obj
 0001:00008f20       _FSETCLR_NONE              10009f20     lregex.obj
 0001:00008f28       _WIF_MODIFIED              10009f28     lregex.obj
 0001:00008f30       _WIF_CURRENT               10009f30     lregex.obj
 0001:00008f38       _WIF_MODAL                 10009f38     lregex.obj
 0001:00008f40       _WIF_NONE                  10009f40     lregex.obj
 0001:00008f48       _VOPT_SAVEFILEPOSITION     10009f48     lregex.obj
 0001:00008f50       _VOPT_AUTODETECTCODEPAGE   10009f50     lregex.obj
 0001:00008f58       _VOPT_SHOWTITLEBAR         10009f58     lregex.obj
 0001:00008f60       _VOPT_SHOWKEYBAR           10009f60     lregex.obj
 0001:00008f68       _VOPT_SHOWSCROLLBAR        10009f68     lregex.obj
 0001:00008f70       _VOPT_QUICKVIEW            10009f70     lregex.obj
 0001:00008f78       _VOPT_NONE                 10009f78     lregex.obj
 0001:00008f80       _VSMFL_REDRAW              10009f80     lregex.obj
 0001:00008f88       _VSMFL_NONE                10009f88     lregex.obj
 0001:00008f90       _VSP_NOREDRAW              10009f90     lregex.obj
 0001:00008f98       _VSP_PERCENT               10009f98     lregex.obj
 0001:00008fa0       _VSP_RELATIVE              10009fa0     lregex.obj
 0001:00008fa8       _VSP_NORETNEWPOS           10009fa8     lregex.obj
 0001:00008fb0       _VSP_NONE                  10009fb0     lregex.obj
 0001:00008fb8       _VMF_WRAP                  10009fb8     lregex.obj
 0001:00008fc0       _VMF_WORDWRAP              10009fc0     lregex.obj
 0001:00008fc8       _VMF_NONE                  10009fc8     lregex.obj
 0001:00008fd0       _ECF_TABMARKFIRST          10009fd0     lregex.obj
 0001:00008fd8       _ECF_TABMARKCURRENT        10009fd8     lregex.obj
 0001:00008fe0       _ECF_AUTODELETE            10009fe0     lregex.obj
 0001:00008fe8       _ECF_NONE                  10009fe8     lregex.obj
 0001:00008ff0       _FIB_ENABLEEMPTY           10009ff0     lregex.obj
 0001:00008ff8       _FIB_PASSWORD              10009ff8     lregex.obj
 0001:00009000       _FIB_EXPANDENV             1000a000     lregex.obj
 0001:00009008       _FIB_NOUSELASTHISTORY      1000a008     lregex.obj
 0001:00009010       _FIB_BUTTONS               1000a010     lregex.obj
 0001:00009018       _FIB_NOAMPERSAND           1000a018     lregex.obj
 0001:00009020       _FIB_EDITPATH              1000a020     lregex.obj
 0001:00009028       _FIB_EDITPATHEXEC          1000a028     lregex.obj
 0001:00009030       _FIB_NONE                  1000a030     lregex.obj
 0001:00009038       _FPF_LOADED                1000a038     lregex.obj
 0001:00009040       _FPF_ANSI                  1000a040     lregex.obj
 0001:00009048       _FPF_NONE                  1000a048     lregex.obj
 0001:00009050       _PN_CMPNAME                1000a050     lregex.obj
 0001:00009058       _PN_CMPNAMELIST            1000a058     lregex.obj
 0001:00009060       _PN_GENERATENAME           1000a060     lregex.obj
 0001:00009068       _PN_CHECKMASK              1000a068     lregex.obj
 0001:00009070       _PN_SKIPPATH               1000a070     lregex.obj
 0001:00009078       _PN_SHOWERRORMESSAGE       1000a078     lregex.obj
 0001:00009080       _PN_NONE                   1000a080     lregex.obj
 0001:00009088       _XLAT_SWITCHKEYBLAYOUT     1000a088     lregex.obj
 0001:00009090       _XLAT_SWITCHKEYBBEEP       1000a090     lregex.obj
 0001:00009098       _XLAT_USEKEYBLAYOUTNAME    1000a098     lregex.obj
 0001:000090a0       _XLAT_CONVERTALLCMDLINE    1000a0a0     lregex.obj
 0001:000090a8       _XLAT_NONE                 1000a0a8     lregex.obj
 0001:000090b0       _FRS_RETUPDIR              1000a0b0     lregex.obj
 0001:000090b8       _FRS_RECUR                 1000a0b8     lregex.obj
 0001:000090c0       _FRS_SCANSYMLINK           1000a0c0     lregex.obj
 0001:000090c8       _FRS_NONE                  1000a0c8     lregex.obj
 0001:000090d0       _MLF_SHOWERRMSG            1000a0d0     lregex.obj
 0001:000090d8       _MLF_DONOTUPDATEPANEL      1000a0d8     lregex.obj
 0001:000090e0       _MLF_HOLDTARGET            1000a0e0     lregex.obj
 0001:000090e8       _MLF_NONE                  1000a0e8     lregex.obj
 0001:000090f0       _FFFS_COMMAS               1000a0f0     lregex.obj
 0001:000090f8       _FFFS_FLOATSIZE            1000a0f8     lregex.obj
 0001:00009100       _FFFS_SHOWBYTESINDEX       1000a100     lregex.obj
 0001:00009108       _FFFS_ECONOMIC             1000a108     lregex.obj
 0001:00009110       _FFFS_THOUSAND             1000a110     lregex.obj
 0001:00009118       _FFFS_MINSIZEINDEX         1000a118     lregex.obj
 0001:00009120       _FFFS_MINSIZEINDEX_MASK    1000a120     lregex.obj
 0001:00009128       _FFFS_NONE                 1000a128     lregex.obj
 0001:00009130       _PF_PRELOAD                1000a130     lregex.obj
 0001:00009138       _PF_DISABLEPANELS          1000a138     lregex.obj
 0001:00009140       _PF_EDITOR                 1000a140     lregex.obj
 0001:00009148       _PF_VIEWER                 1000a148     lregex.obj
 0001:00009150       _PF_FULLCMDLINE            1000a150     lregex.obj
 0001:00009158       _PF_DIALOG                 1000a158     lregex.obj
 0001:00009160       _PF_NONE                   1000a160     lregex.obj
 0001:00009168       _IPLFLAGS_SEPARATOR        1000a168     lregex.obj
 0001:00009170       _IPLFLAGS_NONE             1000a170     lregex.obj
 0001:00009178       _PMFLAGS_FULLSCREEN        1000a178     lregex.obj
 0001:00009180       _PMFLAGS_DETAILEDSTATUS    1000a180     lregex.obj
 0001:00009188       _PMFLAGS_ALIGNEXTENSIONS   1000a188     lregex.obj
 0001:00009190       _PMFLAGS_CASECONVERSION    1000a190     lregex.obj
 0001:00009198       _PMFLAGS_NONE              1000a198     lregex.obj
 0001:000091a0       _OPIF_DISABLEFILTER        1000a1a0     lregex.obj
 0001:000091a8       _OPIF_DISABLESORTGROUPS    1000a1a8     lregex.obj
 0001:000091b0       _OPIF_DISABLEHIGHLIGHTING  1000a1b0     lregex.obj
 0001:000091b8       _OPIF_ADDDOTS              1000a1b8     lregex.obj
 0001:000091c0       _OPIF_RAWSELECTION         1000a1c0     lregex.obj
 0001:000091c8       _OPIF_REALNAMES            1000a1c8     lregex.obj
 0001:000091d0       _OPIF_SHOWNAMESONLY        1000a1d0     lregex.obj
 0001:000091d8       _OPIF_SHOWRIGHTALIGNNAMES  1000a1d8     lregex.obj
 0001:000091e0       _OPIF_SHOWPRESERVECASE     1000a1e0     lregex.obj
 0001:000091e8       _OPIF_COMPAREFATTIME       1000a1e8     lregex.obj
 0001:000091f0       _OPIF_EXTERNALGET          1000a1f0     lregex.obj
 0001:000091f8       _OPIF_EXTERNALPUT          1000a1f8     lregex.obj
 0001:00009200       _OPIF_EXTERNALDELETE       1000a200     lregex.obj
 0001:00009208       _OPIF_EXTERNALMKDIR        1000a208     lregex.obj
 0001:00009210       _OPIF_USEATTRHIGHLIGHTING  1000a210     lregex.obj
 0001:00009218       _OPIF_USECRC32             1000a218     lregex.obj
 0001:00009220       _OPIF_USEFREESIZE          1000a220     lregex.obj
 0001:00009228       _OPIF_SHORTCUT             1000a228     lregex.obj
 0001:00009230       _OPIF_NONE                 1000a230     lregex.obj
 0001:00009238       _OPM_SILENT                1000a238     lregex.obj
 0001:00009240       _OPM_FIND                  1000a240     lregex.obj
 0001:00009248       _OPM_VIEW                  1000a248     lregex.obj
 0001:00009250       _OPM_EDIT                  1000a250     lregex.obj
 0001:00009258       _OPM_TOPLEVEL              1000a258     lregex.obj
 0001:00009260       _OPM_DESCR                 1000a260     lregex.obj
 0001:00009268       _OPM_QUICKVIEW             1000a268     lregex.obj
 0001:00009270       _OPM_PGDN                  1000a270     lregex.obj
 0001:00009278       _OPM_COMMANDS              1000a278     lregex.obj
 0001:00009280       _OPM_NONE                  1000a280     lregex.obj
 0001:00009288       _FOSF_ACTIVE               1000a288     lregex.obj
 0001:00009290       _FOSF_NONE                 1000a290     lregex.obj
 0001:00009298       _PCIF_NONE                 1000a298     lregex.obj
 0001:000092a0       _FarGuid                   1000a2a0     lregex.obj
 0001:000092b0       _PDF_DIALOGEVENTDRAWENABLE 1000a2b0     lregex.obj
 0001:000092b4       _PDF_PROCESSINGERROR       1000a2b4     lregex.obj
 0001:000094e8       _FCF_FG_4BIT               1000a4e8     luamacro.obj
 0001:000094f0       _FCF_BG_4BIT               1000a4f0     luamacro.obj
 0001:000094f8       _FCF_4BITMASK              1000a4f8     luamacro.obj
 0001:00009500       _FCF_RAWATTR_MASK          1000a500     luamacro.obj
 0001:00009508       _FCF_EXTENDEDFLAGS         1000a508     luamacro.obj
 0001:00009510       _FCF_FG_BOLD               1000a510     luamacro.obj
 0001:00009518       _FCF_FG_ITALIC             1000a518     luamacro.obj
 0001:00009520       _FCF_FG_UNDERLINE          1000a520     luamacro.obj
 0001:00009528       _FCF_STYLEMASK             1000a528     luamacro.obj
 0001:00009530       _FCF_NONE                  1000a530     luamacro.obj
 0001:00009538       _CDF_NONE                  1000a538     luamacro.obj
 0001:00009540       _FMSG_WARNING              1000a540     luamacro.obj
 0001:00009548       _FMSG_ERRORTYPE            1000a548     luamacro.obj
 0001:00009550       _FMSG_KEEPBACKGROUND       1000a550     luamacro.obj
 0001:00009558       _FMSG_LEFTALIGN            1000a558     luamacro.obj
 0001:00009560       _FMSG_ALLINONE             1000a560     luamacro.obj
 0001:00009568       _FMSG_MB_OK                1000a568     luamacro.obj
 0001:00009570       _FMSG_MB_OKCANCEL          1000a570     luamacro.obj
 0001:00009578       _FMSG_MB_ABORTRETRYIGNORE  1000a578     luamacro.obj
 0001:00009580       _FMSG_MB_YESNO             1000a580     luamacro.obj
 0001:00009588       _FMSG_MB_YESNOCANCEL       1000a588     luamacro.obj
 0001:00009590       _FMSG_MB_RETRYCANCEL       1000a590     luamacro.obj
 0001:00009598       _FMSG_NONE                 1000a598     luamacro.obj
 0001:000095a0       _DIF_BOXCOLOR              1000a5a0     luamacro.obj
 0001:000095a8       _DIF_GROUP                 1000a5a8     luamacro.obj
 0001:000095b0       _DIF_LEFTTEXT              1000a5b0     luamacro.obj
 0001:000095b8       _DIF_MOVESELECT            1000a5b8     luamacro.obj
 0001:000095c0       _DIF_SHOWAMPERSAND         1000a5c0     luamacro.obj
 0001:000095c8       _DIF_CENTERGROUP           1000a5c8     luamacro.obj
 0001:000095d0       _DIF_NOBRACKETS            1000a5d0     luamacro.obj
 0001:000095d8       _DIF_MANUALADDHISTORY      1000a5d8     luamacro.obj
 0001:000095e0       _DIF_SEPARATOR             1000a5e0     luamacro.obj
 0001:000095e8       _DIF_SEPARATOR2            1000a5e8     luamacro.obj
 0001:000095f0       _DIF_EDITOR                1000a5f0     luamacro.obj
 0001:000095f8       _DIF_LISTNOAMPERSAND       1000a5f8     luamacro.obj
 0001:00009600       _DIF_LISTNOBOX             1000a600     luamacro.obj
 0001:00009608       _DIF_HISTORY               1000a608     luamacro.obj
 0001:00009610       _DIF_BTNNOCLOSE            1000a610     luamacro.obj
 0001:00009618       _DIF_CENTERTEXT            1000a618     luamacro.obj
 0001:00009620       _DIF_SEPARATORUSER         1000a620     luamacro.obj
 0001:00009628       _DIF_SETSHIELD             1000a628     luamacro.obj
 0001:00009630       _DIF_EDITEXPAND            1000a630     luamacro.obj
 0001:00009638       _DIF_DROPDOWNLIST          1000a638     luamacro.obj
 0001:00009640       _DIF_USELASTHISTORY        1000a640     luamacro.obj
 0001:00009648       _DIF_MASKEDIT              1000a648     luamacro.obj
 0001:00009650       _DIF_LISTTRACKMOUSE        1000a650     luamacro.obj
 0001:00009658       _DIF_LISTTRACKMOUSEINFOCUS 1000a658     luamacro.obj
 0001:00009660       _DIF_SELECTONENTRY         1000a660     luamacro.obj
 0001:00009668       _DIF_3STATE                1000a668     luamacro.obj
 0001:00009670       _DIF_EDITPATH              1000a670     luamacro.obj
 0001:00009678       _DIF_LISTWRAPMODE          1000a678     luamacro.obj
 0001:00009680       _DIF_NOAUTOCOMPLETE        1000a680     luamacro.obj
 0001:00009688       _DIF_LISTAUTOHIGHLIGHT     1000a688     luamacro.obj
 0001:00009690       _DIF_LISTNOCLOSE           1000a690     luamacro.obj
 0001:00009698       _DIF_EDITPATHEXEC          1000a698     luamacro.obj
 0001:000096a0       _DIF_HIDDEN                1000a6a0     luamacro.obj
 0001:000096a8       _DIF_READONLY              1000a6a8     luamacro.obj
 0001:000096b0       _DIF_NOFOCUS               1000a6b0     luamacro.obj
 0001:000096b8       _DIF_DISABLE               1000a6b8     luamacro.obj
 0001:000096c0       _DIF_DEFAULTBUTTON         1000a6c0     luamacro.obj
 0001:000096c8       _DIF_FOCUS                 1000a6c8     luamacro.obj
 0001:000096d0       _DIF_RIGHTTEXT             1000a6d0     luamacro.obj
 0001:000096d8       _DIF_WORDWRAP              1000a6d8     luamacro.obj
 0001:000096e0       _DIF_NONE                  1000a6e0     luamacro.obj
 0001:000096e8       _LIF_SELECTED              1000a6e8     luamacro.obj
 0001:000096f0       _LIF_CHECKED               1000a6f0     luamacro.obj
 0001:000096f8       _LIF_SEPARATOR             1000a6f8     luamacro.obj
 0001:00009700       _LIF_DISABLE               1000a700     luamacro.obj
 0001:00009708       _LIF_GRAYED                1000a708     luamacro.obj
 0001:00009710       _LIF_HIDDEN                1000a710     luamacro.obj
 0001:00009718       _LIF_DELETEUSERDATA        1000a718     luamacro.obj
 0001:00009720       _LIF_NONE                  1000a720     luamacro.obj
 0001:00009728       _LIFIND_EXACTMATCH         1000a728     luamacro.obj
 0001:00009730       _LIFIND_NONE               1000a730     luamacro.obj
 0001:00009738       _LINFO_SHOWNOBOX           1000a738     luamacro.obj
 0001:00009740       _LINFO_AUTOHIGHLIGHT       1000a740     luamacro.obj
 0001:00009748       _LINFO_REVERSEHIGHLIGHT    1000a748     luamacro.obj
 0001:00009750       _LINFO_WRAPMODE            1000a750     luamacro.obj
 0001:00009758       _LINFO_SHOWAMPERSAND       1000a758     luamacro.obj
 0001:00009760       _LINFO_NONE                1000a760     luamacro.obj
 0001:00009768       _FDLG_WARNING              1000a768     luamacro.obj
 0001:00009770       _FDLG_SMALLDIALOG          1000a770     luamacro.obj
 0001:00009778       _FDLG_NODRAWSHADOW         1000a778     luamacro.obj
 0001:00009780       _FDLG_NODRAWPANEL          1000a780     luamacro.obj
 0001:00009788       _FDLG_KEEPCONSOLETITLE     1000a788     luamacro.obj
 0001:00009790       _FDLG_NONMODAL             1000a790     luamacro.obj
 0001:00009798       _FDLG_NONE                 1000a798     luamacro.obj
 0001:000097a0       _MIF_SELECTED              1000a7a0     luamacro.obj
 0001:000097a8       _MIF_CHECKED               1000a7a8     luamacro.obj
 0001:000097b0       _MIF_SEPARATOR             1000a7b0     luamacro.obj
 0001:000097b8       _MIF_DISABLE               1000a7b8     luamacro.obj
 0001:000097c0       _MIF_GRAYED                1000a7c0     luamacro.obj
 0001:000097c8       _MIF_HIDDEN                1000a7c8     luamacro.obj
 0001:000097d0       _MIF_NONE                  1000a7d0     luamacro.obj
 0001:000097d8       _FMENU_SHOWAMPERSAND       1000a7d8     luamacro.obj
 0001:000097e0       _FMENU_WRAPMODE            1000a7e0     luamacro.obj
 0001:000097e8       _FMENU_AUTOHIGHLIGHT       1000a7e8     luamacro.obj
 0001:000097f0       _FMENU_REVERSEAUTOHIGHLIGHT 1000a7f0     luamacro.obj
 0001:000097f8       _FMENU_CHANGECONSOLETITLE  1000a7f8     luamacro.obj
 0001:00009800       _FMENU_NONE                1000a800     luamacro.obj
 0001:00009808       _PPIF_SELECTED             1000a808     luamacro.obj
 0001:00009810       _PPIF_PROCESSDESCR         1000a810     luamacro.obj
 0001:00009818       _PPIF_NONE                 1000a818     luamacro.obj
 0001:00009820       _PFLAGS_SHOWHIDDEN         1000a820     luamacro.obj
 0001:00009828       _PFLAGS_HIGHLIGHT          1000a828     luamacro.obj
 0001:00009830       _PFLAGS_REVERSESORTORDER   1000a830     luamacro.obj
 0001:00009838       _PFLAGS_USESORTGROUPS      1000a838     luamacro.obj
 0001:00009840       _PFLAGS_SELECTEDFIRST      1000a840     luamacro.obj
 0001:00009848       _PFLAGS_REALNAMES          1000a848     luamacro.obj
 0001:00009850       _PFLAGS_PANELLEFT          1000a850     luamacro.obj
 0001:00009858       _PFLAGS_DIRECTORIESFIRST   1000a858     luamacro.obj
 0001:00009860       _PFLAGS_USECRC32           1000a860     luamacro.obj
 0001:00009868       _PFLAGS_PLUGIN             1000a868     luamacro.obj
 0001:00009870       _PFLAGS_VISIBLE            1000a870     luamacro.obj
 0001:00009878       _PFLAGS_FOCUS              1000a878     luamacro.obj
 0001:00009880       _PFLAGS_ALTERNATIVENAMES   1000a880     luamacro.obj
 0001:00009888       _PFLAGS_SHORTCUT           1000a888     luamacro.obj
 0001:00009890       _PFLAGS_NONE               1000a890     luamacro.obj
 0001:00009898       _VF_NONMODAL               1000a898     luamacro.obj
 0001:000098a0       _VF_DELETEONCLOSE          1000a8a0     luamacro.obj
 0001:000098a8       _VF_ENABLE_F6              1000a8a8     luamacro.obj
 0001:000098b0       _VF_DISABLEHISTORY         1000a8b0     luamacro.obj
 0001:000098b8       _VF_IMMEDIATERETURN        1000a8b8     luamacro.obj
 0001:000098c0       _VF_DELETEONLYFILEONCLOSE  1000a8c0     luamacro.obj
 0001:000098c8       _VF_NONE                   1000a8c8     luamacro.obj
 0001:000098d0       _EF_NONMODAL               1000a8d0     luamacro.obj
 0001:000098d8       _EF_CREATENEW              1000a8d8     luamacro.obj
 0001:000098e0       _EF_ENABLE_F6              1000a8e0     luamacro.obj
 0001:000098e8       _EF_DISABLEHISTORY         1000a8e8     luamacro.obj
 0001:000098f0       _EF_DELETEONCLOSE          1000a8f0     luamacro.obj
 0001:000098f8       _EF_IMMEDIATERETURN        1000a8f8     luamacro.obj
 0001:00009900       _EF_DELETEONLYFILEONCLOSE  1000a900     luamacro.obj
 0001:00009908       _EF_LOCKED                 1000a908     luamacro.obj
 0001:00009910       _EF_DISABLESAVEPOS         1000a910     luamacro.obj
 0001:00009918       _EF_OPENMODE_MASK          1000a918     luamacro.obj
 0001:00009920       _EF_OPENMODE_QUERY         1000a920     luamacro.obj
 0001:00009928       _EF_OPENMODE_NEWIFOPEN     1000a928     luamacro.obj
 0001:00009930       _EF_OPENMODE_USEEXISTING   1000a930     luamacro.obj
 0001:00009938       _EF_OPENMODE_BREAKIFOPEN   1000a938     luamacro.obj
 0001:00009940       _EF_OPENMODE_RELOADIFOPEN  1000a940     luamacro.obj
 0001:00009948       _EN_NONE                   1000a948     luamacro.obj
 0001:00009950       _FHELP_NOSHOWERROR         1000a950     luamacro.obj
 0001:00009958       _FHELP_SELFHELP            1000a958     luamacro.obj
 0001:00009960       _FHELP_FARHELP             1000a960     luamacro.obj
 0001:00009968       _FHELP_CUSTOMFILE          1000a968     luamacro.obj
 0001:00009970       _FHELP_CUSTOMPATH          1000a970     luamacro.obj
 0001:00009978       _FHELP_GUID                1000a978     luamacro.obj
 0001:00009980       _FHELP_USECONTENTS         1000a980     luamacro.obj
 0001:00009988       _FHELP_NONE                1000a988     luamacro.obj
 0001:00009990       _KMFLAGS_SILENTCHECK       1000a990     luamacro.obj
 0001:00009998       _KMFLAGS_NOSENDKEYSTOPLUGINS 1000a998     luamacro.obj
 0001:000099a0       _KMFLAGS_ENABLEOUTPUT      1000a9a0     luamacro.obj
 0001:000099a8       _KMFLAGS_LANGMASK          1000a9a8     luamacro.obj
 0001:000099b0       _KMFLAGS_LUA               1000a9b0     luamacro.obj
 0001:000099b8       _KMFLAGS_MOONSCRIPT        1000a9b8     luamacro.obj
 0001:000099c0       _KMFLAGS_NONE              1000a9c0     luamacro.obj
 0001:000099c8       _AKMFLAGS_NONE             1000a9c8     luamacro.obj
 0001:000099d0       _FSETCLR_REDRAW            1000a9d0     luamacro.obj
 0001:000099d8       _FSETCLR_NONE              1000a9d8     luamacro.obj
 0001:000099e0       _WIF_MODIFIED              1000a9e0     luamacro.obj
 0001:000099e8       _WIF_CURRENT               1000a9e8     luamacro.obj
 0001:000099f0       _WIF_MODAL                 1000a9f0     luamacro.obj
 0001:000099f8       _WIF_NONE                  1000a9f8     luamacro.obj
 0001:00009a00       _VOPT_SAVEFILEPOSITION     1000aa00     luamacro.obj
 0001:00009a08       _VOPT_AUTODETECTCODEPAGE   1000aa08     luamacro.obj
 0001:00009a10       _VOPT_SHOWTITLEBAR         1000aa10     luamacro.obj
 0001:00009a18       _VOPT_SHOWKEYBAR           1000aa18     luamacro.obj
 0001:00009a20       _VOPT_SHOWSCROLLBAR        1000aa20     luamacro.obj
 0001:00009a28       _VOPT_QUICKVIEW            1000aa28     luamacro.obj
 0001:00009a30       _VOPT_NONE                 1000aa30     luamacro.obj
 0001:00009a38       _VSMFL_REDRAW              1000aa38     luamacro.obj
 0001:00009a40       _VSMFL_NONE                1000aa40     luamacro.obj
 0001:00009a48       _VSP_NOREDRAW              1000aa48     luamacro.obj
 0001:00009a50       _VSP_PERCENT               1000aa50     luamacro.obj
 0001:00009a58       _VSP_RELATIVE              1000aa58     luamacro.obj
 0001:00009a60       _VSP_NORETNEWPOS           1000aa60     luamacro.obj
 0001:00009a68       _VSP_NONE                  1000aa68     luamacro.obj
 0001:00009a70       _VMF_WRAP                  1000aa70     luamacro.obj
 0001:00009a78       _VMF_WORDWRAP              1000aa78     luamacro.obj
 0001:00009a80       _VMF_NONE                  1000aa80     luamacro.obj
 0001:00009a88       _ECF_TABMARKFIRST          1000aa88     luamacro.obj
 0001:00009a90       _ECF_TABMARKCURRENT        1000aa90     luamacro.obj
 0001:00009a98       _ECF_AUTODELETE            1000aa98     luamacro.obj
 0001:00009aa0       _ECF_NONE                  1000aaa0     luamacro.obj
 0001:00009aa8       _FIB_ENABLEEMPTY           1000aaa8     luamacro.obj
 0001:00009ab0       _FIB_PASSWORD              1000aab0     luamacro.obj
 0001:00009ab8       _FIB_EXPANDENV             1000aab8     luamacro.obj
 0001:00009ac0       _FIB_NOUSELASTHISTORY      1000aac0     luamacro.obj
 0001:00009ac8       _FIB_BUTTONS               1000aac8     luamacro.obj
 0001:00009ad0       _FIB_NOAMPERSAND           1000aad0     luamacro.obj
 0001:00009ad8       _FIB_EDITPATH              1000aad8     luamacro.obj
 0001:00009ae0       _FIB_EDITPATHEXEC          1000aae0     luamacro.obj
 0001:00009ae8       _FIB_NONE                  1000aae8     luamacro.obj
 0001:00009af0       _FPF_LOADED                1000aaf0     luamacro.obj
 0001:00009af8       _FPF_ANSI                  1000aaf8     luamacro.obj
 0001:00009b00       _FPF_NONE                  1000ab00     luamacro.obj
 0001:00009b08       _PN_CMPNAME                1000ab08     luamacro.obj
 0001:00009b10       _PN_CMPNAMELIST            1000ab10     luamacro.obj
 0001:00009b18       _PN_GENERATENAME           1000ab18     luamacro.obj
 0001:00009b20       _PN_CHECKMASK              1000ab20     luamacro.obj
 0001:00009b28       _PN_SKIPPATH               1000ab28     luamacro.obj
 0001:00009b30       _PN_SHOWERRORMESSAGE       1000ab30     luamacro.obj
 0001:00009b38       _PN_NONE                   1000ab38     luamacro.obj
 0001:00009b40       _XLAT_SWITCHKEYBLAYOUT     1000ab40     luamacro.obj
 0001:00009b48       _XLAT_SWITCHKEYBBEEP       1000ab48     luamacro.obj
 0001:00009b50       _XLAT_USEKEYBLAYOUTNAME    1000ab50     luamacro.obj
 0001:00009b58       _XLAT_CONVERTALLCMDLINE    1000ab58     luamacro.obj
 0001:00009b60       _XLAT_NONE                 1000ab60     luamacro.obj
 0001:00009b68       _FRS_RETUPDIR              1000ab68     luamacro.obj
 0001:00009b70       _FRS_RECUR                 1000ab70     luamacro.obj
 0001:00009b78       _FRS_SCANSYMLINK           1000ab78     luamacro.obj
 0001:00009b80       _FRS_NONE                  1000ab80     luamacro.obj
 0001:00009b88       _MLF_SHOWERRMSG            1000ab88     luamacro.obj
 0001:00009b90       _MLF_DONOTUPDATEPANEL      1000ab90     luamacro.obj
 0001:00009b98       _MLF_HOLDTARGET            1000ab98     luamacro.obj
 0001:00009ba0       _MLF_NONE                  1000aba0     luamacro.obj
 0001:00009ba8       _FFFS_COMMAS               1000aba8     luamacro.obj
 0001:00009bb0       _FFFS_FLOATSIZE            1000abb0     luamacro.obj
 0001:00009bb8       _FFFS_SHOWBYTESINDEX       1000abb8     luamacro.obj
 0001:00009bc0       _FFFS_ECONOMIC             1000abc0     luamacro.obj
 0001:00009bc8       _FFFS_THOUSAND             1000abc8     luamacro.obj
 0001:00009bd0       _FFFS_MINSIZEINDEX         1000abd0     luamacro.obj
 0001:00009bd8       _FFFS_MINSIZEINDEX_MASK    1000abd8     luamacro.obj
 0001:00009be0       _FFFS_NONE                 1000abe0     luamacro.obj
 0001:00009be8       _PF_PRELOAD                1000abe8     luamacro.obj
 0001:00009bf0       _PF_DISABLEPANELS          1000abf0     luamacro.obj
 0001:00009bf8       _PF_EDITOR                 1000abf8     luamacro.obj
 0001:00009c00       _PF_VIEWER                 1000ac00     luamacro.obj
 0001:00009c08       _PF_FULLCMDLINE            1000ac08     luamacro.obj
 0001:00009c10       _PF_DIALOG                 1000ac10     luamacro.obj
 0001:00009c18       _PF_NONE                   1000ac18     luamacro.obj
 0001:00009c20       _IPLFLAGS_SEPARATOR        1000ac20     luamacro.obj
 0001:00009c28       _IPLFLAGS_NONE             1000ac28     luamacro.obj
 0001:00009c30       _PMFLAGS_FULLSCREEN        1000ac30     luamacro.obj
 0001:00009c38       _PMFLAGS_DETAILEDSTATUS    1000ac38     luamacro.obj
 0001:00009c40       _PMFLAGS_ALIGNEXTENSIONS   1000ac40     luamacro.obj
 0001:00009c48       _PMFLAGS_CASECONVERSION    1000ac48     luamacro.obj
 0001:00009c50       _PMFLAGS_NONE              1000ac50     luamacro.obj
 0001:00009c58       _OPIF_DISABLEFILTER        1000ac58     luamacro.obj
 0001:00009c60       _OPIF_DISABLESORTGROUPS    1000ac60     luamacro.obj
 0001:00009c68       _OPIF_DISABLEHIGHLIGHTING  1000ac68     luamacro.obj
 0001:00009c70       _OPIF_ADDDOTS              1000ac70     luamacro.obj
 0001:00009c78       _OPIF_RAWSELECTION         1000ac78     luamacro.obj
 0001:00009c80       _OPIF_REALNAMES            1000ac80     luamacro.obj
 0001:00009c88       _OPIF_SHOWNAMESONLY        1000ac88     luamacro.obj
 0001:00009c90       _OPIF_SHOWRIGHTALIGNNAMES  1000ac90     luamacro.obj
 0001:00009c98       _OPIF_SHOWPRESERVECASE     1000ac98     luamacro.obj
 0001:00009ca0       _OPIF_COMPAREFATTIME       1000aca0     luamacro.obj
 0001:00009ca8       _OPIF_EXTERNALGET          1000aca8     luamacro.obj
 0001:00009cb0       _OPIF_EXTERNALPUT          1000acb0     luamacro.obj
 0001:00009cb8       _OPIF_EXTERNALDELETE       1000acb8     luamacro.obj
 0001:00009cc0       _OPIF_EXTERNALMKDIR        1000acc0     luamacro.obj
 0001:00009cc8       _OPIF_USEATTRHIGHLIGHTING  1000acc8     luamacro.obj
 0001:00009cd0       _OPIF_USECRC32             1000acd0     luamacro.obj
 0001:00009cd8       _OPIF_USEFREESIZE          1000acd8     luamacro.obj
 0001:00009ce0       _OPIF_SHORTCUT             1000ace0     luamacro.obj
 0001:00009ce8       _OPIF_NONE                 1000ace8     luamacro.obj
 0001:00009cf0       _OPM_SILENT                1000acf0     luamacro.obj
 0001:00009cf8       _OPM_FIND                  1000acf8     luamacro.obj
 0001:00009d00       _OPM_VIEW                  1000ad00     luamacro.obj
 0001:00009d08       _OPM_EDIT                  1000ad08     luamacro.obj
 0001:00009d10       _OPM_TOPLEVEL              1000ad10     luamacro.obj
 0001:00009d18       _OPM_DESCR                 1000ad18     luamacro.obj
 0001:00009d20       _OPM_QUICKVIEW             1000ad20     luamacro.obj
 0001:00009d28       _OPM_PGDN                  1000ad28     luamacro.obj
 0001:00009d30       _OPM_COMMANDS              1000ad30     luamacro.obj
 0001:00009d38       _OPM_NONE                  1000ad38     luamacro.obj
 0001:00009d40       _FOSF_ACTIVE               1000ad40     luamacro.obj
 0001:00009d48       _FOSF_NONE                 1000ad48     luamacro.obj
 0001:00009d50       _PCIF_NONE                 1000ad50     luamacro.obj
 0001:00009d58       _FarGuid                   1000ad58     luamacro.obj
 0001:00009d68       _PDF_DIALOGEVENTDRAWENABLE 1000ad68     luamacro.obj
 0001:00009d6c       _PDF_PROCESSINGERROR       1000ad6c     luamacro.obj
 0001:00009d70       _LuamacroGuid              1000ad70     luamacro.obj
 0001:00009e40       _FCF_FG_4BIT               1000ae40     lusercontrol.obj
 0001:00009e48       _FCF_BG_4BIT               1000ae48     lusercontrol.obj
 0001:00009e50       _FCF_4BITMASK              1000ae50     lusercontrol.obj
 0001:00009e58       _FCF_RAWATTR_MASK          1000ae58     lusercontrol.obj
 0001:00009e60       _FCF_EXTENDEDFLAGS         1000ae60     lusercontrol.obj
 0001:00009e68       _FCF_FG_BOLD               1000ae68     lusercontrol.obj
 0001:00009e70       _FCF_FG_ITALIC             1000ae70     lusercontrol.obj
 0001:00009e78       _FCF_FG_UNDERLINE          1000ae78     lusercontrol.obj
 0001:00009e80       _FCF_STYLEMASK             1000ae80     lusercontrol.obj
 0001:00009e88       _FCF_NONE                  1000ae88     lusercontrol.obj
 0001:00009e90       _CDF_NONE                  1000ae90     lusercontrol.obj
 0001:00009e98       _FMSG_WARNING              1000ae98     lusercontrol.obj
 0001:00009ea0       _FMSG_ERRORTYPE            1000aea0     lusercontrol.obj
 0001:00009ea8       _FMSG_KEEPBACKGROUND       1000aea8     lusercontrol.obj
 0001:00009eb0       _FMSG_LEFTALIGN            1000aeb0     lusercontrol.obj
 0001:00009eb8       _FMSG_ALLINONE             1000aeb8     lusercontrol.obj
 0001:00009ec0       _FMSG_MB_OK                1000aec0     lusercontrol.obj
 0001:00009ec8       _FMSG_MB_OKCANCEL          1000aec8     lusercontrol.obj
 0001:00009ed0       _FMSG_MB_ABORTRETRYIGNORE  1000aed0     lusercontrol.obj
 0001:00009ed8       _FMSG_MB_YESNO             1000aed8     lusercontrol.obj
 0001:00009ee0       _FMSG_MB_YESNOCANCEL       1000aee0     lusercontrol.obj
 0001:00009ee8       _FMSG_MB_RETRYCANCEL       1000aee8     lusercontrol.obj
 0001:00009ef0       _FMSG_NONE                 1000aef0     lusercontrol.obj
 0001:00009ef8       _DIF_BOXCOLOR              1000aef8     lusercontrol.obj
 0001:00009f00       _DIF_GROUP                 1000af00     lusercontrol.obj
 0001:00009f08       _DIF_LEFTTEXT              1000af08     lusercontrol.obj
 0001:00009f10       _DIF_MOVESELECT            1000af10     lusercontrol.obj
 0001:00009f18       _DIF_SHOWAMPERSAND         1000af18     lusercontrol.obj
 0001:00009f20       _DIF_CENTERGROUP           1000af20     lusercontrol.obj
 0001:00009f28       _DIF_NOBRACKETS            1000af28     lusercontrol.obj
 0001:00009f30       _DIF_MANUALADDHISTORY      1000af30     lusercontrol.obj
 0001:00009f38       _DIF_SEPARATOR             1000af38     lusercontrol.obj
 0001:00009f40       _DIF_SEPARATOR2            1000af40     lusercontrol.obj
 0001:00009f48       _DIF_EDITOR                1000af48     lusercontrol.obj
 0001:00009f50       _DIF_LISTNOAMPERSAND       1000af50     lusercontrol.obj
 0001:00009f58       _DIF_LISTNOBOX             1000af58     lusercontrol.obj
 0001:00009f60       _DIF_HISTORY               1000af60     lusercontrol.obj
 0001:00009f68       _DIF_BTNNOCLOSE            1000af68     lusercontrol.obj
 0001:00009f70       _DIF_CENTERTEXT            1000af70     lusercontrol.obj
 0001:00009f78       _DIF_SEPARATORUSER         1000af78     lusercontrol.obj
 0001:00009f80       _DIF_SETSHIELD             1000af80     lusercontrol.obj
 0001:00009f88       _DIF_EDITEXPAND            1000af88     lusercontrol.obj
 0001:00009f90       _DIF_DROPDOWNLIST          1000af90     lusercontrol.obj
 0001:00009f98       _DIF_USELASTHISTORY        1000af98     lusercontrol.obj
 0001:00009fa0       _DIF_MASKEDIT              1000afa0     lusercontrol.obj
 0001:00009fa8       _DIF_LISTTRACKMOUSE        1000afa8     lusercontrol.obj
 0001:00009fb0       _DIF_LISTTRACKMOUSEINFOCUS 1000afb0     lusercontrol.obj
 0001:00009fb8       _DIF_SELECTONENTRY         1000afb8     lusercontrol.obj
 0001:00009fc0       _DIF_3STATE                1000afc0     lusercontrol.obj
 0001:00009fc8       _DIF_EDITPATH              1000afc8     lusercontrol.obj
 0001:00009fd0       _DIF_LISTWRAPMODE          1000afd0     lusercontrol.obj
 0001:00009fd8       _DIF_NOAUTOCOMPLETE        1000afd8     lusercontrol.obj
 0001:00009fe0       _DIF_LISTAUTOHIGHLIGHT     1000afe0     lusercontrol.obj
 0001:00009fe8       _DIF_LISTNOCLOSE           1000afe8     lusercontrol.obj
 0001:00009ff0       _DIF_EDITPATHEXEC          1000aff0     lusercontrol.obj
 0001:00009ff8       _DIF_HIDDEN                1000aff8     lusercontrol.obj
 0001:0000a000       _DIF_READONLY              1000b000     lusercontrol.obj
 0001:0000a008       _DIF_NOFOCUS               1000b008     lusercontrol.obj
 0001:0000a010       _DIF_DISABLE               1000b010     lusercontrol.obj
 0001:0000a018       _DIF_DEFAULTBUTTON         1000b018     lusercontrol.obj
 0001:0000a020       _DIF_FOCUS                 1000b020     lusercontrol.obj
 0001:0000a028       _DIF_RIGHTTEXT             1000b028     lusercontrol.obj
 0001:0000a030       _DIF_WORDWRAP              1000b030     lusercontrol.obj
 0001:0000a038       _DIF_NONE                  1000b038     lusercontrol.obj
 0001:0000a040       _LIF_SELECTED              1000b040     lusercontrol.obj
 0001:0000a048       _LIF_CHECKED               1000b048     lusercontrol.obj
 0001:0000a050       _LIF_SEPARATOR             1000b050     lusercontrol.obj
 0001:0000a058       _LIF_DISABLE               1000b058     lusercontrol.obj
 0001:0000a060       _LIF_GRAYED                1000b060     lusercontrol.obj
 0001:0000a068       _LIF_HIDDEN                1000b068     lusercontrol.obj
 0001:0000a070       _LIF_DELETEUSERDATA        1000b070     lusercontrol.obj
 0001:0000a078       _LIF_NONE                  1000b078     lusercontrol.obj
 0001:0000a080       _LIFIND_EXACTMATCH         1000b080     lusercontrol.obj
 0001:0000a088       _LIFIND_NONE               1000b088     lusercontrol.obj
 0001:0000a090       _LINFO_SHOWNOBOX           1000b090     lusercontrol.obj
 0001:0000a098       _LINFO_AUTOHIGHLIGHT       1000b098     lusercontrol.obj
 0001:0000a0a0       _LINFO_REVERSEHIGHLIGHT    1000b0a0     lusercontrol.obj
 0001:0000a0a8       _LINFO_WRAPMODE            1000b0a8     lusercontrol.obj
 0001:0000a0b0       _LINFO_SHOWAMPERSAND       1000b0b0     lusercontrol.obj
 0001:0000a0b8       _LINFO_NONE                1000b0b8     lusercontrol.obj
 0001:0000a0c0       _FDLG_WARNING              1000b0c0     lusercontrol.obj
 0001:0000a0c8       _FDLG_SMALLDIALOG          1000b0c8     lusercontrol.obj
 0001:0000a0d0       _FDLG_NODRAWSHADOW         1000b0d0     lusercontrol.obj
 0001:0000a0d8       _FDLG_NODRAWPANEL          1000b0d8     lusercontrol.obj
 0001:0000a0e0       _FDLG_KEEPCONSOLETITLE     1000b0e0     lusercontrol.obj
 0001:0000a0e8       _FDLG_NONMODAL             1000b0e8     lusercontrol.obj
 0001:0000a0f0       _FDLG_NONE                 1000b0f0     lusercontrol.obj
 0001:0000a0f8       _MIF_SELECTED              1000b0f8     lusercontrol.obj
 0001:0000a100       _MIF_CHECKED               1000b100     lusercontrol.obj
 0001:0000a108       _MIF_SEPARATOR             1000b108     lusercontrol.obj
 0001:0000a110       _MIF_DISABLE               1000b110     lusercontrol.obj
 0001:0000a118       _MIF_GRAYED                1000b118     lusercontrol.obj
 0001:0000a120       _MIF_HIDDEN                1000b120     lusercontrol.obj
 0001:0000a128       _MIF_NONE                  1000b128     lusercontrol.obj
 0001:0000a130       _FMENU_SHOWAMPERSAND       1000b130     lusercontrol.obj
 0001:0000a138       _FMENU_WRAPMODE            1000b138     lusercontrol.obj
 0001:0000a140       _FMENU_AUTOHIGHLIGHT       1000b140     lusercontrol.obj
 0001:0000a148       _FMENU_REVERSEAUTOHIGHLIGHT 1000b148     lusercontrol.obj
 0001:0000a150       _FMENU_CHANGECONSOLETITLE  1000b150     lusercontrol.obj
 0001:0000a158       _FMENU_NONE                1000b158     lusercontrol.obj
 0001:0000a160       _PPIF_SELECTED             1000b160     lusercontrol.obj
 0001:0000a168       _PPIF_PROCESSDESCR         1000b168     lusercontrol.obj
 0001:0000a170       _PPIF_NONE                 1000b170     lusercontrol.obj
 0001:0000a178       _PFLAGS_SHOWHIDDEN         1000b178     lusercontrol.obj
 0001:0000a180       _PFLAGS_HIGHLIGHT          1000b180     lusercontrol.obj
 0001:0000a188       _PFLAGS_REVERSESORTORDER   1000b188     lusercontrol.obj
 0001:0000a190       _PFLAGS_USESORTGROUPS      1000b190     lusercontrol.obj
 0001:0000a198       _PFLAGS_SELECTEDFIRST      1000b198     lusercontrol.obj
 0001:0000a1a0       _PFLAGS_REALNAMES          1000b1a0     lusercontrol.obj
 0001:0000a1a8       _PFLAGS_PANELLEFT          1000b1a8     lusercontrol.obj
 0001:0000a1b0       _PFLAGS_DIRECTORIESFIRST   1000b1b0     lusercontrol.obj
 0001:0000a1b8       _PFLAGS_USECRC32           1000b1b8     lusercontrol.obj
 0001:0000a1c0       _PFLAGS_PLUGIN             1000b1c0     lusercontrol.obj
 0001:0000a1c8       _PFLAGS_VISIBLE            1000b1c8     lusercontrol.obj
 0001:0000a1d0       _PFLAGS_FOCUS              1000b1d0     lusercontrol.obj
 0001:0000a1d8       _PFLAGS_ALTERNATIVENAMES   1000b1d8     lusercontrol.obj
 0001:0000a1e0       _PFLAGS_SHORTCUT           1000b1e0     lusercontrol.obj
 0001:0000a1e8       _PFLAGS_NONE               1000b1e8     lusercontrol.obj
 0001:0000a1f0       _VF_NONMODAL               1000b1f0     lusercontrol.obj
 0001:0000a1f8       _VF_DELETEONCLOSE          1000b1f8     lusercontrol.obj
 0001:0000a200       _VF_ENABLE_F6              1000b200     lusercontrol.obj
 0001:0000a208       _VF_DISABLEHISTORY         1000b208     lusercontrol.obj
 0001:0000a210       _VF_IMMEDIATERETURN        1000b210     lusercontrol.obj
 0001:0000a218       _VF_DELETEONLYFILEONCLOSE  1000b218     lusercontrol.obj
 0001:0000a220       _VF_NONE                   1000b220     lusercontrol.obj
 0001:0000a228       _EF_NONMODAL               1000b228     lusercontrol.obj
 0001:0000a230       _EF_CREATENEW              1000b230     lusercontrol.obj
 0001:0000a238       _EF_ENABLE_F6              1000b238     lusercontrol.obj
 0001:0000a240       _EF_DISABLEHISTORY         1000b240     lusercontrol.obj
 0001:0000a248       _EF_DELETEONCLOSE          1000b248     lusercontrol.obj
 0001:0000a250       _EF_IMMEDIATERETURN        1000b250     lusercontrol.obj
 0001:0000a258       _EF_DELETEONLYFILEONCLOSE  1000b258     lusercontrol.obj
 0001:0000a260       _EF_LOCKED                 1000b260     lusercontrol.obj
 0001:0000a268       _EF_DISABLESAVEPOS         1000b268     lusercontrol.obj
 0001:0000a270       _EF_OPENMODE_MASK          1000b270     lusercontrol.obj
 0001:0000a278       _EF_OPENMODE_QUERY         1000b278     lusercontrol.obj
 0001:0000a280       _EF_OPENMODE_NEWIFOPEN     1000b280     lusercontrol.obj
 0001:0000a288       _EF_OPENMODE_USEEXISTING   1000b288     lusercontrol.obj
 0001:0000a290       _EF_OPENMODE_BREAKIFOPEN   1000b290     lusercontrol.obj
 0001:0000a298       _EF_OPENMODE_RELOADIFOPEN  1000b298     lusercontrol.obj
 0001:0000a2a0       _EN_NONE                   1000b2a0     lusercontrol.obj
 0001:0000a2a8       _FHELP_NOSHOWERROR         1000b2a8     lusercontrol.obj
 0001:0000a2b0       _FHELP_SELFHELP            1000b2b0     lusercontrol.obj
 0001:0000a2b8       _FHELP_FARHELP             1000b2b8     lusercontrol.obj
 0001:0000a2c0       _FHELP_CUSTOMFILE          1000b2c0     lusercontrol.obj
 0001:0000a2c8       _FHELP_CUSTOMPATH          1000b2c8     lusercontrol.obj
 0001:0000a2d0       _FHELP_GUID                1000b2d0     lusercontrol.obj
 0001:0000a2d8       _FHELP_USECONTENTS         1000b2d8     lusercontrol.obj
 0001:0000a2e0       _FHELP_NONE                1000b2e0     lusercontrol.obj
 0001:0000a2e8       _KMFLAGS_SILENTCHECK       1000b2e8     lusercontrol.obj
 0001:0000a2f0       _KMFLAGS_NOSENDKEYSTOPLUGINS 1000b2f0     lusercontrol.obj
 0001:0000a2f8       _KMFLAGS_ENABLEOUTPUT      1000b2f8     lusercontrol.obj
 0001:0000a300       _KMFLAGS_LANGMASK          1000b300     lusercontrol.obj
 0001:0000a308       _KMFLAGS_LUA               1000b308     lusercontrol.obj
 0001:0000a310       _KMFLAGS_MOONSCRIPT        1000b310     lusercontrol.obj
 0001:0000a318       _KMFLAGS_NONE              1000b318     lusercontrol.obj
 0001:0000a320       _AKMFLAGS_NONE             1000b320     lusercontrol.obj
 0001:0000a328       _FSETCLR_REDRAW            1000b328     lusercontrol.obj
 0001:0000a330       _FSETCLR_NONE              1000b330     lusercontrol.obj
 0001:0000a338       _WIF_MODIFIED              1000b338     lusercontrol.obj
 0001:0000a340       _WIF_CURRENT               1000b340     lusercontrol.obj
 0001:0000a348       _WIF_MODAL                 1000b348     lusercontrol.obj
 0001:0000a350       _WIF_NONE                  1000b350     lusercontrol.obj
 0001:0000a358       _VOPT_SAVEFILEPOSITION     1000b358     lusercontrol.obj
 0001:0000a360       _VOPT_AUTODETECTCODEPAGE   1000b360     lusercontrol.obj
 0001:0000a368       _VOPT_SHOWTITLEBAR         1000b368     lusercontrol.obj
 0001:0000a370       _VOPT_SHOWKEYBAR           1000b370     lusercontrol.obj
 0001:0000a378       _VOPT_SHOWSCROLLBAR        1000b378     lusercontrol.obj
 0001:0000a380       _VOPT_QUICKVIEW            1000b380     lusercontrol.obj
 0001:0000a388       _VOPT_NONE                 1000b388     lusercontrol.obj
 0001:0000a390       _VSMFL_REDRAW              1000b390     lusercontrol.obj
 0001:0000a398       _VSMFL_NONE                1000b398     lusercontrol.obj
 0001:0000a3a0       _VSP_NOREDRAW              1000b3a0     lusercontrol.obj
 0001:0000a3a8       _VSP_PERCENT               1000b3a8     lusercontrol.obj
 0001:0000a3b0       _VSP_RELATIVE              1000b3b0     lusercontrol.obj
 0001:0000a3b8       _VSP_NORETNEWPOS           1000b3b8     lusercontrol.obj
 0001:0000a3c0       _VSP_NONE                  1000b3c0     lusercontrol.obj
 0001:0000a3c8       _VMF_WRAP                  1000b3c8     lusercontrol.obj
 0001:0000a3d0       _VMF_WORDWRAP              1000b3d0     lusercontrol.obj
 0001:0000a3d8       _VMF_NONE                  1000b3d8     lusercontrol.obj
 0001:0000a3e0       _ECF_TABMARKFIRST          1000b3e0     lusercontrol.obj
 0001:0000a3e8       _ECF_TABMARKCURRENT        1000b3e8     lusercontrol.obj
 0001:0000a3f0       _ECF_AUTODELETE            1000b3f0     lusercontrol.obj
 0001:0000a3f8       _ECF_NONE                  1000b3f8     lusercontrol.obj
 0001:0000a400       _FIB_ENABLEEMPTY           1000b400     lusercontrol.obj
 0001:0000a408       _FIB_PASSWORD              1000b408     lusercontrol.obj
 0001:0000a410       _FIB_EXPANDENV             1000b410     lusercontrol.obj
 0001:0000a418       _FIB_NOUSELASTHISTORY      1000b418     lusercontrol.obj
 0001:0000a420       _FIB_BUTTONS               1000b420     lusercontrol.obj
 0001:0000a428       _FIB_NOAMPERSAND           1000b428     lusercontrol.obj
 0001:0000a430       _FIB_EDITPATH              1000b430     lusercontrol.obj
 0001:0000a438       _FIB_EDITPATHEXEC          1000b438     lusercontrol.obj
 0001:0000a440       _FIB_NONE                  1000b440     lusercontrol.obj
 0001:0000a448       _FPF_LOADED                1000b448     lusercontrol.obj
 0001:0000a450       _FPF_ANSI                  1000b450     lusercontrol.obj
 0001:0000a458       _FPF_NONE                  1000b458     lusercontrol.obj
 0001:0000a460       _PN_CMPNAME                1000b460     lusercontrol.obj
 0001:0000a468       _PN_CMPNAMELIST            1000b468     lusercontrol.obj
 0001:0000a470       _PN_GENERATENAME           1000b470     lusercontrol.obj
 0001:0000a478       _PN_CHECKMASK              1000b478     lusercontrol.obj
 0001:0000a480       _PN_SKIPPATH               1000b480     lusercontrol.obj
 0001:0000a488       _PN_SHOWERRORMESSAGE       1000b488     lusercontrol.obj
 0001:0000a490       _PN_NONE                   1000b490     lusercontrol.obj
 0001:0000a498       _XLAT_SWITCHKEYBLAYOUT     1000b498     lusercontrol.obj
 0001:0000a4a0       _XLAT_SWITCHKEYBBEEP       1000b4a0     lusercontrol.obj
 0001:0000a4a8       _XLAT_USEKEYBLAYOUTNAME    1000b4a8     lusercontrol.obj
 0001:0000a4b0       _XLAT_CONVERTALLCMDLINE    1000b4b0     lusercontrol.obj
 0001:0000a4b8       _XLAT_NONE                 1000b4b8     lusercontrol.obj
 0001:0000a4c0       _FRS_RETUPDIR              1000b4c0     lusercontrol.obj
 0001:0000a4c8       _FRS_RECUR                 1000b4c8     lusercontrol.obj
 0001:0000a4d0       _FRS_SCANSYMLINK           1000b4d0     lusercontrol.obj
 0001:0000a4d8       _FRS_NONE                  1000b4d8     lusercontrol.obj
 0001:0000a4e0       _MLF_SHOWERRMSG            1000b4e0     lusercontrol.obj
 0001:0000a4e8       _MLF_DONOTUPDATEPANEL      1000b4e8     lusercontrol.obj
 0001:0000a4f0       _MLF_HOLDTARGET            1000b4f0     lusercontrol.obj
 0001:0000a4f8       _MLF_NONE                  1000b4f8     lusercontrol.obj
 0001:0000a500       _FFFS_COMMAS               1000b500     lusercontrol.obj
 0001:0000a508       _FFFS_FLOATSIZE            1000b508     lusercontrol.obj
 0001:0000a510       _FFFS_SHOWBYTESINDEX       1000b510     lusercontrol.obj
 0001:0000a518       _FFFS_ECONOMIC             1000b518     lusercontrol.obj
 0001:0000a520       _FFFS_THOUSAND             1000b520     lusercontrol.obj
 0001:0000a528       _FFFS_MINSIZEINDEX         1000b528     lusercontrol.obj
 0001:0000a530       _FFFS_MINSIZEINDEX_MASK    1000b530     lusercontrol.obj
 0001:0000a538       _FFFS_NONE                 1000b538     lusercontrol.obj
 0001:0000a540       _PF_PRELOAD                1000b540     lusercontrol.obj
 0001:0000a548       _PF_DISABLEPANELS          1000b548     lusercontrol.obj
 0001:0000a550       _PF_EDITOR                 1000b550     lusercontrol.obj
 0001:0000a558       _PF_VIEWER                 1000b558     lusercontrol.obj
 0001:0000a560       _PF_FULLCMDLINE            1000b560     lusercontrol.obj
 0001:0000a568       _PF_DIALOG                 1000b568     lusercontrol.obj
 0001:0000a570       _PF_NONE                   1000b570     lusercontrol.obj
 0001:0000a578       _IPLFLAGS_SEPARATOR        1000b578     lusercontrol.obj
 0001:0000a580       _IPLFLAGS_NONE             1000b580     lusercontrol.obj
 0001:0000a588       _PMFLAGS_FULLSCREEN        1000b588     lusercontrol.obj
 0001:0000a590       _PMFLAGS_DETAILEDSTATUS    1000b590     lusercontrol.obj
 0001:0000a598       _PMFLAGS_ALIGNEXTENSIONS   1000b598     lusercontrol.obj
 0001:0000a5a0       _PMFLAGS_CASECONVERSION    1000b5a0     lusercontrol.obj
 0001:0000a5a8       _PMFLAGS_NONE              1000b5a8     lusercontrol.obj
 0001:0000a5b0       _OPIF_DISABLEFILTER        1000b5b0     lusercontrol.obj
 0001:0000a5b8       _OPIF_DISABLESORTGROUPS    1000b5b8     lusercontrol.obj
 0001:0000a5c0       _OPIF_DISABLEHIGHLIGHTING  1000b5c0     lusercontrol.obj
 0001:0000a5c8       _OPIF_ADDDOTS              1000b5c8     lusercontrol.obj
 0001:0000a5d0       _OPIF_RAWSELECTION         1000b5d0     lusercontrol.obj
 0001:0000a5d8       _OPIF_REALNAMES            1000b5d8     lusercontrol.obj
 0001:0000a5e0       _OPIF_SHOWNAMESONLY        1000b5e0     lusercontrol.obj
 0001:0000a5e8       _OPIF_SHOWRIGHTALIGNNAMES  1000b5e8     lusercontrol.obj
 0001:0000a5f0       _OPIF_SHOWPRESERVECASE     1000b5f0     lusercontrol.obj
 0001:0000a5f8       _OPIF_COMPAREFATTIME       1000b5f8     lusercontrol.obj
 0001:0000a600       _OPIF_EXTERNALGET          1000b600     lusercontrol.obj
 0001:0000a608       _OPIF_EXTERNALPUT          1000b608     lusercontrol.obj
 0001:0000a610       _OPIF_EXTERNALDELETE       1000b610     lusercontrol.obj
 0001:0000a618       _OPIF_EXTERNALMKDIR        1000b618     lusercontrol.obj
 0001:0000a620       _OPIF_USEATTRHIGHLIGHTING  1000b620     lusercontrol.obj
 0001:0000a628       _OPIF_USECRC32             1000b628     lusercontrol.obj
 0001:0000a630       _OPIF_USEFREESIZE          1000b630     lusercontrol.obj
 0001:0000a638       _OPIF_SHORTCUT             1000b638     lusercontrol.obj
 0001:0000a640       _OPIF_NONE                 1000b640     lusercontrol.obj
 0001:0000a648       _OPM_SILENT                1000b648     lusercontrol.obj
 0001:0000a650       _OPM_FIND                  1000b650     lusercontrol.obj
 0001:0000a658       _OPM_VIEW                  1000b658     lusercontrol.obj
 0001:0000a660       _OPM_EDIT                  1000b660     lusercontrol.obj
 0001:0000a668       _OPM_TOPLEVEL              1000b668     lusercontrol.obj
 0001:0000a670       _OPM_DESCR                 1000b670     lusercontrol.obj
 0001:0000a678       _OPM_QUICKVIEW             1000b678     lusercontrol.obj
 0001:0000a680       _OPM_PGDN                  1000b680     lusercontrol.obj
 0001:0000a688       _OPM_COMMANDS              1000b688     lusercontrol.obj
 0001:0000a690       _OPM_NONE                  1000b690     lusercontrol.obj
 0001:0000a698       _FOSF_ACTIVE               1000b698     lusercontrol.obj
 0001:0000a6a0       _FOSF_NONE                 1000b6a0     lusercontrol.obj
 0001:0000a6a8       _PCIF_NONE                 1000b6a8     lusercontrol.obj
 0001:0000a6b0       _FarGuid                   1000b6b0     lusercontrol.obj
 0001:0000a844       _FarGuid                   1000b844     service.obj
 0001:0000a854       _PDF_DIALOGEVENTDRAWENABLE 1000b854     service.obj
 0001:0000a858       _FCF_FG_4BIT               1000b858     service.obj
 0001:0000a860       _FCF_BG_4BIT               1000b860     service.obj
 0001:0000a868       _FCF_4BITMASK              1000b868     service.obj
 0001:0000a870       _FCF_RAWATTR_MASK          1000b870     service.obj
 0001:0000a878       _FCF_EXTENDEDFLAGS         1000b878     service.obj
 0001:0000a880       _FCF_FG_BOLD               1000b880     service.obj
 0001:0000a888       _FCF_FG_ITALIC             1000b888     service.obj
 0001:0000a890       _FCF_FG_UNDERLINE          1000b890     service.obj
 0001:0000a898       _FCF_STYLEMASK             1000b898     service.obj
 0001:0000a8a0       _FCF_NONE                  1000b8a0     service.obj
 0001:0000a8a8       _CDF_NONE                  1000b8a8     service.obj
 0001:0000a8b0       _FMSG_WARNING              1000b8b0     service.obj
 0001:0000a8b8       _FMSG_ERRORTYPE            1000b8b8     service.obj
 0001:0000a8c0       _FMSG_KEEPBACKGROUND       1000b8c0     service.obj
 0001:0000a8c8       _FMSG_LEFTALIGN            1000b8c8     service.obj
 0001:0000a8d0       _FMSG_ALLINONE             1000b8d0     service.obj
 0001:0000a8d8       _FMSG_MB_OK                1000b8d8     service.obj
 0001:0000a8e0       _FMSG_MB_OKCANCEL          1000b8e0     service.obj
 0001:0000a8e8       _FMSG_MB_ABORTRETRYIGNORE  1000b8e8     service.obj
 0001:0000a8f0       _FMSG_MB_YESNO             1000b8f0     service.obj
 0001:0000a8f8       _FMSG_MB_YESNOCANCEL       1000b8f8     service.obj
 0001:0000a900       _FMSG_MB_RETRYCANCEL       1000b900     service.obj
 0001:0000a908       _FMSG_NONE                 1000b908     service.obj
 0001:0000a910       _DIF_BOXCOLOR              1000b910     service.obj
 0001:0000a918       _DIF_GROUP                 1000b918     service.obj
 0001:0000a920       _DIF_LEFTTEXT              1000b920     service.obj
 0001:0000a928       _DIF_MOVESELECT            1000b928     service.obj
 0001:0000a930       _DIF_SHOWAMPERSAND         1000b930     service.obj
 0001:0000a938       _DIF_CENTERGROUP           1000b938     service.obj
 0001:0000a940       _DIF_NOBRACKETS            1000b940     service.obj
 0001:0000a948       _DIF_MANUALADDHISTORY      1000b948     service.obj
 0001:0000a950       _DIF_SEPARATOR             1000b950     service.obj
 0001:0000a958       _DIF_SEPARATOR2            1000b958     service.obj
 0001:0000a960       _DIF_EDITOR                1000b960     service.obj
 0001:0000a968       _DIF_LISTNOAMPERSAND       1000b968     service.obj
 0001:0000a970       _DIF_LISTNOBOX             1000b970     service.obj
 0001:0000a978       _DIF_HISTORY               1000b978     service.obj
 0001:0000a980       _DIF_BTNNOCLOSE            1000b980     service.obj
 0001:0000a988       _DIF_CENTERTEXT            1000b988     service.obj
 0001:0000a990       _DIF_SEPARATORUSER         1000b990     service.obj
 0001:0000a998       _DIF_SETSHIELD             1000b998     service.obj
 0001:0000a9a0       _DIF_EDITEXPAND            1000b9a0     service.obj
 0001:0000a9a8       _DIF_DROPDOWNLIST          1000b9a8     service.obj
 0001:0000a9b0       _DIF_USELASTHISTORY        1000b9b0     service.obj
 0001:0000a9b8       _DIF_MASKEDIT              1000b9b8     service.obj
 0001:0000a9c0       _DIF_LISTTRACKMOUSE        1000b9c0     service.obj
 0001:0000a9c8       _DIF_LISTTRACKMOUSEINFOCUS 1000b9c8     service.obj
 0001:0000a9d0       _DIF_SELECTONENTRY         1000b9d0     service.obj
 0001:0000a9d8       _DIF_3STATE                1000b9d8     service.obj
 0001:0000a9e0       _DIF_EDITPATH              1000b9e0     service.obj
 0001:0000a9e8       _DIF_LISTWRAPMODE          1000b9e8     service.obj
 0001:0000a9f0       _DIF_NOAUTOCOMPLETE        1000b9f0     service.obj
 0001:0000a9f8       _DIF_LISTAUTOHIGHLIGHT     1000b9f8     service.obj
 0001:0000aa00       _DIF_LISTNOCLOSE           1000ba00     service.obj
 0001:0000aa08       _DIF_EDITPATHEXEC          1000ba08     service.obj
 0001:0000aa10       _DIF_HIDDEN                1000ba10     service.obj
 0001:0000aa18       _DIF_READONLY              1000ba18     service.obj
 0001:0000aa20       _DIF_NOFOCUS               1000ba20     service.obj
 0001:0000aa28       _DIF_DISABLE               1000ba28     service.obj
 0001:0000aa30       _DIF_DEFAULTBUTTON         1000ba30     service.obj
 0001:0000aa38       _DIF_FOCUS                 1000ba38     service.obj
 0001:0000aa40       _DIF_RIGHTTEXT             1000ba40     service.obj
 0001:0000aa48       _DIF_WORDWRAP              1000ba48     service.obj
 0001:0000aa50       _DIF_NONE                  1000ba50     service.obj
 0001:0000aa58       _LIF_SELECTED              1000ba58     service.obj
 0001:0000aa60       _LIF_CHECKED               1000ba60     service.obj
 0001:0000aa68       _LIF_SEPARATOR             1000ba68     service.obj
 0001:0000aa70       _LIF_DISABLE               1000ba70     service.obj
 0001:0000aa78       _LIF_GRAYED                1000ba78     service.obj
 0001:0000aa80       _LIF_HIDDEN                1000ba80     service.obj
 0001:0000aa88       _LIF_DELETEUSERDATA        1000ba88     service.obj
 0001:0000aa90       _LIF_NONE                  1000ba90     service.obj
 0001:0000aa98       _LIFIND_EXACTMATCH         1000ba98     service.obj
 0001:0000aaa0       _LIFIND_NONE               1000baa0     service.obj
 0001:0000aaa8       _LINFO_SHOWNOBOX           1000baa8     service.obj
 0001:0000aab0       _LINFO_AUTOHIGHLIGHT       1000bab0     service.obj
 0001:0000aab8       _LINFO_REVERSEHIGHLIGHT    1000bab8     service.obj
 0001:0000aac0       _LINFO_WRAPMODE            1000bac0     service.obj
 0001:0000aac8       _LINFO_SHOWAMPERSAND       1000bac8     service.obj
 0001:0000aad0       _LINFO_NONE                1000bad0     service.obj
 0001:0000aad8       _FDLG_WARNING              1000bad8     service.obj
 0001:0000aae0       _FDLG_SMALLDIALOG          1000bae0     service.obj
 0001:0000aae8       _FDLG_NODRAWSHADOW         1000bae8     service.obj
 0001:0000aaf0       _FDLG_NODRAWPANEL          1000baf0     service.obj
 0001:0000aaf8       _FDLG_KEEPCONSOLETITLE     1000baf8     service.obj
 0001:0000ab00       _FDLG_NONMODAL             1000bb00     service.obj
 0001:0000ab08       _FDLG_NONE                 1000bb08     service.obj
 0001:0000ab10       ?key@?3??far_Menu@@9@9     1000bb10     service.obj
 0001:0000ab18       _MIF_SELECTED              1000bb18     service.obj
 0001:0000ab20       _MIF_CHECKED               1000bb20     service.obj
 0001:0000ab28       _MIF_SEPARATOR             1000bb28     service.obj
 0001:0000ab30       _MIF_DISABLE               1000bb30     service.obj
 0001:0000ab38       _MIF_GRAYED                1000bb38     service.obj
 0001:0000ab40       _MIF_HIDDEN                1000bb40     service.obj
 0001:0000ab48       _MIF_NONE                  1000bb48     service.obj
 0001:0000ab50       _FMENU_SHOWAMPERSAND       1000bb50     service.obj
 0001:0000ab58       _FMENU_WRAPMODE            1000bb58     service.obj
 0001:0000ab60       _FMENU_AUTOHIGHLIGHT       1000bb60     service.obj
 0001:0000ab68       _FMENU_REVERSEAUTOHIGHLIGHT 1000bb68     service.obj
 0001:0000ab70       _FMENU_CHANGECONSOLETITLE  1000bb70     service.obj
 0001:0000ab78       _FMENU_NONE                1000bb78     service.obj
 0001:0000ab80       _PPIF_SELECTED             1000bb80     service.obj
 0001:0000ab88       _PPIF_PROCESSDESCR         1000bb88     service.obj
 0001:0000ab90       _PPIF_NONE                 1000bb90     service.obj
 0001:0000ab98       _PFLAGS_SHOWHIDDEN         1000bb98     service.obj
 0001:0000aba0       _PFLAGS_HIGHLIGHT          1000bba0     service.obj
 0001:0000aba8       _PFLAGS_REVERSESORTORDER   1000bba8     service.obj
 0001:0000abb0       _PFLAGS_USESORTGROUPS      1000bbb0     service.obj
 0001:0000abb8       _PFLAGS_SELECTEDFIRST      1000bbb8     service.obj
 0001:0000abc0       _PFLAGS_REALNAMES          1000bbc0     service.obj
 0001:0000abc8       _PFLAGS_PANELLEFT          1000bbc8     service.obj
 0001:0000abd0       _PFLAGS_DIRECTORIESFIRST   1000bbd0     service.obj
 0001:0000abd8       _PFLAGS_USECRC32           1000bbd8     service.obj
 0001:0000abe0       _PFLAGS_PLUGIN             1000bbe0     service.obj
 0001:0000abe8       _PFLAGS_VISIBLE            1000bbe8     service.obj
 0001:0000abf0       _PFLAGS_FOCUS              1000bbf0     service.obj
 0001:0000abf8       _PFLAGS_ALTERNATIVENAMES   1000bbf8     service.obj
 0001:0000ac00       _PFLAGS_SHORTCUT           1000bc00     service.obj
 0001:0000ac08       _PFLAGS_NONE               1000bc08     service.obj
 0001:0000ac10       _VF_NONMODAL               1000bc10     service.obj
 0001:0000ac18       _VF_DELETEONCLOSE          1000bc18     service.obj
 0001:0000ac20       _VF_ENABLE_F6              1000bc20     service.obj
 0001:0000ac28       _VF_DISABLEHISTORY         1000bc28     service.obj
 0001:0000ac30       _VF_IMMEDIATERETURN        1000bc30     service.obj
 0001:0000ac38       _VF_DELETEONLYFILEONCLOSE  1000bc38     service.obj
 0001:0000ac40       _VF_NONE                   1000bc40     service.obj
 0001:0000ac48       _EF_NONMODAL               1000bc48     service.obj
 0001:0000ac50       _EF_CREATENEW              1000bc50     service.obj
 0001:0000ac58       _EF_ENABLE_F6              1000bc58     service.obj
 0001:0000ac60       _EF_DISABLEHISTORY         1000bc60     service.obj
 0001:0000ac68       _EF_DELETEONCLOSE          1000bc68     service.obj
 0001:0000ac70       _EF_IMMEDIATERETURN        1000bc70     service.obj
 0001:0000ac78       _EF_DELETEONLYFILEONCLOSE  1000bc78     service.obj
 0001:0000ac80       _EF_LOCKED                 1000bc80     service.obj
 0001:0000ac88       _EF_DISABLESAVEPOS         1000bc88     service.obj
 0001:0000ac90       _EF_OPENMODE_MASK          1000bc90     service.obj
 0001:0000ac98       _EF_OPENMODE_QUERY         1000bc98     service.obj
 0001:0000aca0       _EF_OPENMODE_NEWIFOPEN     1000bca0     service.obj
 0001:0000aca8       _EF_OPENMODE_USEEXISTING   1000bca8     service.obj
 0001:0000acb0       _EF_OPENMODE_BREAKIFOPEN   1000bcb0     service.obj
 0001:0000acb8       _EF_OPENMODE_RELOADIFOPEN  1000bcb8     service.obj
 0001:0000acc0       _EN_NONE                   1000bcc0     service.obj
 0001:0000acc8       _FHELP_NOSHOWERROR         1000bcc8     service.obj
 0001:0000acd0       _FHELP_SELFHELP            1000bcd0     service.obj
 0001:0000acd8       _FHELP_FARHELP             1000bcd8     service.obj
 0001:0000ace0       _FHELP_CUSTOMFILE          1000bce0     service.obj
 0001:0000ace8       _FHELP_CUSTOMPATH          1000bce8     service.obj
 0001:0000acf0       _FHELP_GUID                1000bcf0     service.obj
 0001:0000acf8       _FHELP_USECONTENTS         1000bcf8     service.obj
 0001:0000ad00       _FHELP_NONE                1000bd00     service.obj
 0001:0000ad08       _KMFLAGS_SILENTCHECK       1000bd08     service.obj
 0001:0000ad10       _KMFLAGS_NOSENDKEYSTOPLUGINS 1000bd10     service.obj
 0001:0000ad18       _KMFLAGS_ENABLEOUTPUT      1000bd18     service.obj
 0001:0000ad20       _KMFLAGS_LANGMASK          1000bd20     service.obj
 0001:0000ad28       _KMFLAGS_LUA               1000bd28     service.obj
 0001:0000ad30       _KMFLAGS_MOONSCRIPT        1000bd30     service.obj
 0001:0000ad38       _KMFLAGS_NONE              1000bd38     service.obj
 0001:0000ad40       _AKMFLAGS_NONE             1000bd40     service.obj
 0001:0000ad48       _FSETCLR_REDRAW            1000bd48     service.obj
 0001:0000ad50       _FSETCLR_NONE              1000bd50     service.obj
 0001:0000ad58       _WIF_MODIFIED              1000bd58     service.obj
 0001:0000ad60       _WIF_CURRENT               1000bd60     service.obj
 0001:0000ad68       _WIF_MODAL                 1000bd68     service.obj
 0001:0000ad70       _WIF_NONE                  1000bd70     service.obj
 0001:0000ad78       _VOPT_SAVEFILEPOSITION     1000bd78     service.obj
 0001:0000ad80       _VOPT_AUTODETECTCODEPAGE   1000bd80     service.obj
 0001:0000ad88       _VOPT_SHOWTITLEBAR         1000bd88     service.obj
 0001:0000ad90       _VOPT_SHOWKEYBAR           1000bd90     service.obj
 0001:0000ad98       _VOPT_SHOWSCROLLBAR        1000bd98     service.obj
 0001:0000ada0       _VOPT_QUICKVIEW            1000bda0     service.obj
 0001:0000ada8       _VOPT_NONE                 1000bda8     service.obj
 0001:0000adb0       _VSMFL_REDRAW              1000bdb0     service.obj
 0001:0000adb8       _VSMFL_NONE                1000bdb8     service.obj
 0001:0000adc0       _VSP_NOREDRAW              1000bdc0     service.obj
 0001:0000adc8       _VSP_PERCENT               1000bdc8     service.obj
 0001:0000add0       _VSP_RELATIVE              1000bdd0     service.obj
 0001:0000add8       _VSP_NORETNEWPOS           1000bdd8     service.obj
 0001:0000ade0       _VSP_NONE                  1000bde0     service.obj
 0001:0000ade8       _VMF_WRAP                  1000bde8     service.obj
 0001:0000adf0       _VMF_WORDWRAP              1000bdf0     service.obj
 0001:0000adf8       _VMF_NONE                  1000bdf8     service.obj
 0001:0000ae00       _ECF_TABMARKFIRST          1000be00     service.obj
 0001:0000ae08       _ECF_TABMARKCURRENT        1000be08     service.obj
 0001:0000ae10       _ECF_AUTODELETE            1000be10     service.obj
 0001:0000ae18       _ECF_NONE                  1000be18     service.obj
 0001:0000ae20       _FIB_ENABLEEMPTY           1000be20     service.obj
 0001:0000ae28       _FIB_PASSWORD              1000be28     service.obj
 0001:0000ae30       _FIB_EXPANDENV             1000be30     service.obj
 0001:0000ae38       _FIB_NOUSELASTHISTORY      1000be38     service.obj
 0001:0000ae40       _FIB_BUTTONS               1000be40     service.obj
 0001:0000ae48       _FIB_NOAMPERSAND           1000be48     service.obj
 0001:0000ae50       _FIB_EDITPATH              1000be50     service.obj
 0001:0000ae58       _FIB_EDITPATHEXEC          1000be58     service.obj
 0001:0000ae60       _FIB_NONE                  1000be60     service.obj
 0001:0000ae68       _FPF_LOADED                1000be68     service.obj
 0001:0000ae70       _FPF_ANSI                  1000be70     service.obj
 0001:0000ae78       _FPF_NONE                  1000be78     service.obj
 0001:0000ae80       _PN_CMPNAME                1000be80     service.obj
 0001:0000ae88       _PN_CMPNAMELIST            1000be88     service.obj
 0001:0000ae90       _PN_GENERATENAME           1000be90     service.obj
 0001:0000ae98       _PN_CHECKMASK              1000be98     service.obj
 0001:0000aea0       _PN_SKIPPATH               1000bea0     service.obj
 0001:0000aea8       _PN_SHOWERRORMESSAGE       1000bea8     service.obj
 0001:0000aeb0       _PN_NONE                   1000beb0     service.obj
 0001:0000aeb8       _XLAT_SWITCHKEYBLAYOUT     1000beb8     service.obj
 0001:0000aec0       _XLAT_SWITCHKEYBBEEP       1000bec0     service.obj
 0001:0000aec8       _XLAT_USEKEYBLAYOUTNAME    1000bec8     service.obj
 0001:0000aed0       _XLAT_CONVERTALLCMDLINE    1000bed0     service.obj
 0001:0000aed8       _XLAT_NONE                 1000bed8     service.obj
 0001:0000aee0       _FRS_RETUPDIR              1000bee0     service.obj
 0001:0000aee8       _FRS_RECUR                 1000bee8     service.obj
 0001:0000aef0       _FRS_SCANSYMLINK           1000bef0     service.obj
 0001:0000aef8       _FRS_NONE                  1000bef8     service.obj
 0001:0000af00       _MLF_SHOWERRMSG            1000bf00     service.obj
 0001:0000af08       _MLF_DONOTUPDATEPANEL      1000bf08     service.obj
 0001:0000af10       _MLF_HOLDTARGET            1000bf10     service.obj
 0001:0000af18       _MLF_NONE                  1000bf18     service.obj
 0001:0000af20       _FFFS_COMMAS               1000bf20     service.obj
 0001:0000af28       _FFFS_FLOATSIZE            1000bf28     service.obj
 0001:0000af30       _FFFS_SHOWBYTESINDEX       1000bf30     service.obj
 0001:0000af38       _FFFS_ECONOMIC             1000bf38     service.obj
 0001:0000af40       _FFFS_THOUSAND             1000bf40     service.obj
 0001:0000af48       _FFFS_MINSIZEINDEX         1000bf48     service.obj
 0001:0000af50       _FFFS_MINSIZEINDEX_MASK    1000bf50     service.obj
 0001:0000af58       _FFFS_NONE                 1000bf58     service.obj
 0001:0000af60       ?C@?3??far_InputRecordToName@@9@9 1000bf60     service.obj
 0001:0000af68       ?A@?3??far_InputRecordToName@@9@9 1000bf68     service.obj
 0001:0000af70       ?S@?3??far_InputRecordToName@@9@9 1000bf70     service.obj
 0001:0000af78       _PF_PRELOAD                1000bf78     service.obj
 0001:0000af80       _PF_DISABLEPANELS          1000bf80     service.obj
 0001:0000af88       _PF_EDITOR                 1000bf88     service.obj
 0001:0000af90       _PF_VIEWER                 1000bf90     service.obj
 0001:0000af98       _PF_FULLCMDLINE            1000bf98     service.obj
 0001:0000afa0       _PF_DIALOG                 1000bfa0     service.obj
 0001:0000afa8       _PF_NONE                   1000bfa8     service.obj
 0001:0000afb0       _IPLFLAGS_SEPARATOR        1000bfb0     service.obj
 0001:0000afb8       _IPLFLAGS_NONE             1000bfb8     service.obj
 0001:0000afc0       _PMFLAGS_FULLSCREEN        1000bfc0     service.obj
 0001:0000afc8       _PMFLAGS_DETAILEDSTATUS    1000bfc8     service.obj
 0001:0000afd0       _PMFLAGS_ALIGNEXTENSIONS   1000bfd0     service.obj
 0001:0000afd8       _PMFLAGS_CASECONVERSION    1000bfd8     service.obj
 0001:0000afe0       _PMFLAGS_NONE              1000bfe0     service.obj
 0001:0000afe8       _OPIF_DISABLEFILTER        1000bfe8     service.obj
 0001:0000aff0       _OPIF_DISABLESORTGROUPS    1000bff0     service.obj
 0001:0000aff8       _OPIF_DISABLEHIGHLIGHTING  1000bff8     service.obj
 0001:0000b000       _OPIF_ADDDOTS              1000c000     service.obj
 0001:0000b008       _OPIF_RAWSELECTION         1000c008     service.obj
 0001:0000b010       _OPIF_REALNAMES            1000c010     service.obj
 0001:0000b018       _OPIF_SHOWNAMESONLY        1000c018     service.obj
 0001:0000b020       _OPIF_SHOWRIGHTALIGNNAMES  1000c020     service.obj
 0001:0000b028       _OPIF_SHOWPRESERVECASE     1000c028     service.obj
 0001:0000b030       _OPIF_COMPAREFATTIME       1000c030     service.obj
 0001:0000b038       _OPIF_EXTERNALGET          1000c038     service.obj
 0001:0000b040       _OPIF_EXTERNALPUT          1000c040     service.obj
 0001:0000b048       _OPIF_EXTERNALDELETE       1000c048     service.obj
 0001:0000b050       _OPIF_EXTERNALMKDIR        1000c050     service.obj
 0001:0000b058       _OPIF_USEATTRHIGHLIGHTING  1000c058     service.obj
 0001:0000b060       _OPIF_USECRC32             1000c060     service.obj
 0001:0000b068       _OPIF_USEFREESIZE          1000c068     service.obj
 0001:0000b070       _OPIF_SHORTCUT             1000c070     service.obj
 0001:0000b078       _OPIF_NONE                 1000c078     service.obj
 0001:0000b080       _OPM_SILENT                1000c080     service.obj
 0001:0000b088       _OPM_FIND                  1000c088     service.obj
 0001:0000b090       _OPM_VIEW                  1000c090     service.obj
 0001:0000b098       _OPM_EDIT                  1000c098     service.obj
 0001:0000b0a0       _OPM_TOPLEVEL              1000c0a0     service.obj
 0001:0000b0a8       _OPM_DESCR                 1000c0a8     service.obj
 0001:0000b0b0       _OPM_QUICKVIEW             1000c0b0     service.obj
 0001:0000b0b8       _OPM_PGDN                  1000c0b8     service.obj
 0001:0000b0c0       _OPM_COMMANDS              1000c0c0     service.obj
 0001:0000b0c8       _OPM_NONE                  1000c0c8     service.obj
 0001:0000b0d0       _FOSF_ACTIVE               1000c0d0     service.obj
 0001:0000b0d8       _FOSF_NONE                 1000c0d8     service.obj
 0001:0000b0e0       _PCIF_NONE                 1000c0e0     service.obj
 0001:0000b0e8       ?FarGuid@?1??far_CreateSettings@@9@9 1000c0e8     service.obj
 0001:0000b8e8       _lualibs                   1000c8e8     service.obj
 0001:0000b948       _lualibs_extra             1000c948     service.obj
 0001:0000b9c8       _PDF_PROCESSINGERROR       1000c9c8     service.obj
 0001:0000d3f8       _uniclib                   1000e3f8     slnunico.obj
 0001:0000d720       _fnames                    1000e720     uliolib51.obj
 0001:0000d728       ?mode@?1??f_seek@@9@9      1000e728     uliolib51.obj
 0001:0000d734       ?modenames@?1??f_seek@@9@9 1000e734     uliolib51.obj
 0001:0000d744       ?mode@?1??f_setvbuf@@9@9   1000e744     uliolib51.obj
 0001:0000d750       ?modenames@?1??f_setvbuf@@9@9 1000e750     uliolib51.obj
 0001:0000d760       _iolib                     1000e760     uliolib51.obj
 0001:0000d7c0       _flib                      1000e7c0     uliolib51.obj
 0001:0000da0c       _sentinel_                 1000ea0c     uloadlib51.obj
 0001:0000da10       _pk_funcs                  1000ea10     uloadlib51.obj
 0001:0000da28       _ll_funcs                  1000ea28     uloadlib51.obj
 0001:0000da40       _loaders                   1000ea40     uloadlib51.obj
 0001:0000e1e8       _FCF_FG_4BIT               1000f1e8     util.obj
 0001:0000e1f0       _FCF_BG_4BIT               1000f1f0     util.obj
 0001:0000e1f8       _FCF_4BITMASK              1000f1f8     util.obj
 0001:0000e200       _FCF_RAWATTR_MASK          1000f200     util.obj
 0001:0000e208       _FCF_EXTENDEDFLAGS         1000f208     util.obj
 0001:0000e210       _FCF_FG_BOLD               1000f210     util.obj
 0001:0000e218       _FCF_FG_ITALIC             1000f218     util.obj
 0001:0000e220       _FCF_FG_UNDERLINE          1000f220     util.obj
 0001:0000e228       _FCF_STYLEMASK             1000f228     util.obj
 0001:0000e230       _FCF_NONE                  1000f230     util.obj
 0001:0000e238       _CDF_NONE                  1000f238     util.obj
 0001:0000e240       _FMSG_WARNING              1000f240     util.obj
 0001:0000e248       _FMSG_ERRORTYPE            1000f248     util.obj
 0001:0000e250       _FMSG_KEEPBACKGROUND       1000f250     util.obj
 0001:0000e258       _FMSG_LEFTALIGN            1000f258     util.obj
 0001:0000e260       _FMSG_ALLINONE             1000f260     util.obj
 0001:0000e268       _FMSG_MB_OK                1000f268     util.obj
 0001:0000e270       _FMSG_MB_OKCANCEL          1000f270     util.obj
 0001:0000e278       _FMSG_MB_ABORTRETRYIGNORE  1000f278     util.obj
 0001:0000e280       _FMSG_MB_YESNO             1000f280     util.obj
 0001:0000e288       _FMSG_MB_YESNOCANCEL       1000f288     util.obj
 0001:0000e290       _FMSG_MB_RETRYCANCEL       1000f290     util.obj
 0001:0000e298       _FMSG_NONE                 1000f298     util.obj
 0001:0000e2a0       _DIF_BOXCOLOR              1000f2a0     util.obj
 0001:0000e2a8       _DIF_GROUP                 1000f2a8     util.obj
 0001:0000e2b0       _DIF_LEFTTEXT              1000f2b0     util.obj
 0001:0000e2b8       _DIF_MOVESELECT            1000f2b8     util.obj
 0001:0000e2c0       _DIF_SHOWAMPERSAND         1000f2c0     util.obj
 0001:0000e2c8       _DIF_CENTERGROUP           1000f2c8     util.obj
 0001:0000e2d0       _DIF_NOBRACKETS            1000f2d0     util.obj
 0001:0000e2d8       _DIF_MANUALADDHISTORY      1000f2d8     util.obj
 0001:0000e2e0       _DIF_SEPARATOR             1000f2e0     util.obj
 0001:0000e2e8       _DIF_SEPARATOR2            1000f2e8     util.obj
 0001:0000e2f0       _DIF_EDITOR                1000f2f0     util.obj
 0001:0000e2f8       _DIF_LISTNOAMPERSAND       1000f2f8     util.obj
 0001:0000e300       _DIF_LISTNOBOX             1000f300     util.obj
 0001:0000e308       _DIF_HISTORY               1000f308     util.obj
 0001:0000e310       _DIF_BTNNOCLOSE            1000f310     util.obj
 0001:0000e318       _DIF_CENTERTEXT            1000f318     util.obj
 0001:0000e320       _DIF_SEPARATORUSER         1000f320     util.obj
 0001:0000e328       _DIF_SETSHIELD             1000f328     util.obj
 0001:0000e330       _DIF_EDITEXPAND            1000f330     util.obj
 0001:0000e338       _DIF_DROPDOWNLIST          1000f338     util.obj
 0001:0000e340       _DIF_USELASTHISTORY        1000f340     util.obj
 0001:0000e348       _DIF_MASKEDIT              1000f348     util.obj
 0001:0000e350       _DIF_LISTTRACKMOUSE        1000f350     util.obj
 0001:0000e358       _DIF_LISTTRACKMOUSEINFOCUS 1000f358     util.obj
 0001:0000e360       _DIF_SELECTONENTRY         1000f360     util.obj
 0001:0000e368       _DIF_3STATE                1000f368     util.obj
 0001:0000e370       _DIF_EDITPATH              1000f370     util.obj
 0001:0000e378       _DIF_LISTWRAPMODE          1000f378     util.obj
 0001:0000e380       _DIF_NOAUTOCOMPLETE        1000f380     util.obj
 0001:0000e388       _DIF_LISTAUTOHIGHLIGHT     1000f388     util.obj
 0001:0000e390       _DIF_LISTNOCLOSE           1000f390     util.obj
 0001:0000e398       _DIF_EDITPATHEXEC          1000f398     util.obj
 0001:0000e3a0       _DIF_HIDDEN                1000f3a0     util.obj
 0001:0000e3a8       _DIF_READONLY              1000f3a8     util.obj
 0001:0000e3b0       _DIF_NOFOCUS               1000f3b0     util.obj
 0001:0000e3b8       _DIF_DISABLE               1000f3b8     util.obj
 0001:0000e3c0       _DIF_DEFAULTBUTTON         1000f3c0     util.obj
 0001:0000e3c8       _DIF_FOCUS                 1000f3c8     util.obj
 0001:0000e3d0       _DIF_RIGHTTEXT             1000f3d0     util.obj
 0001:0000e3d8       _DIF_WORDWRAP              1000f3d8     util.obj
 0001:0000e3e0       _DIF_NONE                  1000f3e0     util.obj
 0001:0000e3e8       _LIF_SELECTED              1000f3e8     util.obj
 0001:0000e3f0       _LIF_CHECKED               1000f3f0     util.obj
 0001:0000e3f8       _LIF_SEPARATOR             1000f3f8     util.obj
 0001:0000e400       _LIF_DISABLE               1000f400     util.obj
 0001:0000e408       _LIF_GRAYED                1000f408     util.obj
 0001:0000e410       _LIF_HIDDEN                1000f410     util.obj
 0001:0000e418       _LIF_DELETEUSERDATA        1000f418     util.obj
 0001:0000e420       _LIF_NONE                  1000f420     util.obj
 0001:0000e428       _LIFIND_EXACTMATCH         1000f428     util.obj
 0001:0000e430       _LIFIND_NONE               1000f430     util.obj
 0001:0000e438       _LINFO_SHOWNOBOX           1000f438     util.obj
 0001:0000e440       _LINFO_AUTOHIGHLIGHT       1000f440     util.obj
 0001:0000e448       _LINFO_REVERSEHIGHLIGHT    1000f448     util.obj
 0001:0000e450       _LINFO_WRAPMODE            1000f450     util.obj
 0001:0000e458       _LINFO_SHOWAMPERSAND       1000f458     util.obj
 0001:0000e460       _LINFO_NONE                1000f460     util.obj
 0001:0000e468       _FDLG_WARNING              1000f468     util.obj
 0001:0000e470       _FDLG_SMALLDIALOG          1000f470     util.obj
 0001:0000e478       _FDLG_NODRAWSHADOW         1000f478     util.obj
 0001:0000e480       _FDLG_NODRAWPANEL          1000f480     util.obj
 0001:0000e488       _FDLG_KEEPCONSOLETITLE     1000f488     util.obj
 0001:0000e490       _FDLG_NONMODAL             1000f490     util.obj
 0001:0000e498       _FDLG_NONE                 1000f498     util.obj
 0001:0000e4a0       _MIF_SELECTED              1000f4a0     util.obj
 0001:0000e4a8       _MIF_CHECKED               1000f4a8     util.obj
 0001:0000e4b0       _MIF_SEPARATOR             1000f4b0     util.obj
 0001:0000e4b8       _MIF_DISABLE               1000f4b8     util.obj
 0001:0000e4c0       _MIF_GRAYED                1000f4c0     util.obj
 0001:0000e4c8       _MIF_HIDDEN                1000f4c8     util.obj
 0001:0000e4d0       _MIF_NONE                  1000f4d0     util.obj
 0001:0000e4d8       _FMENU_SHOWAMPERSAND       1000f4d8     util.obj
 0001:0000e4e0       _FMENU_WRAPMODE            1000f4e0     util.obj
 0001:0000e4e8       _FMENU_AUTOHIGHLIGHT       1000f4e8     util.obj
 0001:0000e4f0       _FMENU_REVERSEAUTOHIGHLIGHT 1000f4f0     util.obj
 0001:0000e4f8       _FMENU_CHANGECONSOLETITLE  1000f4f8     util.obj
 0001:0000e500       _FMENU_NONE                1000f500     util.obj
 0001:0000e508       _PPIF_SELECTED             1000f508     util.obj
 0001:0000e510       _PPIF_PROCESSDESCR         1000f510     util.obj
 0001:0000e518       _PPIF_NONE                 1000f518     util.obj
 0001:0000e520       _PFLAGS_SHOWHIDDEN         1000f520     util.obj
 0001:0000e528       _PFLAGS_HIGHLIGHT          1000f528     util.obj
 0001:0000e530       _PFLAGS_REVERSESORTORDER   1000f530     util.obj
 0001:0000e538       _PFLAGS_USESORTGROUPS      1000f538     util.obj
 0001:0000e540       _PFLAGS_SELECTEDFIRST      1000f540     util.obj
 0001:0000e548       _PFLAGS_REALNAMES          1000f548     util.obj
 0001:0000e550       _PFLAGS_PANELLEFT          1000f550     util.obj
 0001:0000e558       _PFLAGS_DIRECTORIESFIRST   1000f558     util.obj
 0001:0000e560       _PFLAGS_USECRC32           1000f560     util.obj
 0001:0000e568       _PFLAGS_PLUGIN             1000f568     util.obj
 0001:0000e570       _PFLAGS_VISIBLE            1000f570     util.obj
 0001:0000e578       _PFLAGS_FOCUS              1000f578     util.obj
 0001:0000e580       _PFLAGS_ALTERNATIVENAMES   1000f580     util.obj
 0001:0000e588       _PFLAGS_SHORTCUT           1000f588     util.obj
 0001:0000e590       _PFLAGS_NONE               1000f590     util.obj
 0001:0000e598       _VF_NONMODAL               1000f598     util.obj
 0001:0000e5a0       _VF_DELETEONCLOSE          1000f5a0     util.obj
 0001:0000e5a8       _VF_ENABLE_F6              1000f5a8     util.obj
 0001:0000e5b0       _VF_DISABLEHISTORY         1000f5b0     util.obj
 0001:0000e5b8       _VF_IMMEDIATERETURN        1000f5b8     util.obj
 0001:0000e5c0       _VF_DELETEONLYFILEONCLOSE  1000f5c0     util.obj
 0001:0000e5c8       _VF_NONE                   1000f5c8     util.obj
 0001:0000e5d0       _EF_NONMODAL               1000f5d0     util.obj
 0001:0000e5d8       _EF_CREATENEW              1000f5d8     util.obj
 0001:0000e5e0       _EF_ENABLE_F6              1000f5e0     util.obj
 0001:0000e5e8       _EF_DISABLEHISTORY         1000f5e8     util.obj
 0001:0000e5f0       _EF_DELETEONCLOSE          1000f5f0     util.obj
 0001:0000e5f8       _EF_IMMEDIATERETURN        1000f5f8     util.obj
 0001:0000e600       _EF_DELETEONLYFILEONCLOSE  1000f600     util.obj
 0001:0000e608       _EF_LOCKED                 1000f608     util.obj
 0001:0000e610       _EF_DISABLESAVEPOS         1000f610     util.obj
 0001:0000e618       _EF_OPENMODE_MASK          1000f618     util.obj
 0001:0000e620       _EF_OPENMODE_QUERY         1000f620     util.obj
 0001:0000e628       _EF_OPENMODE_NEWIFOPEN     1000f628     util.obj
 0001:0000e630       _EF_OPENMODE_USEEXISTING   1000f630     util.obj
 0001:0000e638       _EF_OPENMODE_BREAKIFOPEN   1000f638     util.obj
 0001:0000e640       _EF_OPENMODE_RELOADIFOPEN  1000f640     util.obj
 0001:0000e648       _EN_NONE                   1000f648     util.obj
 0001:0000e650       _FHELP_NOSHOWERROR         1000f650     util.obj
 0001:0000e658       _FHELP_SELFHELP            1000f658     util.obj
 0001:0000e660       _FHELP_FARHELP             1000f660     util.obj
 0001:0000e668       _FHELP_CUSTOMFILE          1000f668     util.obj
 0001:0000e670       _FHELP_CUSTOMPATH          1000f670     util.obj
 0001:0000e678       _FHELP_GUID                1000f678     util.obj
 0001:0000e680       _FHELP_USECONTENTS         1000f680     util.obj
 0001:0000e688       _FHELP_NONE                1000f688     util.obj
 0001:0000e690       _KMFLAGS_SILENTCHECK       1000f690     util.obj
 0001:0000e698       _KMFLAGS_NOSENDKEYSTOPLUGINS 1000f698     util.obj
 0001:0000e6a0       _KMFLAGS_ENABLEOUTPUT      1000f6a0     util.obj
 0001:0000e6a8       _KMFLAGS_LANGMASK          1000f6a8     util.obj
 0001:0000e6b0       _KMFLAGS_LUA               1000f6b0     util.obj
 0001:0000e6b8       _KMFLAGS_MOONSCRIPT        1000f6b8     util.obj
 0001:0000e6c0       _KMFLAGS_NONE              1000f6c0     util.obj
 0001:0000e6c8       _AKMFLAGS_NONE             1000f6c8     util.obj
 0001:0000e6d0       _FSETCLR_REDRAW            1000f6d0     util.obj
 0001:0000e6d8       _FSETCLR_NONE              1000f6d8     util.obj
 0001:0000e6e0       _WIF_MODIFIED              1000f6e0     util.obj
 0001:0000e6e8       _WIF_CURRENT               1000f6e8     util.obj
 0001:0000e6f0       _WIF_MODAL                 1000f6f0     util.obj
 0001:0000e6f8       _WIF_NONE                  1000f6f8     util.obj
 0001:0000e700       _VOPT_SAVEFILEPOSITION     1000f700     util.obj
 0001:0000e708       _VOPT_AUTODETECTCODEPAGE   1000f708     util.obj
 0001:0000e710       _VOPT_SHOWTITLEBAR         1000f710     util.obj
 0001:0000e718       _VOPT_SHOWKEYBAR           1000f718     util.obj
 0001:0000e720       _VOPT_SHOWSCROLLBAR        1000f720     util.obj
 0001:0000e728       _VOPT_QUICKVIEW            1000f728     util.obj
 0001:0000e730       _VOPT_NONE                 1000f730     util.obj
 0001:0000e738       _VSMFL_REDRAW              1000f738     util.obj
 0001:0000e740       _VSMFL_NONE                1000f740     util.obj
 0001:0000e748       _VSP_NOREDRAW              1000f748     util.obj
 0001:0000e750       _VSP_PERCENT               1000f750     util.obj
 0001:0000e758       _VSP_RELATIVE              1000f758     util.obj
 0001:0000e760       _VSP_NORETNEWPOS           1000f760     util.obj
 0001:0000e768       _VSP_NONE                  1000f768     util.obj
 0001:0000e770       _VMF_WRAP                  1000f770     util.obj
 0001:0000e778       _VMF_WORDWRAP              1000f778     util.obj
 0001:0000e780       _VMF_NONE                  1000f780     util.obj
 0001:0000e788       _ECF_TABMARKFIRST          1000f788     util.obj
 0001:0000e790       _ECF_TABMARKCURRENT        1000f790     util.obj
 0001:0000e798       _ECF_AUTODELETE            1000f798     util.obj
 0001:0000e7a0       _ECF_NONE                  1000f7a0     util.obj
 0001:0000e7a8       _FIB_ENABLEEMPTY           1000f7a8     util.obj
 0001:0000e7b0       _FIB_PASSWORD              1000f7b0     util.obj
 0001:0000e7b8       _FIB_EXPANDENV             1000f7b8     util.obj
 0001:0000e7c0       _FIB_NOUSELASTHISTORY      1000f7c0     util.obj
 0001:0000e7c8       _FIB_BUTTONS               1000f7c8     util.obj
 0001:0000e7d0       _FIB_NOAMPERSAND           1000f7d0     util.obj
 0001:0000e7d8       _FIB_EDITPATH              1000f7d8     util.obj
 0001:0000e7e0       _FIB_EDITPATHEXEC          1000f7e0     util.obj
 0001:0000e7e8       _FIB_NONE                  1000f7e8     util.obj
 0001:0000e7f0       _FPF_LOADED                1000f7f0     util.obj
 0001:0000e7f8       _FPF_ANSI                  1000f7f8     util.obj
 0001:0000e800       _FPF_NONE                  1000f800     util.obj
 0001:0000e808       _PN_CMPNAME                1000f808     util.obj
 0001:0000e810       _PN_CMPNAMELIST            1000f810     util.obj
 0001:0000e818       _PN_GENERATENAME           1000f818     util.obj
 0001:0000e820       _PN_CHECKMASK              1000f820     util.obj
 0001:0000e828       _PN_SKIPPATH               1000f828     util.obj
 0001:0000e830       _PN_SHOWERRORMESSAGE       1000f830     util.obj
 0001:0000e838       _PN_NONE                   1000f838     util.obj
 0001:0000e840       _XLAT_SWITCHKEYBLAYOUT     1000f840     util.obj
 0001:0000e848       _XLAT_SWITCHKEYBBEEP       1000f848     util.obj
 0001:0000e850       _XLAT_USEKEYBLAYOUTNAME    1000f850     util.obj
 0001:0000e858       _XLAT_CONVERTALLCMDLINE    1000f858     util.obj
 0001:0000e860       _XLAT_NONE                 1000f860     util.obj
 0001:0000e868       _FRS_RETUPDIR              1000f868     util.obj
 0001:0000e870       _FRS_RECUR                 1000f870     util.obj
 0001:0000e878       _FRS_SCANSYMLINK           1000f878     util.obj
 0001:0000e880       _FRS_NONE                  1000f880     util.obj
 0001:0000e888       _MLF_SHOWERRMSG            1000f888     util.obj
 0001:0000e890       _MLF_DONOTUPDATEPANEL      1000f890     util.obj
 0001:0000e898       _MLF_HOLDTARGET            1000f898     util.obj
 0001:0000e8a0       _MLF_NONE                  1000f8a0     util.obj
 0001:0000e8a8       _FFFS_COMMAS               1000f8a8     util.obj
 0001:0000e8b0       _FFFS_FLOATSIZE            1000f8b0     util.obj
 0001:0000e8b8       _FFFS_SHOWBYTESINDEX       1000f8b8     util.obj
 0001:0000e8c0       _FFFS_ECONOMIC             1000f8c0     util.obj
 0001:0000e8c8       _FFFS_THOUSAND             1000f8c8     util.obj
 0001:0000e8d0       _FFFS_MINSIZEINDEX         1000f8d0     util.obj
 0001:0000e8d8       _FFFS_MINSIZEINDEX_MASK    1000f8d8     util.obj
 0001:0000e8e0       _FFFS_NONE                 1000f8e0     util.obj
 0001:0000e8e8       _PF_PRELOAD                1000f8e8     util.obj
 0001:0000e8f0       _PF_DISABLEPANELS          1000f8f0     util.obj
 0001:0000e8f8       _PF_EDITOR                 1000f8f8     util.obj
 0001:0000e900       _PF_VIEWER                 1000f900     util.obj
 0001:0000e908       _PF_FULLCMDLINE            1000f908     util.obj
 0001:0000e910       _PF_DIALOG                 1000f910     util.obj
 0001:0000e918       _PF_NONE                   1000f918     util.obj
 0001:0000e920       _IPLFLAGS_SEPARATOR        1000f920     util.obj
 0001:0000e928       _IPLFLAGS_NONE             1000f928     util.obj
 0001:0000e930       _PMFLAGS_FULLSCREEN        1000f930     util.obj
 0001:0000e938       _PMFLAGS_DETAILEDSTATUS    1000f938     util.obj
 0001:0000e940       _PMFLAGS_ALIGNEXTENSIONS   1000f940     util.obj
 0001:0000e948       _PMFLAGS_CASECONVERSION    1000f948     util.obj
 0001:0000e950       _PMFLAGS_NONE              1000f950     util.obj
 0001:0000e958       _OPIF_DISABLEFILTER        1000f958     util.obj
 0001:0000e960       _OPIF_DISABLESORTGROUPS    1000f960     util.obj
 0001:0000e968       _OPIF_DISABLEHIGHLIGHTING  1000f968     util.obj
 0001:0000e970       _OPIF_ADDDOTS              1000f970     util.obj
 0001:0000e978       _OPIF_RAWSELECTION         1000f978     util.obj
 0001:0000e980       _OPIF_REALNAMES            1000f980     util.obj
 0001:0000e988       _OPIF_SHOWNAMESONLY        1000f988     util.obj
 0001:0000e990       _OPIF_SHOWRIGHTALIGNNAMES  1000f990     util.obj
 0001:0000e998       _OPIF_SHOWPRESERVECASE     1000f998     util.obj
 0001:0000e9a0       _OPIF_COMPAREFATTIME       1000f9a0     util.obj
 0001:0000e9a8       _OPIF_EXTERNALGET          1000f9a8     util.obj
 0001:0000e9b0       _OPIF_EXTERNALPUT          1000f9b0     util.obj
 0001:0000e9b8       _OPIF_EXTERNALDELETE       1000f9b8     util.obj
 0001:0000e9c0       _OPIF_EXTERNALMKDIR        1000f9c0     util.obj
 0001:0000e9c8       _OPIF_USEATTRHIGHLIGHTING  1000f9c8     util.obj
 0001:0000e9d0       _OPIF_USECRC32             1000f9d0     util.obj
 0001:0000e9d8       _OPIF_USEFREESIZE          1000f9d8     util.obj
 0001:0000e9e0       _OPIF_SHORTCUT             1000f9e0     util.obj
 0001:0000e9e8       _OPIF_NONE                 1000f9e8     util.obj
 0001:0000e9f0       _OPM_SILENT                1000f9f0     util.obj
 0001:0000e9f8       _OPM_FIND                  1000f9f8     util.obj
 0001:0000ea00       _OPM_VIEW                  1000fa00     util.obj
 0001:0000ea08       _OPM_EDIT                  1000fa08     util.obj
 0001:0000ea10       _OPM_TOPLEVEL              1000fa10     util.obj
 0001:0000ea18       _OPM_DESCR                 1000fa18     util.obj
 0001:0000ea20       _OPM_QUICKVIEW             1000fa20     util.obj
 0001:0000ea28       _OPM_PGDN                  1000fa28     util.obj
 0001:0000ea30       _OPM_COMMANDS              1000fa30     util.obj
 0001:0000ea38       _OPM_NONE                  1000fa38     util.obj
 0001:0000ea40       _FOSF_ACTIVE               1000fa40     util.obj
 0001:0000ea48       _FOSF_NONE                 1000fa48     util.obj
 0001:0000ea50       _PCIF_NONE                 1000fa50     util.obj
 0001:0000ea58       _FarGuid                   1000fa58     util.obj
 0001:0000eae8       _FCF_FG_4BIT               1000fae8     win.obj
 0001:0000eaf0       _FCF_BG_4BIT               1000faf0     win.obj
 0001:0000eaf8       _FCF_4BITMASK              1000faf8     win.obj
 0001:0000eb00       _FCF_RAWATTR_MASK          1000fb00     win.obj
 0001:0000eb08       _FCF_EXTENDEDFLAGS         1000fb08     win.obj
 0001:0000eb10       _FCF_FG_BOLD               1000fb10     win.obj
 0001:0000eb18       _FCF_FG_ITALIC             1000fb18     win.obj
 0001:0000eb20       _FCF_FG_UNDERLINE          1000fb20     win.obj
 0001:0000eb28       _FCF_STYLEMASK             1000fb28     win.obj
 0001:0000eb30       _FCF_NONE                  1000fb30     win.obj
 0001:0000eb38       _CDF_NONE                  1000fb38     win.obj
 0001:0000eb40       _FMSG_WARNING              1000fb40     win.obj
 0001:0000eb48       _FMSG_ERRORTYPE            1000fb48     win.obj
 0001:0000eb50       _FMSG_KEEPBACKGROUND       1000fb50     win.obj
 0001:0000eb58       _FMSG_LEFTALIGN            1000fb58     win.obj
 0001:0000eb60       _FMSG_ALLINONE             1000fb60     win.obj
 0001:0000eb68       _FMSG_MB_OK                1000fb68     win.obj
 0001:0000eb70       _FMSG_MB_OKCANCEL          1000fb70     win.obj
 0001:0000eb78       _FMSG_MB_ABORTRETRYIGNORE  1000fb78     win.obj
 0001:0000eb80       _FMSG_MB_YESNO             1000fb80     win.obj
 0001:0000eb88       _FMSG_MB_YESNOCANCEL       1000fb88     win.obj
 0001:0000eb90       _FMSG_MB_RETRYCANCEL       1000fb90     win.obj
 0001:0000eb98       _FMSG_NONE                 1000fb98     win.obj
 0001:0000eba0       _DIF_BOXCOLOR              1000fba0     win.obj
 0001:0000eba8       _DIF_GROUP                 1000fba8     win.obj
 0001:0000ebb0       _DIF_LEFTTEXT              1000fbb0     win.obj
 0001:0000ebb8       _DIF_MOVESELECT            1000fbb8     win.obj
 0001:0000ebc0       _DIF_SHOWAMPERSAND         1000fbc0     win.obj
 0001:0000ebc8       _DIF_CENTERGROUP           1000fbc8     win.obj
 0001:0000ebd0       _DIF_NOBRACKETS            1000fbd0     win.obj
 0001:0000ebd8       _DIF_MANUALADDHISTORY      1000fbd8     win.obj
 0001:0000ebe0       _DIF_SEPARATOR             1000fbe0     win.obj
 0001:0000ebe8       _DIF_SEPARATOR2            1000fbe8     win.obj
 0001:0000ebf0       _DIF_EDITOR                1000fbf0     win.obj
 0001:0000ebf8       _DIF_LISTNOAMPERSAND       1000fbf8     win.obj
 0001:0000ec00       _DIF_LISTNOBOX             1000fc00     win.obj
 0001:0000ec08       _DIF_HISTORY               1000fc08     win.obj
 0001:0000ec10       _DIF_BTNNOCLOSE            1000fc10     win.obj
 0001:0000ec18       _DIF_CENTERTEXT            1000fc18     win.obj
 0001:0000ec20       _DIF_SEPARATORUSER         1000fc20     win.obj
 0001:0000ec28       _DIF_SETSHIELD             1000fc28     win.obj
 0001:0000ec30       _DIF_EDITEXPAND            1000fc30     win.obj
 0001:0000ec38       _DIF_DROPDOWNLIST          1000fc38     win.obj
 0001:0000ec40       _DIF_USELASTHISTORY        1000fc40     win.obj
 0001:0000ec48       _DIF_MASKEDIT              1000fc48     win.obj
 0001:0000ec50       _DIF_LISTTRACKMOUSE        1000fc50     win.obj
 0001:0000ec58       _DIF_LISTTRACKMOUSEINFOCUS 1000fc58     win.obj
 0001:0000ec60       _DIF_SELECTONENTRY         1000fc60     win.obj
 0001:0000ec68       _DIF_3STATE                1000fc68     win.obj
 0001:0000ec70       _DIF_EDITPATH              1000fc70     win.obj
 0001:0000ec78       _DIF_LISTWRAPMODE          1000fc78     win.obj
 0001:0000ec80       _DIF_NOAUTOCOMPLETE        1000fc80     win.obj
 0001:0000ec88       _DIF_LISTAUTOHIGHLIGHT     1000fc88     win.obj
 0001:0000ec90       _DIF_LISTNOCLOSE           1000fc90     win.obj
 0001:0000ec98       _DIF_EDITPATHEXEC          1000fc98     win.obj
 0001:0000eca0       _DIF_HIDDEN                1000fca0     win.obj
 0001:0000eca8       _DIF_READONLY              1000fca8     win.obj
 0001:0000ecb0       _DIF_NOFOCUS               1000fcb0     win.obj
 0001:0000ecb8       _DIF_DISABLE               1000fcb8     win.obj
 0001:0000ecc0       _DIF_DEFAULTBUTTON         1000fcc0     win.obj
 0001:0000ecc8       _DIF_FOCUS                 1000fcc8     win.obj
 0001:0000ecd0       _DIF_RIGHTTEXT             1000fcd0     win.obj
 0001:0000ecd8       _DIF_WORDWRAP              1000fcd8     win.obj
 0001:0000ece0       _DIF_NONE                  1000fce0     win.obj
 0001:0000ece8       _LIF_SELECTED              1000fce8     win.obj
 0001:0000ecf0       _LIF_CHECKED               1000fcf0     win.obj
 0001:0000ecf8       _LIF_SEPARATOR             1000fcf8     win.obj
 0001:0000ed00       _LIF_DISABLE               1000fd00     win.obj
 0001:0000ed08       _LIF_GRAYED                1000fd08     win.obj
 0001:0000ed10       _LIF_HIDDEN                1000fd10     win.obj
 0001:0000ed18       _LIF_DELETEUSERDATA        1000fd18     win.obj
 0001:0000ed20       _LIF_NONE                  1000fd20     win.obj
 0001:0000ed28       _LIFIND_EXACTMATCH         1000fd28     win.obj
 0001:0000ed30       _LIFIND_NONE               1000fd30     win.obj
 0001:0000ed38       _LINFO_SHOWNOBOX           1000fd38     win.obj
 0001:0000ed40       _LINFO_AUTOHIGHLIGHT       1000fd40     win.obj
 0001:0000ed48       _LINFO_REVERSEHIGHLIGHT    1000fd48     win.obj
 0001:0000ed50       _LINFO_WRAPMODE            1000fd50     win.obj
 0001:0000ed58       _LINFO_SHOWAMPERSAND       1000fd58     win.obj
 0001:0000ed60       _LINFO_NONE                1000fd60     win.obj
 0001:0000ed68       _FDLG_WARNING              1000fd68     win.obj
 0001:0000ed70       _FDLG_SMALLDIALOG          1000fd70     win.obj
 0001:0000ed78       _FDLG_NODRAWSHADOW         1000fd78     win.obj
 0001:0000ed80       _FDLG_NODRAWPANEL          1000fd80     win.obj
 0001:0000ed88       _FDLG_KEEPCONSOLETITLE     1000fd88     win.obj
 0001:0000ed90       _FDLG_NONMODAL             1000fd90     win.obj
 0001:0000ed98       _FDLG_NONE                 1000fd98     win.obj
 0001:0000eda0       _MIF_SELECTED              1000fda0     win.obj
 0001:0000eda8       _MIF_CHECKED               1000fda8     win.obj
 0001:0000edb0       _MIF_SEPARATOR             1000fdb0     win.obj
 0001:0000edb8       _MIF_DISABLE               1000fdb8     win.obj
 0001:0000edc0       _MIF_GRAYED                1000fdc0     win.obj
 0001:0000edc8       _MIF_HIDDEN                1000fdc8     win.obj
 0001:0000edd0       _MIF_NONE                  1000fdd0     win.obj
 0001:0000edd8       _FMENU_SHOWAMPERSAND       1000fdd8     win.obj
 0001:0000ede0       _FMENU_WRAPMODE            1000fde0     win.obj
 0001:0000ede8       _FMENU_AUTOHIGHLIGHT       1000fde8     win.obj
 0001:0000edf0       _FMENU_REVERSEAUTOHIGHLIGHT 1000fdf0     win.obj
 0001:0000edf8       _FMENU_CHANGECONSOLETITLE  1000fdf8     win.obj
 0001:0000ee00       _FMENU_NONE                1000fe00     win.obj
 0001:0000ee08       _PPIF_SELECTED             1000fe08     win.obj
 0001:0000ee10       _PPIF_PROCESSDESCR         1000fe10     win.obj
 0001:0000ee18       _PPIF_NONE                 1000fe18     win.obj
 0001:0000ee20       _PFLAGS_SHOWHIDDEN         1000fe20     win.obj
 0001:0000ee28       _PFLAGS_HIGHLIGHT          1000fe28     win.obj
 0001:0000ee30       _PFLAGS_REVERSESORTORDER   1000fe30     win.obj
 0001:0000ee38       _PFLAGS_USESORTGROUPS      1000fe38     win.obj
 0001:0000ee40       _PFLAGS_SELECTEDFIRST      1000fe40     win.obj
 0001:0000ee48       _PFLAGS_REALNAMES          1000fe48     win.obj
 0001:0000ee50       _PFLAGS_PANELLEFT          1000fe50     win.obj
 0001:0000ee58       _PFLAGS_DIRECTORIESFIRST   1000fe58     win.obj
 0001:0000ee60       _PFLAGS_USECRC32           1000fe60     win.obj
 0001:0000ee68       _PFLAGS_PLUGIN             1000fe68     win.obj
 0001:0000ee70       _PFLAGS_VISIBLE            1000fe70     win.obj
 0001:0000ee78       _PFLAGS_FOCUS              1000fe78     win.obj
 0001:0000ee80       _PFLAGS_ALTERNATIVENAMES   1000fe80     win.obj
 0001:0000ee88       _PFLAGS_SHORTCUT           1000fe88     win.obj
 0001:0000ee90       _PFLAGS_NONE               1000fe90     win.obj
 0001:0000ee98       _VF_NONMODAL               1000fe98     win.obj
 0001:0000eea0       _VF_DELETEONCLOSE          1000fea0     win.obj
 0001:0000eea8       _VF_ENABLE_F6              1000fea8     win.obj
 0001:0000eeb0       _VF_DISABLEHISTORY         1000feb0     win.obj
 0001:0000eeb8       _VF_IMMEDIATERETURN        1000feb8     win.obj
 0001:0000eec0       _VF_DELETEONLYFILEONCLOSE  1000fec0     win.obj
 0001:0000eec8       _VF_NONE                   1000fec8     win.obj
 0001:0000eed0       _EF_NONMODAL               1000fed0     win.obj
 0001:0000eed8       _EF_CREATENEW              1000fed8     win.obj
 0001:0000eee0       _EF_ENABLE_F6              1000fee0     win.obj
 0001:0000eee8       _EF_DISABLEHISTORY         1000fee8     win.obj
 0001:0000eef0       _EF_DELETEONCLOSE          1000fef0     win.obj
 0001:0000eef8       _EF_IMMEDIATERETURN        1000fef8     win.obj
 0001:0000ef00       _EF_DELETEONLYFILEONCLOSE  1000ff00     win.obj
 0001:0000ef08       _EF_LOCKED                 1000ff08     win.obj
 0001:0000ef10       _EF_DISABLESAVEPOS         1000ff10     win.obj
 0001:0000ef18       _EF_OPENMODE_MASK          1000ff18     win.obj
 0001:0000ef20       _EF_OPENMODE_QUERY         1000ff20     win.obj
 0001:0000ef28       _EF_OPENMODE_NEWIFOPEN     1000ff28     win.obj
 0001:0000ef30       _EF_OPENMODE_USEEXISTING   1000ff30     win.obj
 0001:0000ef38       _EF_OPENMODE_BREAKIFOPEN   1000ff38     win.obj
 0001:0000ef40       _EF_OPENMODE_RELOADIFOPEN  1000ff40     win.obj
 0001:0000ef48       _EN_NONE                   1000ff48     win.obj
 0001:0000ef50       _FHELP_NOSHOWERROR         1000ff50     win.obj
 0001:0000ef58       _FHELP_SELFHELP            1000ff58     win.obj
 0001:0000ef60       _FHELP_FARHELP             1000ff60     win.obj
 0001:0000ef68       _FHELP_CUSTOMFILE          1000ff68     win.obj
 0001:0000ef70       _FHELP_CUSTOMPATH          1000ff70     win.obj
 0001:0000ef78       _FHELP_GUID                1000ff78     win.obj
 0001:0000ef80       _FHELP_USECONTENTS         1000ff80     win.obj
 0001:0000ef88       _FHELP_NONE                1000ff88     win.obj
 0001:0000ef90       _KMFLAGS_SILENTCHECK       1000ff90     win.obj
 0001:0000ef98       _KMFLAGS_NOSENDKEYSTOPLUGINS 1000ff98     win.obj
 0001:0000efa0       _KMFLAGS_ENABLEOUTPUT      1000ffa0     win.obj
 0001:0000efa8       _KMFLAGS_LANGMASK          1000ffa8     win.obj
 0001:0000efb0       _KMFLAGS_LUA               1000ffb0     win.obj
 0001:0000efb8       _KMFLAGS_MOONSCRIPT        1000ffb8     win.obj
 0001:0000efc0       _KMFLAGS_NONE              1000ffc0     win.obj
 0001:0000efc8       _AKMFLAGS_NONE             1000ffc8     win.obj
 0001:0000efd0       _FSETCLR_REDRAW            1000ffd0     win.obj
 0001:0000efd8       _FSETCLR_NONE              1000ffd8     win.obj
 0001:0000efe0       _WIF_MODIFIED              1000ffe0     win.obj
 0001:0000efe8       _WIF_CURRENT               1000ffe8     win.obj
 0001:0000eff0       _WIF_MODAL                 1000fff0     win.obj
 0001:0000eff8       _WIF_NONE                  1000fff8     win.obj
 0001:0000f000       _VOPT_SAVEFILEPOSITION     10010000     win.obj
 0001:0000f008       _VOPT_AUTODETECTCODEPAGE   10010008     win.obj
 0001:0000f010       _VOPT_SHOWTITLEBAR         10010010     win.obj
 0001:0000f018       _VOPT_SHOWKEYBAR           10010018     win.obj
 0001:0000f020       _VOPT_SHOWSCROLLBAR        10010020     win.obj
 0001:0000f028       _VOPT_QUICKVIEW            10010028     win.obj
 0001:0000f030       _VOPT_NONE                 10010030     win.obj
 0001:0000f038       _VSMFL_REDRAW              10010038     win.obj
 0001:0000f040       _VSMFL_NONE                10010040     win.obj
 0001:0000f048       _VSP_NOREDRAW              10010048     win.obj
 0001:0000f050       _VSP_PERCENT               10010050     win.obj
 0001:0000f058       _VSP_RELATIVE              10010058     win.obj
 0001:0000f060       _VSP_NORETNEWPOS           10010060     win.obj
 0001:0000f068       _VSP_NONE                  10010068     win.obj
 0001:0000f070       _VMF_WRAP                  10010070     win.obj
 0001:0000f078       _VMF_WORDWRAP              10010078     win.obj
 0001:0000f080       _VMF_NONE                  10010080     win.obj
 0001:0000f088       _ECF_TABMARKFIRST          10010088     win.obj
 0001:0000f090       _ECF_TABMARKCURRENT        10010090     win.obj
 0001:0000f098       _ECF_AUTODELETE            10010098     win.obj
 0001:0000f0a0       _ECF_NONE                  100100a0     win.obj
 0001:0000f0a8       _FIB_ENABLEEMPTY           100100a8     win.obj
 0001:0000f0b0       _FIB_PASSWORD              100100b0     win.obj
 0001:0000f0b8       _FIB_EXPANDENV             100100b8     win.obj
 0001:0000f0c0       _FIB_NOUSELASTHISTORY      100100c0     win.obj
 0001:0000f0c8       _FIB_BUTTONS               100100c8     win.obj
 0001:0000f0d0       _FIB_NOAMPERSAND           100100d0     win.obj
 0001:0000f0d8       _FIB_EDITPATH              100100d8     win.obj
 0001:0000f0e0       _FIB_EDITPATHEXEC          100100e0     win.obj
 0001:0000f0e8       _FIB_NONE                  100100e8     win.obj
 0001:0000f0f0       _FPF_LOADED                100100f0     win.obj
 0001:0000f0f8       _FPF_ANSI                  100100f8     win.obj
 0001:0000f100       _FPF_NONE                  10010100     win.obj
 0001:0000f108       _PN_CMPNAME                10010108     win.obj
 0001:0000f110       _PN_CMPNAMELIST            10010110     win.obj
 0001:0000f118       _PN_GENERATENAME           10010118     win.obj
 0001:0000f120       _PN_CHECKMASK              10010120     win.obj
 0001:0000f128       _PN_SKIPPATH               10010128     win.obj
 0001:0000f130       _PN_SHOWERRORMESSAGE       10010130     win.obj
 0001:0000f138       _PN_NONE                   10010138     win.obj
 0001:0000f140       _XLAT_SWITCHKEYBLAYOUT     10010140     win.obj
 0001:0000f148       _XLAT_SWITCHKEYBBEEP       10010148     win.obj
 0001:0000f150       _XLAT_USEKEYBLAYOUTNAME    10010150     win.obj
 0001:0000f158       _XLAT_CONVERTALLCMDLINE    10010158     win.obj
 0001:0000f160       _XLAT_NONE                 10010160     win.obj
 0001:0000f168       _FRS_RETUPDIR              10010168     win.obj
 0001:0000f170       _FRS_RECUR                 10010170     win.obj
 0001:0000f178       _FRS_SCANSYMLINK           10010178     win.obj
 0001:0000f180       _FRS_NONE                  10010180     win.obj
 0001:0000f188       _MLF_SHOWERRMSG            10010188     win.obj
 0001:0000f190       _MLF_DONOTUPDATEPANEL      10010190     win.obj
 0001:0000f198       _MLF_HOLDTARGET            10010198     win.obj
 0001:0000f1a0       _MLF_NONE                  100101a0     win.obj
 0001:0000f1a8       _FFFS_COMMAS               100101a8     win.obj
 0001:0000f1b0       _FFFS_FLOATSIZE            100101b0     win.obj
 0001:0000f1b8       _FFFS_SHOWBYTESINDEX       100101b8     win.obj
 0001:0000f1c0       _FFFS_ECONOMIC             100101c0     win.obj
 0001:0000f1c8       _FFFS_THOUSAND             100101c8     win.obj
 0001:0000f1d0       _FFFS_MINSIZEINDEX         100101d0     win.obj
 0001:0000f1d8       _FFFS_MINSIZEINDEX_MASK    100101d8     win.obj
 0001:0000f1e0       _FFFS_NONE                 100101e0     win.obj
 0001:0000f1e8       _PF_PRELOAD                100101e8     win.obj
 0001:0000f1f0       _PF_DISABLEPANELS          100101f0     win.obj
 0001:0000f1f8       _PF_EDITOR                 100101f8     win.obj
 0001:0000f200       _PF_VIEWER                 10010200     win.obj
 0001:0000f208       _PF_FULLCMDLINE            10010208     win.obj
 0001:0000f210       _PF_DIALOG                 10010210     win.obj
 0001:0000f218       _PF_NONE                   10010218     win.obj
 0001:0000f220       _IPLFLAGS_SEPARATOR        10010220     win.obj
 0001:0000f228       _IPLFLAGS_NONE             10010228     win.obj
 0001:0000f230       _PMFLAGS_FULLSCREEN        10010230     win.obj
 0001:0000f238       _PMFLAGS_DETAILEDSTATUS    10010238     win.obj
 0001:0000f240       _PMFLAGS_ALIGNEXTENSIONS   10010240     win.obj
 0001:0000f248       _PMFLAGS_CASECONVERSION    10010248     win.obj
 0001:0000f250       _PMFLAGS_NONE              10010250     win.obj
 0001:0000f258       _OPIF_DISABLEFILTER        10010258     win.obj
 0001:0000f260       _OPIF_DISABLESORTGROUPS    10010260     win.obj
 0001:0000f268       _OPIF_DISABLEHIGHLIGHTING  10010268     win.obj
 0001:0000f270       _OPIF_ADDDOTS              10010270     win.obj
 0001:0000f278       _OPIF_RAWSELECTION         10010278     win.obj
 0001:0000f280       _OPIF_REALNAMES            10010280     win.obj
 0001:0000f288       _OPIF_SHOWNAMESONLY        10010288     win.obj
 0001:0000f290       _OPIF_SHOWRIGHTALIGNNAMES  10010290     win.obj
 0001:0000f298       _OPIF_SHOWPRESERVECASE     10010298     win.obj
 0001:0000f2a0       _OPIF_COMPAREFATTIME       100102a0     win.obj
 0001:0000f2a8       _OPIF_EXTERNALGET          100102a8     win.obj
 0001:0000f2b0       _OPIF_EXTERNALPUT          100102b0     win.obj
 0001:0000f2b8       _OPIF_EXTERNALDELETE       100102b8     win.obj
 0001:0000f2c0       _OPIF_EXTERNALMKDIR        100102c0     win.obj
 0001:0000f2c8       _OPIF_USEATTRHIGHLIGHTING  100102c8     win.obj
 0001:0000f2d0       _OPIF_USECRC32             100102d0     win.obj
 0001:0000f2d8       _OPIF_USEFREESIZE          100102d8     win.obj
 0001:0000f2e0       _OPIF_SHORTCUT             100102e0     win.obj
 0001:0000f2e8       _OPIF_NONE                 100102e8     win.obj
 0001:0000f2f0       _OPM_SILENT                100102f0     win.obj
 0001:0000f2f8       _OPM_FIND                  100102f8     win.obj
 0001:0000f300       _OPM_VIEW                  10010300     win.obj
 0001:0000f308       _OPM_EDIT                  10010308     win.obj
 0001:0000f310       _OPM_TOPLEVEL              10010310     win.obj
 0001:0000f318       _OPM_DESCR                 10010318     win.obj
 0001:0000f320       _OPM_QUICKVIEW             10010320     win.obj
 0001:0000f328       _OPM_PGDN                  10010328     win.obj
 0001:0000f330       _OPM_COMMANDS              10010330     win.obj
 0001:0000f338       _OPM_NONE                  10010338     win.obj
 0001:0000f340       _FOSF_ACTIVE               10010340     win.obj
 0001:0000f348       _FOSF_NONE                 10010348     win.obj
 0001:0000f350       _PCIF_NONE                 10010350     win.obj
 0001:0000f358       _FarGuid                   10010358     win.obj
 0001:0000f810       ?kernel32@@3QB_WB          10010810     vc_crt_fix_impl.obj
 0001:0000f93c       _GS_ExceptionPointers      1001093c     LIBCMT:gs_report.obj
 0001:0000f944       ?module_names@?A0x9a4b7766@@3QBQB_WB 10010944     libvcruntime:winapi_downlevel.obj
 0001:0000f9fc       ?candidate_modules@?1??try_get_FlsAlloc@@YAP6GKP6GXPAX@Z@ZXZ@4QBW4module_id@?A0x9a4b7766@@B 100109fc     libvcruntime:winapi_downlevel.obj
 0001:0000fa10       ?candidate_modules@?1??try_get_FlsFree@@YAP6GHK@ZXZ@4QBW4module_id@?A0x9a4b7766@@B 10010a10     libvcruntime:winapi_downlevel.obj
 0001:0000fa20       ?candidate_modules@?1??try_get_FlsGetValue@@YAP6GPAXK@ZXZ@4QBW4module_id@?A0x9a4b7766@@B 10010a20     libvcruntime:winapi_downlevel.obj
 0001:0000fa34       ?candidate_modules@?1??try_get_FlsSetValue@@YAP6GHKPAX@ZXZ@4QBW4module_id@?A0x9a4b7766@@B 10010a34     libvcruntime:winapi_downlevel.obj
 0001:0000fa48       ?candidate_modules@?1??try_get_InitializeCriticalSectionEx@@YAP6GHPAU_RTL_CRITICAL_SECTION@@KK@ZXZ@4QBW4module_id@?A0x9a4b7766@@B 10010a48     libvcruntime:winapi_downlevel.obj
 0001:0000fa70       ?tokenTable@@3QBQBDB       10010a70     libvcruntime:undname.obj
 0001:0000faac       ?rttiTable@@3QBQBDB        10010aac     libvcruntime:undname.obj
 0001:0000fac0       ?nameTable@@3QBQBDB        10010ac0     libvcruntime:undname.obj
 0001:00010270       ?errtable@@3QBUerrentry@?A0x31fdb9ec@@B 10011270     libucrt:errno.obj
 0001:00010410       ?default_cmd_exe@?1???$common_popen_nolock@_W@@YAPAU_iobuf@@QB_W0HAAY01H@Z@4QB_WB 10011410     libucrt:popen.obj
 0001:00010420       ?slash_c@?1???$common_popen_nolock@_W@@YAPAU_iobuf@@QB_W0HAAY01H@Z@4QB_WB 10011420     libucrt:popen.obj
 0001:0001042c       ?comspec_name@?1???$get_comspec@_W@@YAPB_WXZ@4QB_WB 1001142c     libucrt:popen.obj
 0001:0001043c       ?backslash@?L@???$get_executable_path@_W@@YAPB_WQB_W@Z@4QB_WB 1001143c     libucrt:popen.obj
 0001:00010440       ?path_name@?1???$get_path@_W@@YAPB_WXZ@4QB_WB 10011440     libucrt:popen.obj
 0001:00011020       ?comspec_name@?1???$common_system@_W@@YAHQB_W@Z@4QB_WB 10012020     libucrt:system.obj
 0001:00011030       ?cmd_exe@?1???$common_system@_W@@YAHQB_W@Z@4QB_WB 10012030     libucrt:system.obj
 0001:00011040       ?slash_c@?1???$common_system@_W@@YAHQB_W@Z@4QB_WB 10012040     libucrt:system.obj
 0001:00011110       ___acrt_initializers       10012110     libucrt:initialization.obj
 0001:000116d0       _over                      100126d0     libucrt:fpctrl.obj
 0001:000116dc       _under                     100126dc     libucrt:fpctrl.obj
 0001:00011ad8       ?module_names@?A0x391cf84c@@3QBQB_WB 10012ad8     libucrt:winapi_thunks.obj
 0001:00011f40       ?candidate_modules@?1??try_get_AreFileApisANSI@@YAP6GHXZXZ@4QBW4module_id@?A0x391cf84c@@B 10012f40     libucrt:winapi_thunks.obj
 0001:00011f54       ?candidate_modules@?1??try_get_CompareStringEx@@YAP6GHPB_WK0H0HPAU_nlsversioninfo@@PAXJ@ZXZ@4QBW4module_id@?A0x391cf84c@@B 10012f54     libucrt:winapi_thunks.obj
 0001:00011f6c       ?candidate_modules@?1??try_get_FlsAlloc@@YAP6GKP6GXPAX@Z@ZXZ@4QBW4module_id@?A0x391cf84c@@B 10012f6c     libucrt:winapi_thunks.obj
 0001:00011f74       ?candidate_modules@?1??try_get_FlsFree@@YAP6GHK@ZXZ@4QBW4module_id@?A0x391cf84c@@B 10012f74     libucrt:winapi_thunks.obj
 0001:00011f7c       ?candidate_modules@?1??try_get_FlsGetValue@@YAP6GPAXK@ZXZ@4QBW4module_id@?A0x391cf84c@@B 10012f7c     libucrt:winapi_thunks.obj
 0001:00011f84       ?candidate_modules@?1??try_get_FlsSetValue@@YAP6GHKPAX@ZXZ@4QBW4module_id@?A0x391cf84c@@B 10012f84     libucrt:winapi_thunks.obj
 0001:00011f8c       ?candidate_modules@?1??try_get_InitializeCriticalSectionEx@@YAP6GHPAU_RTL_CRITICAL_SECTION@@KK@ZXZ@4QBW4module_id@?A0x391cf84c@@B 10012f8c     libucrt:winapi_thunks.obj
 0001:00011f94       ?candidate_modules@?1??try_get_LCMapStringEx@@YAP6GHPB_WK0HPA_WHPAU_nlsversioninfo@@PAXJ@ZXZ@4QBW4module_id@?A0x391cf84c@@B 10012f94     libucrt:winapi_thunks.obj
 0001:00011fac       ?candidate_modules@?1??try_get_LocaleNameToLCID@@YAP6GKPB_WK@ZXZ@4QBW4module_id@?A0x391cf84c@@B 10012fac     libucrt:winapi_thunks.obj
 0001:00011fc8       ?candidate_modules@?1??try_get_AppPolicyGetProcessTerminationMethod@@YAP6GJPAXPAW4AppPolicyProcessTerminationMethod@@@ZXZ@4QBW4module_id@?A0x391cf84c@@B 10012fc8     libucrt:winapi_thunks.obj
 0001:00012800       ?dot_slash@?CB@???$common_spawnv@_W@@YAHHQB_WQBQB_W1@Z@4QB_WB 10013800     libucrt:spawnv.obj
 0001:00012808       ?extensions@?CP@???$common_spawnv@_W@@YAHHQB_WQBQB_W1@Z@4QAY04$$CB_WA 10013808     libucrt:spawnv.obj
 0001:00012830       ?_mb_locale_names@@3QBQB_WB 10013830     libucrt:mbctype.obj
 0001:00012898       ?LcidToLocaleNameTable@?A0x881e4c05@@3QBULcidToLocaleName@1@B 10013898     libucrt:lcidtoname_downlevel.obj
 0001:000139b8       ?LocaleNameToIndexTable@?A0x881e4c05@@3QBULocaleNameIndex@1@B 100149b8     libucrt:lcidtoname_downlevel.obj
 0001:00014908       ?equal_sign@?BD@???$construct_environment_block@_W@@YAHQBQB_WQAPA_W@Z@4QB_WB 10015908     libucrt:cenvarg.obj
 0001:00014910       LOG_name                   10015910     libucrt:log10_impl.obj
 0001:00014920       _One                       10015920     libucrt:ceil_pentium4.obj
 0001:00014930       _Bns                       10015930     libucrt:ceil_pentium4.obj
 0001:00014940       _Zero                      10015940     libucrt:ceil_pentium4.obj
 0001:00014950       _S                         10015950     libucrt:ceil_pentium4.obj
 0001:00014960       _NegZero                   10015960     libucrt:ceil_pentium4.obj
 0001:00014980       emask                      10015980     libucrt:log10_pentium4.obj
 0001:00014990       CC                         10015990     libucrt:log10_pentium4.obj
 0001:000149a0       Magic                      100159a0     libucrt:log10_pentium4.obj
 0001:000149b0       hi_mask                    100159b0     libucrt:log10_pentium4.obj
 0001:000149c0       LOG10_2                    100159c0     libucrt:log10_pentium4.obj
 0001:000149d0       place_L                    100159d0     libucrt:log10_pentium4.obj
 0001:000149f0       One                        100159f0     libucrt:log10_pentium4.obj
 0001:00014a00       Zero                       10015a00     libucrt:log10_pentium4.obj
 0001:00014a10       Two52                      10015a10     libucrt:log10_pentium4.obj
 0001:00014a20       Infs                       10015a20     libucrt:log10_pentium4.obj
 0001:00014a30       NaN                        10015a30     libucrt:log10_pentium4.obj
 0001:00014a40       coeff                      10015a40     libucrt:log10_pentium4.obj
 0001:00014a9e       _log2max                   10015a9e     libucrt:87tran.obj
 0001:00014aa8       _smallarg                  10015aa8     libucrt:87tran.obj
 0001:00014ab2       _half                      10015ab2     libucrt:87tran.obj
 0001:00014afe       One                        10015afe     libucrt:87disp.obj
 0001:00014b06       Three                      10015b06     libucrt:87disp.obj
 0001:00014b0e       XAMtoTagTab                10015b0e     libucrt:87disp.obj
 0001:00014b20       One                        10015b20     libucrt:common.obj
 0001:00014b34       DblMax                     10015b34     libucrt:common.obj
 0001:00014b3c       DblMin                     10015b3c     libucrt:common.obj
 0001:00014b44       IeeeAdjO                   10015b44     libucrt:common.obj
 0001:00014b4c       IeeeAdjU                   10015b4c     libucrt:common.obj
 0001:00014b54       _infinity                  10015b54     libucrt:common.obj
 0001:00014b5c       _zero                      10015b5c     libucrt:common.obj
 0001:000153b8       ?_names@?1??_get_fname@@9@9 100163b8     libucrt:fpexcept.obj
 0001:000158c0       $$000000                   100168c0     chkstk.obj
 0001:000158f0       _band                      100168f0 f   bit64.obj
 0001:00015950       _bor                       10016950 f   bit64.obj
 0001:000159b0       _bxor                      100169b0 f   bit64.obj
 0001:00015a10       _bnot                      10016a10 f   bit64.obj
 0001:00015a30       _lshift                    10016a30 f   bit64.obj
 0001:00015a90       _rshift                    10016a90 f   bit64.obj
 0001:00015af0       _arshift                   10016af0 f   bit64.obj
 0001:00015b50       _f_new                     10016b50 f   bit64.obj
 0001:00015d80       _f_tostring                10016d80 f   bit64.obj
 0001:00015dc0       _f_type                    10016dc0 f   bit64.obj
 0001:00015e30       _f_add                     10016e30 f   bit64.obj
 0001:00015e90       _f_sub                     10016e90 f   bit64.obj
 0001:00015ed0       _f_mul                     10016ed0 f   bit64.obj
 0001:00015f40       _f_div                     10016f40 f   bit64.obj
 0001:00016030       _f_mod                     10017030 f   bit64.obj
 0001:00016080       _f_unm                     10017080 f   bit64.obj
 0001:000160b0       _f_eq                      100170b0 f   bit64.obj
 0001:00016110       _f_lt                      10017110 f   bit64.obj
 0001:00016170       _f_le                      10017170 f   bit64.obj
 0001:00016330       _check64                   10017330 f   bit64.obj
 0001:000166b0       _FillFarMacroCall          100176b0 f   exported.obj
 0001:000168a0       _FillFarMacroCall_Callback@12 100178a0 f   exported.obj
 0001:00019140       _PushAnalyseInfo           1001a140 f   exported.obj
 0001:000192e0       _RegisterObject            1001a2e0 f   exported.obj
 0001:00019bd0       _errfile                   1001abd0 f   lflua.obj
 0001:00019c20       _getF                      1001ac20 f   lflua.obj
 0001:0001ae30       _FL_PushParams             1001be30 f   luamacro.obj
 0001:0001aea0       _InitMPR                   1001bea0 f   luamacro.obj
 0001:0001aef0       _MacroCallFarCallback@12   1001bef0 f   luamacro.obj
 0001:0001b4d0       _uc_tostring               1001c4d0 f   lusercontrol.obj
 0001:0001b530       _uc_index                  1001c530 f   lusercontrol.obj
 0001:0001b610       _uc_newindex               1001c610 f   lusercontrol.obj
 0001:0001b6d0       _uc_New                    1001c6d0 f   lusercontrol.obj
 0001:0001b9c0       _far_GetFileOwner          1001c9c0 f   service.obj
 0001:0001ba50       _far_GetNumberOfLinks      1001ca50 f   service.obj
 0001:0001baa0       _far_PluginStartupInfo     1001caa0 f   service.obj
 0001:0001bb50       _far_GetCurrentDirectory   1001cb50 f   service.obj
 0001:0001bbb0       _editor_GetFileName        1001cbb0 f   service.obj
 0001:0001bc60       _editor_GetInfo            1001cc60 f   service.obj
 0001:0001bfd0       _editor_GetString          1001cfd0 f   service.obj
 0001:0001bfe0       _editor_GetStringW         1001cfe0 f   service.obj
 0001:0001bff0       _editor_SetString          1001cff0 f   service.obj
 0001:0001c000       _editor_SetStringW         1001d000 f   service.obj
 0001:0001c010       _editor_InsertString       1001d010 f   service.obj
 0001:0001c080       _editor_DeleteString       1001d080 f   service.obj
 0001:0001c0d0       _editor_InsertText         1001d0d0 f   service.obj
 0001:0001c130       _editor_InsertTextW        1001d130 f   service.obj
 0001:0001c140       _editor_DeleteChar         1001d140 f   service.obj
 0001:0001c190       _editor_DeleteBlock        1001d190 f   service.obj
 0001:0001c1e0       _editor_UndoRedo           1001d1e0 f   service.obj
 0001:0001c250       _editor_SetKeyBar          1001d250 f   service.obj
 0001:0001c260       _viewer_SetKeyBar          1001d260 f   service.obj
 0001:0001c270       _editor_SetParam           1001d270 f   service.obj
 0001:0001c3a0       _editor_SetPosition        1001d3a0 f   service.obj
 0001:0001c480       _editor_Redraw             1001d480 f   service.obj
 0001:0001c4d0       _editor_ExpandTabs         1001d4d0 f   service.obj
 0001:0001c530       _editor_GetBookmarks       1001d530 f   service.obj
 0001:0001c540       _editor_GetSessionBookmarks 1001d540 f   service.obj
 0001:0001c550       _editor_AddSessionBookmark 1001d550 f   service.obj
 0001:0001c5a0       _editor_ClearSessionBookmarks 1001d5a0 f   service.obj
 0001:0001c5f0       _editor_DeleteSessionBookmark 1001d5f0 f   service.obj
 0001:0001c650       _editor_NextSessionBookmark 1001d650 f   service.obj
 0001:0001c6a0       _editor_PrevSessionBookmark 1001d6a0 f   service.obj
 0001:0001c6f0       _editor_SetTitle           1001d6f0 f   service.obj
 0001:0001c750       _editor_GetTitle           1001d750 f   service.obj
 0001:0001c7f0       _editor_Quit               1001d7f0 f   service.obj
 0001:0001c840       _editor_Select             1001d840 f   service.obj
 0001:0001c910       _editor_GetSelection       1001d910 f   service.obj
 0001:0001cbb0       _editor_TabToReal          1001dbb0 f   service.obj
 0001:0001cbc0       _editor_RealToTab          1001dbc0 f   service.obj
 0001:0001cbd0       _editor_AddColor           1001dbd0 f   service.obj
 0001:0001cd10       _editor_DelColor           1001dd10 f   service.obj
 0001:0001cda0       _editor_GetColor           1001dda0 f   service.obj
 0001:0001cf00       _editor_SaveFile           1001df00 f   service.obj
 0001:0001cf90       _editor_ReadInput          1001df90 f   service.obj
 0001:0001d000       _editor_ProcessInput       1001e000 f   service.obj
 0001:0001d070       _editor_SubscribeChangeEvent 1001e070 f   service.obj
 0001:0001d100       _far_Menu                  1001e100 f   service.obj
 0001:0001d9d0       _far_Message               1001e9d0 f   service.obj
 0001:0001db10       _panel_CheckPanelsExist    1001eb10 f   service.obj
 0001:0001db50       _panel_ClosePanel          1001eb50 f   service.obj
 0001:0001dba0       _panel_GetPanelInfo        1001eba0 f   service.obj
 0001:0001ddd0       _panel_GetPanelItem        1001edd0 f   service.obj
 0001:0001dde0       _panel_GetSelectedPanelItem 1001ede0 f   service.obj
 0001:0001ddf0       _panel_GetCurrentPanelItem 1001edf0 f   service.obj
 0001:0001de00       _panel_GetPanelFormat      1001ee00 f   service.obj
 0001:0001de10       _panel_GetPanelHostFile    1001ee10 f   service.obj
 0001:0001de20       _panel_GetColumnTypes      1001ee20 f   service.obj
 0001:0001de30       _panel_GetColumnWidths     1001ee30 f   service.obj
 0001:0001de40       _panel_GetPanelPrefix      1001ee40 f   service.obj
 0001:0001de50       _panel_RedrawPanel         1001ee50 f   service.obj
 0001:0001df30       _panel_SetSortOrder        1001ef30 f   service.obj
 0001:0001df40       _panel_SetDirectoriesFirst 1001ef40 f   service.obj
 0001:0001df50       _panel_UpdatePanel         1001ef50 f   service.obj
 0001:0001df60       _panel_SetSortMode         1001ef60 f   service.obj
 0001:0001df70       _panel_SetViewMode         1001ef70 f   service.obj
 0001:0001df80       _panel_GetPanelDirectory   1001ef80 f   service.obj
 0001:0001e090       _panel_SetPanelDirectory   1001f090 f   service.obj
 0001:0001e250       _panel_GetCmdLine          1001f250 f   service.obj
 0001:0001e2c0       _panel_SetCmdLine          1001f2c0 f   service.obj
 0001:0001e320       _panel_GetCmdLinePos       1001f320 f   service.obj
 0001:0001e390       _panel_SetCmdLinePos       1001f390 f   service.obj
 0001:0001e3f0       _panel_InsertCmdLine       1001f3f0 f   service.obj
 0001:0001e450       _panel_GetCmdLineSelection 1001f450 f   service.obj
 0001:0001e4f0       _panel_SetCmdLineSelection 1001f4f0 f   service.obj
 0001:0001e580       _panel_SetSelection        1001f580 f   service.obj
 0001:0001e590       _panel_ClearSelection      1001f590 f   service.obj
 0001:0001e5a0       _panel_SetUserScreen       1001f5a0 f   service.obj
 0001:0001e600       _panel_GetUserScreen       1001f600 f   service.obj
 0001:0001e660       _panel_IsActivePanel       1001f660 f   service.obj
 0001:0001e6b0       _panel_SetActivePanel      1001f6b0 f   service.obj
 0001:0001e730       _far_GetDirList            1001f730 f   service.obj
 0001:0001ea60       _far_GetPluginDirList      1001fa60 f   service.obj
 0001:0001eaf0       _far_RestoreScreen         1001faf0 f   service.obj
 0001:0001eb70       _far_SaveScreen            1001fb70 f   service.obj
 0001:0001ec10       _far_SendDlgMessage        1001fc10 f   service.obj
 0001:0001fe10       $LN178                     10020e10     service.obj
 0001:0001fe1c       $LN162                     10020e1c     service.obj
 0001:0001fe60       $LN179                     10020e60     service.obj
 0001:0001fee8       $LN163                     10020ee8     service.obj
 0001:0001ff30       _far_DialogInit            10020f30 f   service.obj
 0001:00020260       _far_DialogRun             10021260 f   service.obj
 0001:00020310       _far_DialogFree            10021310 f   service.obj
 0001:00020370       _dialog_tostring           10021370 f   service.obj
 0001:000203d0       _dialog_rawhandle          100213d0 f   service.obj
 0001:00020410       _far_GetDlgItem            10021410 f   service.obj
 0001:00020480       _far_SetDlgItem            10021480 f   service.obj
 0001:000204f0       _far_SubscribeDialogDrawEvents 100214f0 f   service.obj
 0001:00020510       _editor_Editor             10021510 f   service.obj
 0001:00020620       _viewer_Viewer             10021620 f   service.obj
 0001:00020710       _viewer_GetFileName        10021710 f   service.obj
 0001:000207c0       _viewer_GetInfo            100217c0 f   service.obj
 0001:00020a60       _viewer_Quit               10021a60 f   service.obj
 0001:00020aa0       _viewer_Redraw             10021aa0 f   service.obj
 0001:00020ae0       _viewer_Select             10021ae0 f   service.obj
 0001:00020b70       _viewer_SetPosition        10021b70 f   service.obj
 0001:00020d30       _viewer_SetMode            10021d30 f   service.obj
 0001:00020e50       _far_ShowHelp              10021e50 f   service.obj
 0001:00020ef0       _far_InputBox              10021ef0 f   service.obj
 0001:00021060       _far_GetMsg                10022060 f   service.obj
 0001:000210c0       _far_Text                  100220c0 f   service.obj
 0001:00021150       _far_CopyToClipboard       10022150 f   service.obj
 0001:00021200       _far_PasteFromClipboard    10022200 f   service.obj
 0001:000212b0       _far_InputRecordToName     100222b0 f   service.obj
 0001:00021460       _far_NameToInputRecord     10022460 f   service.obj
 0001:000214d0       _far_LStricmp              100224d0 f   service.obj
 0001:00021520       _far_LStrnicmp             10022520 f   service.obj
 0001:00021590       _far_ProcessName           10022590 f   service.obj
 0001:000217b0       _far_GetReparsePointInfo   100227b0 f   service.obj
 0001:00021840       _far_LIsAlpha              10022840 f   service.obj
 0001:00021890       _far_LIsAlphanum           10022890 f   service.obj
 0001:000218e0       _far_LIsLower              100228e0 f   service.obj
 0001:00021930       _far_LIsUpper              10022930 f   service.obj
 0001:00021980       _far_LLowerBuf             10022980 f   service.obj
 0001:000219e0       _far_LUpperBuf             100229e0 f   service.obj
 0001:00021a40       _far_MkTemp                10022a40 f   service.obj
 0001:00021ac0       _far_MkLink                10022ac0 f   service.obj
 0001:00021b90       _far_GetPathRoot           10022b90 f   service.obj
 0001:00021c00       _far_TruncPathStr          10022c00 f   service.obj
 0001:00021c10       _far_TruncStr              10022c10 f   service.obj
 0001:00021c20       _far_RecursiveSearch       10022c20 f   service.obj
 0001:00021d30       _far_ConvertPath           10022d30 f   service.obj
 0001:00021dd0       _far_AdvControl            10022dd0 f   service.obj
 0001:000224a0       $LN78                      100234a0     service.obj
 0001:000224e4       $LN57                      100234e4     service.obj
 0001:00022510       _far_MacroLoadAll          10023510 f   service.obj
 0001:000225a0       _far_MacroSaveAll          100235a0 f   service.obj
 0001:000225e0       _far_MacroGetState         100235e0 f   service.obj
 0001:00022620       _far_MacroGetArea          10023620 f   service.obj
 0001:00022660       _far_MacroPost             10023660 f   service.obj
 0001:00022670       _far_MacroCheck            10023670 f   service.obj
 0001:00022680       _far_MacroGetLastError     10023680 f   service.obj
 0001:00022740       _far_MacroAdd              10023740 f   service.obj
 0001:000228f0       _far_MacroDelete           100238f0 f   service.obj
 0001:00022980       _far_MacroExecute          10023980 f   service.obj
 0001:00022a90       _far_CPluginStartupInfo    10023a90 f   service.obj
 0001:00022ac0       _far_MakeMenuItems         10023ac0 f   service.obj
 0001:00022d80       _far_Show                  10023d80 f   service.obj
 0001:00022e00       _far_CreateFileFilter      10023e00 f   service.obj
 0001:00022ea0       _filefilter_Free           10023ea0 f   service.obj
 0001:00022f20       _filefilter_gc             10023f20 f   service.obj
 0001:00022f90       _filefilter_tostring       10023f90 f   service.obj
 0001:00022ff0       _filefilter_OpenMenu       10023ff0 f   service.obj
 0001:00023060       _filefilter_Starting       10024060 f   service.obj
 0001:000230d0       _filefilter_IsFileInFilter 100240d0 f   service.obj
 0001:00023170       _far_LoadPlugin            10024170 f   service.obj
 0001:00023180       _far_ForcedLoadPlugin      10024180 f   service.obj
 0001:00023190       _far_UnloadPlugin          10024190 f   service.obj
 0001:000231e0       _far_FindPlugin            100241e0 f   service.obj
 0001:00023280       _far_GetPluginInformation  10024280 f   service.obj
 0001:00023480       _far_GetPlugins            10024480 f   service.obj
 0001:00023550       _far_IsPluginLoaded        10024550 f   service.obj
 0001:00023650       _far_XLat                  10024650 f   service.obj
 0001:00023730       _far_FormatFileSize        10024730 f   service.obj
 0001:00023830       _far_FarClock              10024830 f   service.obj
 0001:000238a0       _far_Timer                 100248a0 f   service.obj
 0001:00023a20       _timer_gc                  10024a20 f   service.obj
 0001:00023a90       _timer_tostring            10024a90 f   service.obj
 0001:00023ae0       _timer_index               10024ae0 f   service.obj
 0001:00023c90       _timer_newindex            10024c90 f   service.obj
 0001:00023e20       _far_CreateSettings        10024e20 f   service.obj
 0001:00023fb0       _Settings_set              10024fb0 f   service.obj
 0001:000240c0       _Settings_get              100250c0 f   service.obj
 0001:000241d0       _Settings_delete           100251d0 f   service.obj
 0001:00024270       _Settings_createsubkey     10025270 f   service.obj
 0001:00024370       _Settings_opensubkey       10025370 f   service.obj
 0001:00024420       _Settings_enum             10025420 f   service.obj
 0001:000246d0       _Settings_free             100256d0 f   service.obj
 0001:00024750       _far_FreeSettings          10025750 f   service.obj
 0001:000247d0       _Settings_tostring         100257d0 f   service.obj
 0001:00024830       _far_ColorDialog           10025830 f   service.obj
 0001:00024930       _far_RunDefaultScript      10025930 f   service.obj
 0001:00024950       _AddMacroData_gc           10025950 f   service.obj
 0001:000249e0       _ChangePanelSelection      100259e0 f   service.obj
 0001:00024be0       _CheckFlags                10025be0 f   service.obj
 0001:00024c40       _CheckFlagsFromTable       10025c40 f   service.obj
 0001:00024fa0       _CreateSynchroData         10025fa0 f   service.obj
 0001:00024fc0       _CustomAllocator           10025fc0 f   service.obj
 0001:000250b0       _FastGetString             100260b0 f   service.obj
 0001:00025130       _FillEditorSelect          10026130 f   service.obj
 0001:000251e0       _FillEditorSetPosition     100261e0 f   service.obj
 0001:00025450       $LN19                      10026450     service.obj
 0001:00025468       $LN16                      10026468     service.obj
 0001:00025480       _FillKeyBarTitles          10026480 f   service.obj
 0001:00025650       _FrsUserFunc@12            10026650 f   service.obj
 0001:00025aac       $LN36                      10026aac     service.obj
 0001:00025b40       _GetOptGuid                10026b40 f   service.obj
 0001:00026790       _MacroSendString           10027790 f   service.obj
 0001:00026a00       $LN11                      10027a00     service.obj
 0001:00026a30       _OptInputRecord            10027a30 f   service.obj
 0001:00026ac0       _PluginHandle_rawhandle    10027ac0 f   service.obj
 0001:00026d40       _PushBookmarks             10027d40 f   service.obj
 0001:00026f64       $LN16                      10027f64     service.obj
 0001:00026f70       $LN13                      10027f70     service.obj
 0001:000271b0       $LN38                      100281b0     service.obj
 0001:000271bc       $LN32                      100281bc     service.obj
 0001:000271d4       $LN39                      100281d4     service.obj
 0001:000271f8       $LN33                      100281f8     service.obj
 0001:00027210       _PushDlgItem               10028210 f   service.obj
 0001:000273e0       _PushDlgItemNum            100283e0 f   service.obj
 0001:000277a4       $LN21                      100287a4     service.obj
 0001:000277bc       $LN14                      100287bc     service.obj
 0001:00027cb0       _PushPluginHandle          10028cb0 f   service.obj
 0001:00027d30       _PutPluginMenuItemToTable  10028d30 f   service.obj
 0001:00027e00       _PutVersionInfoToTable     10028e00 f   service.obj
 0001:00027e60       _SetDlgItem                10028e60 f   service.obj
 0001:00027ed0       _SetFarDialogItem          10028ed0 f   service.obj
 0001:00028190       _SetKeyBar                 10029190 f   service.obj
 0001:000282d0       _SetPanelBooleanProperty   100292d0 f   service.obj
 0001:00028360       _SetPanelIntegerProperty   10029360 f   service.obj
 0001:00028430       __EditorGetString          10029430 f   service.obj
 0001:00028660       __EditorInsertText         10029660 f   service.obj
 0001:00028740       __EditorSetString          10029740 f   service.obj
 0001:00028830       __EditorTabConvert         10029830 f   service.obj
 0001:000288d0       _check_env_flag            100298d0 f   service.obj
 0001:000289c0       _get_env_flag              100299c0 f   service.obj
 0001:00028ae8       $LN17                      10029ae8     service.obj
 0001:00028b00       _get_panel_item            10029b00 f   service.obj
 0001:00028c00       _get_string_info           10029c00 f   service.obj
 0001:00028cd0       _luaopen_far               10029cd0 f   service.obj
 0001:000290a0       _plugin_load               1002a0a0 f   service.obj
 0001:00029180       _timer_Close               1002a180 f   service.obj
 0001:00029210       _truncstring               1002a210 f   service.obj
 0001:000292c0       _unic_len                  1002a2c0 f   slnunico.obj
 0001:00029340       _unic_sub                  1002a340 f   slnunico.obj
 0001:00029530       _str_reverse               1002a530 f   slnunico.obj
 0001:00029690       _unic_lower                1002a690 f   slnunico.obj
 0001:000297e0       _unic_upper                1002a7e0 f   slnunico.obj
 0001:00029930       _str_rep                   1002a930 f   slnunico.obj
 0001:000299b0       _unic_byte                 1002a9b0 f   slnunico.obj
 0001:00029b60       _unic_char                 1002ab60 f   slnunico.obj
 0001:00029c60       _str_dump                  1002ac60 f   slnunico.obj
 0001:00029cd0       _unic_find                 1002acd0 f   slnunico.obj
 0001:00029ce0       _unic_match                1002ace0 f   slnunico.obj
 0001:00029cf0       _gmatch                    1002acf0 f   slnunico.obj
 0001:00029d90       _gfind_nodef               1002ad90 f   slnunico.obj
 0001:00029db0       _unic_gsub                 1002adb0 f   slnunico.obj
 0001:00029f50       _str_format                1002af50 f   slnunico.obj
 0001:0002a460       $LN78                      1002b460     slnunico.obj
 0001:0002a47c       $LN69                      1002b47c     slnunico.obj
 0001:0002a4b0       $LN79                      1002b4b0     slnunico.obj
 0001:0002a4c0       $LN73                      1002b4c0     slnunico.obj
 0001:0002a520       _utf8_valid                1002b520 f   slnunico.obj
 0001:0002a630       _add_value                 1002b630 f   slnunico.obj
 0001:0002a808       $LN31                      1002b808     slnunico.obj
 0001:0002a820       _gmatch_aux                1002b820 f   slnunico.obj
 0001:0002a900       _grab_one_utf8             1002b900 f   slnunico.obj
 0001:0002aac0       _match                     1002bac0 f   slnunico.obj
 0001:0002ae18       $LN122                     1002be18     slnunico.obj
 0001:0002ae30       $LN113                     1002be30     slnunico.obj
 0001:0002ae5c       $LN123                     1002be5c     slnunico.obj
 0001:0002ae70       $LN118                     1002be70     slnunico.obj
 0001:0002ae90       _match_class               1002be90 f   slnunico.obj
 0001:0002afa8       $LN28                      1002bfa8     slnunico.obj
 0001:0002afd8       $LN26                      1002bfd8     slnunico.obj
 0001:0002b000       _max_expand                1002c000 f   slnunico.obj
 0001:0002b100       _min_expand                1002c100 f   slnunico.obj
 0001:0002b430       _push_captures             1002c430 f   slnunico.obj
 0001:0002b4f0       _push_onecapture           1002c4f0 f   slnunico.obj
 0001:0002b580       _singlematch               1002c580 f   slnunico.obj
 0001:0002b870       _start_capture             1002c870 f   slnunico.obj
 0001:0002b8c0       _unic_find_aux             1002c8c0 f   slnunico.obj
 0001:0002bbb0       _utf8_count                1002cbb0 f   slnunico.obj
 0001:0002bc50       _utf8_deco                 1002cc50 f   slnunico.obj
 0001:0002bd10       _utf8_enco                 1002cd10 f   slnunico.obj
 0001:0002be00       _utf8_graphext             1002ce00 f   slnunico.obj
 0001:0002bf20       _utf8_oced                 1002cf20 f   slnunico.obj
 0001:0002bff0       _writer                    1002cff0 f   slnunico.obj
 0001:0002c010       _io_type                   1002d010 f   uliolib51.obj
 0001:0002c0b0       _io_close                  1002d0b0 f   uliolib51.obj
 0001:0002c130       _io_gc                     1002d130 f   uliolib51.obj
 0001:0002c180       _io_tostring               1002d180 f   uliolib51.obj
 0001:0002c1d0       _io_open                   1002d1d0 f   uliolib51.obj
 0001:0002c2b0       _io_popen                  1002d2b0 f   uliolib51.obj
 0001:0002c330       _io_tmpfile                1002d330 f   uliolib51.obj
 0001:0002c3b0       _io_input                  1002d3b0 f   uliolib51.obj
 0001:0002c3d0       _io_output                 1002d3d0 f   uliolib51.obj
 0001:0002c3f0       _f_lines                   1002d3f0 f   uliolib51.obj
 0001:0002c440       _io_lines                  1002d440 f   uliolib51.obj
 0001:0002c530       _io_read                   1002d530 f   uliolib51.obj
 0001:0002c580       _f_read                    1002d580 f   uliolib51.obj
 0001:0002c5c0       _io_write                  1002d5c0 f   uliolib51.obj
 0001:0002c610       _f_write                   1002d610 f   uliolib51.obj
 0001:0002c650       _f_seek                    1002d650 f   uliolib51.obj
 0001:0002c700       _f_setvbuf                 1002d700 f   uliolib51.obj
 0001:0002c7b0       _io_flush                  1002d7b0 f   uliolib51.obj
 0001:0002c840       _f_flush                   1002d840 f   uliolib51.obj
 0001:0002c8d0       _f_rawhandle               1002d8d0 f   uliolib51.obj
 0001:0002c900       _aux_close                 1002d900 f   uliolib51.obj
 0001:0002c930       _fileerror                 1002d930 f   uliolib51.obj
 0001:0002c9b0       _g_iofile                  1002d9b0 f   uliolib51.obj
 0001:0002caa0       _g_read                    1002daa0 f   uliolib51.obj
 0001:0002cc90       _g_write                   1002dc90 f   uliolib51.obj
 0001:0002cd80       _io_fclose                 1002dd80 f   uliolib51.obj
 0001:0002cdf0       _io_noclose                1002ddf0 f   uliolib51.obj
 0001:0002ce20       _io_pclose                 1002de20 f   uliolib51.obj
 0001:0002cea0       _io_readline               1002dea0 f   uliolib51.obj
 0001:0002d160       _pushresult                1002e160 f   uliolib51.obj
 0001:0002d200       _read_chars                1002e200 f   uliolib51.obj
 0001:0002d2a0       _read_line                 1002e2a0 f   uliolib51.obj
 0001:0002d370       _ll_loadlib                1002e370 f   uloadlib51.obj
 0001:0002d3e0       _loader_Lua                1002e3e0 f   uloadlib51.obj
 0001:0002d430       _loader_C                  1002e430 f   uloadlib51.obj
 0001:0002d4c0       _loader_Croot              1002e4c0 f   uloadlib51.obj
 0001:0002d560       _loader_preload            1002e560 f   uloadlib51.obj
 0001:0002d5d0       _ll_require                1002e5d0 f   uloadlib51.obj
 0001:0002d780       _ll_module                 1002e780 f   uloadlib51.obj
 0001:0002d930       _ll_seeall                 1002e930 f   uloadlib51.obj
 0001:0002d990       _findfile                  1002e990 f   uloadlib51.obj
 0001:0002db30       _gctm                      1002eb30 f   uloadlib51.obj
 0001:0002db60       _ll_loadfunc               1002eb60 f   uloadlib51.obj
 0001:0002dc70       _loaderror                 1002ec70 f   uloadlib51.obj
 0001:0002de10       _mkfuncname                1002ee10 f   uloadlib51.obj
 0001:0002de60       _setpath                   1002ee60 f   uloadlib51.obj
 0001:0002ea00       $LN13                      1002fa00     ustring.obj
 0001:0002f500       _ustring_OutputDebugString 10030500 f   ustring.obj
 0001:0002f6c0       _ustring_system            100306c0 f   ustring.obj
 0001:00030700       _win_GetEnv                10031700 f   win.obj
 0001:000307a0       _win_SetEnv                100317a0 f   win.obj
 0001:000307e0       _win_SetRegKey             100317e0 f   win.obj
 0001:00030a80       _win_GetRegKey             10031a80 f   win.obj
 0001:00030be8       $LN17                      10031be8     win.obj
 0001:00030c10       _win_DeleteRegKey          10031c10 f   win.obj
 0001:00030c90       _win_DeleteRegValue        10031c90 f   win.obj
 0001:00030d20       _win_EnumRegKey            10031d20 f   win.obj
 0001:00030e10       _win_EnumRegValue          10031e10 f   win.obj
 0001:00030f00       _win_ExtractKey            10031f00 f   win.obj
 0001:00030f90       _win_ExtractKeyEx          10031f90 f   win.obj
 0001:00031010       _win_GetFileInfo           10032010 f   win.obj
 0001:00031130       _win_GetSystemTimeAsFileTime 10032130 f   win.obj
 0001:00031160       _win_FileTimeToSystemTime  10032160 f   win.obj
 0001:00031260       _win_SystemTimeToFileTime  10032260 f   win.obj
 0001:00031360       _win_FileTimeToLocalFileTime 10032360 f   win.obj
 0001:000313d0       _win_CompareString         100323d0 f   win.obj
 0001:00031560       _win_wcscmp                10032560 f   win.obj
 0001:000315b0       _win_GetVirtualKeys        100325b0 f   win.obj
 0001:000315d0       _win_GetConsoleScreenBufferInfo 100325d0 f   win.obj
 0001:000316e0       _win_CopyFile              100326e0 f   win.obj
 0001:00031750       _win_MoveFile              10032750 f   win.obj
 0001:00031820       _win_DeleteFile            10032820 f   win.obj
 0001:00031860       _win_CreateDir             10032860 f   win.obj
 0001:00031940       _win_RemoveDir             10032940 f   win.obj
 0001:00031980       _win_ShellExecute          10032980 f   win.obj
 0001:00031a20       _win_IsProcess64bit        10032a20 f   win.obj
 0001:00031a40       _CheckHKey                 10032a40 f   win.obj
 0001:00031c00       _mkdir                     10032c00 f   win.obj
 0001:00031db0       ?DecodePointer@implementation@?1??DecodePointerWrapper@@YGPAXPAX@Z@SGPAX0@Z 10032db0 f   vc_crt_fix_impl.obj
 0001:00031db0       ?EncodePointer@implementation@?1??EncodePointerWrapper@@YGPAXPAX@Z@SGPAX0@Z 10032db0 f   vc_crt_fix_impl.obj
 0001:00031dc0       ?GetLogicalProcessorInformation@implementation@?1??GetLogicalProcessorInformationWrapper@@YGHPAU_SYSTEM_LOGICAL_PROCESSOR_INFORMATION@@PAK@Z@SGH01@Z 10032dc0 f   vc_crt_fix_impl.obj
 0001:00031dd0       ?GetModuleHandleExW@implementation@?1??GetModuleHandleExWWrapper@@YGHKPB_WPAPAUHINSTANCE__@@@Z@SGHK01@Z 10032dd0 f   vc_crt_fix_impl.obj
 0001:00031ea0       ?GetNumaHighestNodeNumber@implementation@?1??GetNumaHighestNodeNumberWrapper@@YGHPAK@Z@SGH0@Z 10032ea0 f   vc_crt_fix_impl.obj
 0001:00031ec0       ?InitializeSListHead@implementation@slist@@YGXPAT_SLIST_HEADER@@@Z 10032ec0 f   vc_crt_fix_impl.obj
 0001:00031fa0       ?InterlockedFlushSList@implementation@slist@@YGPAU_SINGLE_LIST_ENTRY@@PAT_SLIST_HEADER@@@Z 10032fa0 f   vc_crt_fix_impl.obj
 0001:00031fd0       ?InterlockedPopEntrySList@implementation@slist@@YGPAU_SINGLE_LIST_ENTRY@@PAT_SLIST_HEADER@@@Z 10032fd0 f   vc_crt_fix_impl.obj
 0001:00032020       ?InterlockedPushEntrySList@implementation@slist@@YGPAU_SINGLE_LIST_ENTRY@@PAT_SLIST_HEADER@@PAU3@@Z 10033020 f   vc_crt_fix_impl.obj
 0001:00032060       ?InterlockedPushListSListEx@implementation@slist@@YGPAU_SINGLE_LIST_ENTRY@@PAT_SLIST_HEADER@@PAU3@1K@Z 10033060 f   vc_crt_fix_impl.obj
 0001:000320a0       ?QueryDepthSList@implementation@slist@@YGGPAT_SLIST_HEADER@@@Z 100330a0 f   vc_crt_fix_impl.obj
 0001:000320d0       ?RtlFirstEntrySList@implementation@slist@@YGPAU_SINGLE_LIST_ENTRY@@PAT_SLIST_HEADER@@@Z 100330d0 f   vc_crt_fix_impl.obj
 0001:00032100       ?XorPointer@@YAPAXPAX@Z    10033100 f   vc_crt_fix_impl.obj
 0001:00032680       $$000000                   10033680     LIBCMT:lldiv.obj
 0001:00032730       $$000000                   10033730     LIBCMT:llmul.obj
 0001:00032770       $$000000                   10033770     LIBCMT:llrem.obj
 0001:00032830       $$000000                   10033830     LIBCMT:llshl.obj
 0001:00032850       $$000000                   10033850     LIBCMT:llshr.obj
 0001:00032880       $$000000                   10033880     LIBCMT:ullshr.obj
 0001:000328a0       $$000000                   100338a0     LIBCMT:_ftol2_.obj
 0001:00032960       $$000000                   10033960     LIBCMT:lldvrm.obj
 0001:00032a5c       ?find_pe_section@@YAPAU_IMAGE_SECTION_HEADER@@QAEI@Z 10033a5c f   LIBCMT:utility.obj
 0001:00032d9d       ?dllmain_crt_dispatch@@YGHQAUHINSTANCE__@@KQAX@Z 10033d9d f   LIBCMT:dll_dllmain.obj
 0001:00032df0       ?dllmain_crt_process_attach@@YAHQAUHINSTANCE__@@QAX@Z 10033df0 f   LIBCMT:dll_dllmain.obj
 0001:00032eed       ?dllmain_crt_process_detach@@YAH_N@Z 10033eed f   LIBCMT:dll_dllmain.obj
 0001:00032f73       ?dllmain_dispatch@@YAHQAUHINSTANCE__@@KQAX@Z 10033f73 f   LIBCMT:dll_dllmain.obj
 0001:000333a0       $$000000                   100343a0     LIBCMT:_sehprolg4_.obj
 0001:000333fb       ___get_entropy             100343fb f   LIBCMT:gs_support.obj
 0001:00033700       $$000000                   10034700     libvcruntime:memcpy.obj
 0001:00033964       TrailingUpVec              10034964     libvcruntime:memcpy.obj
 0001:00033a10       TrailingDownVec            10034a10     libvcruntime:memcpy.obj
 0001:00033c80       $$000000                   10034c80     libvcruntime:memset.obj
 0001:00034060       $$000000                   10035060     libvcruntime:strchr.obj
 0001:00034260       $$000000                   10035260     libvcruntime:memchr.obj
 0001:00034310       $$000000                   10035310     libvcruntime:strrchr.obj
 0001:000344b0       _ValidateLocalCookies      100354b0 f   libvcruntime:_chandler4_.obj
 0001:00034825       ?try_get_first_available_module@@YAPAUHINSTANCE__@@QBW4module_id@?A0x9a4b7766@@0@Z 10035825 f   libvcruntime:winapi_downlevel.obj
 0001:000348eb       ?try_get_function@@YAPAXW4function_id@?A0x9a4b7766@@QBDQBW4module_id@2@2@Z 100358eb f   libvcruntime:winapi_downlevel.obj
 0001:00034b00       $$000000                   10035b00     libvcruntime:_exsup4_.obj
 0001:00034b90       __unwind_handler4          10035b90 f   libvcruntime:_exsup4_.obj
 0001:00034cd0       $$000000                   10035cd0     libvcruntime:_exsup_.obj
 0001:00034cf1       __unwind_handler           10035cf1 f   libvcruntime:_exsup_.obj
 0001:00034e10       $$000000                   10035e10     libvcruntime:lowhelpr.obj
 0001:00034f00       $$000000                   10035f00     libvcruntime:memmove.obj
 0001:00035164       TrailingUpVec              10036164     libvcruntime:memmove.obj
 0001:00035210       TrailingDownVec            10036210     libvcruntime:memmove.obj
 0001:00035474       ??$?RV<lambda_80d7abc6eae2375db70be92ccaaf9b57>@@AAV<lambda_df52180bf14694d51fdefd82613e8f07>@@V<lambda_4fa1155033dff2042363dba4e2dc3802>@@@?$__crt_seh_guarded_call@H@@QAEH$$QAV<lambda_80d7abc6eae2375db70be92ccaaf9b57>@@AAV<lambda_df52180bf14694d51fdefd82613e8f07>@@$$QAV<lambda_4fa1155033dff2042363dba4e2dc3802>@@@Z 10036474 f   libucrt:output.obj
 0001:000354c5       ??$common_vsprintf@Vstandard_base@__crt_stdio_output@@D@@YAH_KQADIQBDQAU__crt_locale_pointers@@1@Z 100364c5 f   libucrt:output.obj
 0001:00035645       ??$common_vsprintf@Vstandard_base@__crt_stdio_output@@_W@@YAH_KQA_WIQB_WQAU__crt_locale_pointers@@QAD@Z 10036645 f   libucrt:output.obj
 0001:00035e00       ??R<lambda_df52180bf14694d51fdefd82613e8f07>@@QBEHXZ 10036e00 f   libucrt:output.obj
 0001:000361c8       $LN54                      100371c8     libucrt:output.obj
 0001:000362e4       $LN54                      100372e4     libucrt:output.obj
 0001:00036404       $LN54                      10037404     libucrt:output.obj
 0001:00037238       $LN19                      10038238     libucrt:output.obj
 0001:00038229       ??$common_fsopen@_W@@YAPAU_iobuf@@QB_W0H@Z 10039229 f   libucrt:fopen.obj
 0001:000383db       ___hw_cw_sse2              100393db f   libucrt:ieee87.obj
 0001:00038862       __hw_cw                    10039862 f   libucrt:ieee87.obj
 0001:0003898c       ??$common_strerror@D@@YAPADH@Z 1003998c f   libucrt:strerror.obj
 0001:00038b83       ??$common_freopen@_W@@YAHQAPAU_iobuf@@QB_W1V__crt_stdio_stream@@H@Z 10039b83 f   libucrt:freopen.obj
 0001:00038f88       _memcpy_s                  10039f88 f   libucrt:cfout.obj
 0001:00038f88       _memcpy_s                  10039f88 f   libucrt:fread.obj
 0001:00038f88       _memcpy_s                  10039f88 f   libucrt:mbctype.obj
 0001:00038f88       _memcpy_s                  10039f88 f   libucrt:input.obj
 0001:000396b0       $$000000                   1003a6b0     libucrt:strncmp.obj
 0001:00039730       $$000000                   1003a730     libucrt:strncpy.obj
 0001:00039860       $$000000                   1003a860     libucrt:strpbrk.obj
 0001:000398a0       ??$common_popen@_W@@YAPAU_iobuf@@QB_W0@Z 1003a8a0 f   libucrt:popen.obj
 0001:000399c4       ??$common_popen_nolock@_W@@YAPAU_iobuf@@QB_W0HAAY01H@Z 1003a9c4 f   libucrt:popen.obj
 0001:00039c11       ??$convert_popen_type_to_fdopen_mode@_W@@YA?AU?$fdopen_mode@_W@?A0xe43b7539@@QB_W@Z 1003ac11 f   libucrt:popen.obj
 0001:00039c77       ??$get_comspec@_W@@YAPB_WXZ 1003ac77 f   libucrt:popen.obj
 0001:00039cb5       ??$get_executable_path@_W@@YAPB_WQB_W@Z 1003acb5 f   libucrt:popen.obj
 0001:00039dc6       ??$get_path@_W@@YAPB_WXZ   1003adc6 f   libucrt:popen.obj
 0001:00039e3e       ?idtab@@YAPAUprocess_handle_pair@?A0xe43b7539@@QAU_iobuf@@@Z 1003ae3e f   libucrt:popen.obj
 0001:0003a030       ??$?RV<lambda_2866be3712abc81a800a822484c830d8>@@AAV<lambda_39ca0ed439415581b5b15c265174cece>@@V<lambda_2b24c74d71094a6cd0cb82e44167d71b>@@@?$__crt_seh_guarded_call@X@@QAEX$$QAV<lambda_2866be3712abc81a800a822484c830d8>@@AAV<lambda_39ca0ed439415581b5b15c265174cece>@@$$QAV<lambda_2b24c74d71094a6cd0cb82e44167d71b>@@@Z 1003b030 f   libucrt:fflush.obj
 0001:0003a0b1       ??$?RV<lambda_2cc53f568c5a2bb6f192f930a45d44ea>@@AAV<lambda_ab61a845afdef5b7c387490eaf3616ee>@@V<lambda_c2ffc0b7726aa6be21d5f0026187e748>@@@?$__crt_seh_guarded_call@X@@QAEX$$QAV<lambda_2cc53f568c5a2bb6f192f930a45d44ea>@@AAV<lambda_ab61a845afdef5b7c387490eaf3616ee>@@$$QAV<lambda_c2ffc0b7726aa6be21d5f0026187e748>@@@Z 1003b0b1 f   libucrt:fflush.obj
 0001:0003a153       ??$?RV<lambda_6d20deecaf4856105ebacbad442d1079>@@AAV<lambda_9a32fed5bf61b6b509b2d3f6003082a1>@@V<lambda_63ea2239ed67c638ddbae41947fdf875>@@@?$__crt_seh_guarded_call@H@@QAEH$$QAV<lambda_6d20deecaf4856105ebacbad442d1079>@@AAV<lambda_9a32fed5bf61b6b509b2d3f6003082a1>@@$$QAV<lambda_63ea2239ed67c638ddbae41947fdf875>@@@Z 1003b153 f   libucrt:fflush.obj
 0001:0003a1a9       ?common_flush_all@@YAH_N@Z 1003b1a9 f   libucrt:fflush.obj
 0001:0003a1f8       ?common_flush_all_should_try_to_flush_stream@@YA_NV__crt_stdio_stream@@QAH@Z 1003b1f8 f   libucrt:fflush.obj
 0001:0003a22a       ?is_stream_flushable_or_commitable@@YA_NJ@Z 1003b22a f   libucrt:fflush.obj
 0001:0003a354       ??$common_fgets@D@@YAPADQADHV__crt_stdio_stream@@@Z 1003b354 f   libucrt:fgets.obj
 0001:0003a49f       ?common_fseek@@YAHV__crt_stdio_stream@@_JH@Z 1003b49f f   libucrt:fseek.obj
 0001:0003a520       ?common_fseek_binary_mode_read_only_fast_track_nolock@@YA_NV__crt_stdio_stream@@_JH@Z 1003b520 f   libucrt:fseek.obj
 0001:0003a5f9       ?common_fseek_nolock@@YAHV__crt_stdio_stream@@_JH@Z 1003b5f9 f   libucrt:fseek.obj
 0001:0003a6ed       ??$common_ftell@J@@YAJV__crt_stdio_stream@@@Z 1003b6ed f   libucrt:ftell.obj
 0001:0003a754       ??$common_ftell_nolock@J@@YAJV__crt_stdio_stream@@@Z 1003b754 f   libucrt:ftell.obj
 0001:0003a77f       ??$common_ftell_nolock@_J@@YA_JV__crt_stdio_stream@@@Z 1003b77f f   libucrt:ftell.obj
 0001:0003a904       ?common_ftell_read_mode_nolock@@YA_JV__crt_stdio_stream@@_J1@Z 1003b904 f   libucrt:ftell.obj
 0001:0003aac6       ?common_ftell_translated_utf8_nolock@@YA_JV__crt_stdio_stream@@_J@Z 1003bac6 f   libucrt:ftell.obj
 0001:0003ac61       ?count_newline_bytes@@YA_JQBD0W4__crt_lowio_text_mode@@@Z 1003bc61 f   libucrt:ftell.obj
 0001:0003acf5       ??$?RV<lambda_cd3bfd923e8d1349099e544c97b1bd8e>@@AAV<lambda_54dcfcba6f8e0c549fa430f4d53fb7dd>@@V<lambda_5e1d0fa2aa2b73b187bf8b7e1d30c7f8>@@@?$__crt_seh_guarded_call@I@@QAEI$$QAV<lambda_cd3bfd923e8d1349099e544c97b1bd8e>@@AAV<lambda_54dcfcba6f8e0c549fa430f4d53fb7dd>@@$$QAV<lambda_5e1d0fa2aa2b73b187bf8b7e1d30c7f8>@@@Z 1003bcf5 f   libucrt:fwrite.obj
 0001:0003ad46       ??R<lambda_54dcfcba6f8e0c549fa430f4d53fb7dd>@@QBEIXZ 1003bd46 f   libucrt:fwrite.obj
 0001:0003af6b       ??$?RV<lambda_70c0770dcc4f6ec6272bb01dc82d3c91>@@AAV<lambda_ca71763b3c0644891230e4f79ea54fa6>@@V<lambda_ca266f0f09348b8765c113e3a39a2bc1>@@@?$__crt_seh_guarded_call@H@@QAEH$$QAV<lambda_70c0770dcc4f6ec6272bb01dc82d3c91>@@AAV<lambda_ca71763b3c0644891230e4f79ea54fa6>@@$$QAV<lambda_ca266f0f09348b8765c113e3a39a2bc1>@@@Z 1003bf6b f   libucrt:setvbuf.obj
 0001:0003afbc       ??R<lambda_ca71763b3c0644891230e4f79ea54fa6>@@QBEHXZ 1003bfbc f   libucrt:setvbuf.obj
 0001:0003b056       ?set_buffer@@YAHV__crt_stdio_stream@@QADIH@Z 1003c056 f   libucrt:setvbuf.obj
 0001:0003b10d       ??$generate_tmpfile_file_name@D@@YA_NQADI@Z 1003c10d f   libucrt:tmpfile.obj
 0001:0003b185       ??$get_tmpfile_buffer_nolock@D@@YAPADW4buffer_id@?A0x5b9a7937@@@Z 1003c185 f   libucrt:tmpfile.obj
 0001:0003b1bf       ??$initialize_tmpfile_buffer_nolock@D@@YA_NW4buffer_id@?A0x5b9a7937@@@Z 1003c1bf f   libucrt:tmpfile.obj
 0001:0003b262       ?common_tmpfile@@YAHQAPAU_iobuf@@H@Z 1003c262 f   libucrt:tmpfile.obj
 0001:0003b2d4       ?common_tmpfile_nolock@@YAHQAPAU_iobuf@@H@Z 1003c2d4 f   libucrt:tmpfile.obj
 0001:0003b497       ??$?RV<lambda_274ecf0a8038e561263518ab346655e8>@@AAV<lambda_21448eb78dd3c4a522ed7c65a98d88e6>@@V<lambda_0ca1de2171e49cefb1e8dc85c06db622>@@@?$__crt_seh_guarded_call@H@@QAEH$$QAV<lambda_274ecf0a8038e561263518ab346655e8>@@AAV<lambda_21448eb78dd3c4a522ed7c65a98d88e6>@@$$QAV<lambda_0ca1de2171e49cefb1e8dc85c06db622>@@@Z 1003c497 f   libucrt:input.obj
 0001:0003c003       $LN38                      1003d003     libucrt:input.obj
 0001:0003c107       $LN21                      1003d107     libucrt:input.obj
 0001:0003c90f       ??R<lambda_c7c3f778895f47e7f4eff38a8fef279a>@@QBE_NXZ 1003d90f f   libucrt:input.obj
 0001:0003c90f       ??R<lambda_e41f1170c8800e4a6fed1afad60fab6f>@@QBE_NXZ 1003d90f f   libucrt:input.obj
 0001:0003c90f       ??R<lambda_0b87716a0b73cdfba1cd37fcaaa20711>@@QBE_NXZ 1003d90f f   libucrt:input.obj
 0001:0003c939       ??R<lambda_21448eb78dd3c4a522ed7c65a98d88e6>@@QBEHXZ 1003d939 f   libucrt:input.obj
 0001:0003f4f5       $LN22                      100404f5     libucrt:input.obj
 0001:0003fc27       $LN18                      10040c27     libucrt:input.obj
 0001:0003fe5a       ??$common_dupenv_s@_W@@YAHQAPA_WQAIQB_WHQBDH@Z 10040e5a f   libucrt:getenv.obj
 0001:0003feb5       ??$common_dupenv_s_nolock@_W@@YAHQAPA_WQAIQB_WHQBDH@Z 10040eb5 f   libucrt:getenv.obj
 0001:0003ff63       ??$common_getenv@_W@@YAPA_WQB_W@Z 10040f63 f   libucrt:getenv.obj
 0001:0003ffd8       ??$common_getenv_nolock@_W@@YAPA_WQB_W@Z 10040fd8 f   libucrt:getenv.obj
 0001:0004008b       ??$common_system@_W@@YAHQB_W@Z 1004108b f   libucrt:system.obj
 0001:00040365       ??$?RV<lambda_03b1d95aef87969028cfba75ccab2455>@@AAV<lambda_6e4b09c48022b2350581041d5f6b0c4c>@@V<lambda_22bdf7517842c4b3e53723af5aa32b9e>@@@?$__crt_seh_guarded_call@X@@QAEX$$QAV<lambda_03b1d95aef87969028cfba75ccab2455>@@AAV<lambda_6e4b09c48022b2350581041d5f6b0c4c>@@$$QAV<lambda_22bdf7517842c4b3e53723af5aa32b9e>@@@Z 10041365 f   libucrt:exit.obj
 0001:000403a8       ??R<lambda_6e4b09c48022b2350581041d5f6b0c4c>@@QBE@XZ 100413a8 f   libucrt:exit.obj
 0001:00040484       ?atexit_exception_filter@@YAHK@Z 10041484 f   libucrt:exit.obj
 0001:00040497       ?common_exit@@YAXHW4_crt_exit_cleanup_mode@@W4_crt_exit_return_mode@@@Z 10041497 f   libucrt:exit.obj
 0001:000404fd       ?exit_or_terminate_process@@YAXI@Z 100414fd f   libucrt:exit.obj
 0001:0004053f       ?is_managed_app@@YA_NXZ    1004153f f   libucrt:exit.obj
 0001:00040583       ?try_cor_exit_process@@YAXI@Z 10041583 f   libucrt:exit.obj
 0001:00040627       ??$common_configure_argv@D@@YAHW4_crt_argv_mode@@@Z 10041627 f   libucrt:argv_parsing.obj
 0001:0004075d       ??$parse_command_line@D@@YAXPADPAPAD0PAI2@Z 1004175d f   libucrt:argv_parsing.obj
 0001:0004092b       ??$common_get_or_create_environment_nolock@_W@@YAPAPA_WXZ 1004192b f   libucrt:environment_initialization.obj
 0001:00040957       ??$common_initialize_environment_nolock@D@@YAHXZ 10041957 f   libucrt:environment_initialization.obj
 0001:000409aa       ??$common_initialize_environment_nolock@_W@@YAHXZ 100419aa f   libucrt:environment_initialization.obj
 0001:000409f8       ??$create_environment@D@@YAQAPADQAD@Z 100419f8 f   libucrt:environment_initialization.obj
 0001:00040ac9       ??$create_environment@_W@@YAQAPA_WQA_W@Z 10041ac9 f   libucrt:environment_initialization.obj
 0001:00040bc3       ??$free_environment@_W@@YAXQAPA_W@Z 10041bc3 f   libucrt:environment_initialization.obj
 0001:00040bc3       ??$free_environment@D@@YAXQAPAD@Z 10041bc3 f   libucrt:environment_initialization.obj
 0001:00040bf2       ??$initialize_environment_by_cloning_nolock@_W@@YAHXZ 10041bf2 f   libucrt:environment_initialization.obj
 0001:00040cab       ??$uninitialize_environment_internal@D@@YAXAAPAPAD@Z 10041cab f   libucrt:environment_initialization.obj
 0001:00040cc6       ??$uninitialize_environment_internal@_W@@YAXAAPAPA_W@Z 10041cc6 f   libucrt:environment_initialization.obj
 0001:00040d22       ??$?RV<lambda_69a2805e680e0e292e8ba93315fe43a8>@@AAV<lambda_f03950bc5685219e0bcd2087efbe011e>@@V<lambda_03fcd07e894ec930e3f35da366ca99d6>@@@?$__crt_seh_guarded_call@H@@QAEH$$QAV<lambda_69a2805e680e0e292e8ba93315fe43a8>@@AAV<lambda_f03950bc5685219e0bcd2087efbe011e>@@$$QAV<lambda_03fcd07e894ec930e3f35da366ca99d6>@@@Z 10041d22 f   libucrt:onexit.obj
 0001:00040d73       ??$?RV<lambda_7ac4055421038abea736e08bd20712a4>@@AAV<lambda_a10e4b102d4a2c3aac6f4f48bbdf488f>@@V<lambda_1da61822885009acd1bf848af4f9644b>@@@?$__crt_seh_guarded_call@H@@QAEH$$QAV<lambda_7ac4055421038abea736e08bd20712a4>@@AAV<lambda_a10e4b102d4a2c3aac6f4f48bbdf488f>@@$$QAV<lambda_1da61822885009acd1bf848af4f9644b>@@@Z 10041d73 f   libucrt:onexit.obj
 0001:00040de3       ??R<lambda_a10e4b102d4a2c3aac6f4f48bbdf488f>@@QBEHXZ 10041de3 f   libucrt:onexit.obj
 0001:00040f24       ??R<lambda_f03950bc5685219e0bcd2087efbe011e>@@QBEHXZ 10041f24 f   libucrt:onexit.obj
 0001:000410ff       _initialize_global_variables 100420ff f   libucrt:initialization.obj
 0001:0004110c       _initialize_c              1004210c f   libucrt:initialization.obj
 0001:00041126       _uninitialize_c            10042126 f   libucrt:initialization.obj
 0001:00041126       _initialize_environment    10042126 f   libucrt:initialization.obj
 0001:00041126       _report_memory_leaks       10042126 f   libucrt:initialization.obj
 0001:00041126       _uninitialize_global_state_isolation 10042126 f   libucrt:initialization.obj
 0001:00041126       _initialize_global_state_isolation 10042126 f   libucrt:initialization.obj
 0001:00041129       _uninitialize_environment  10042129 f   libucrt:initialization.obj
 0001:00041131       _initialize_pointers       10042131 f   libucrt:initialization.obj
 0001:0004116e       _uninitialize_vcruntime    1004216e f   libucrt:initialization.obj
 0001:00041177       _uninitialize_allocated_memory 10042177 f   libucrt:initialization.obj
 0001:00041190       _uninitialize_allocated_io_buffers 10042190 f   libucrt:initialization.obj
 0001:000411e0       ??R<lambda_af42a3ee9806e9a7305d451646e05244>@@QBEXAAPAU__crt_multibyte_data@@@Z 100421e0 f   libucrt:initialization.obj
 0001:00041352       ?_strupr_s_l_stat@@YAHQADIQAU__crt_locale_pointers@@@Z 10042352 f   libucrt:strupr.obj
 0001:00042499       ??$common_tox_l@$1?internal_isupper_l@@YA_NHQAU__crt_locale_pointers@@@Z$1?internal_map_lower@@YAHH0@Z@@YAHHKQAU__crt_locale_pointers@@@Z 10043499 f   libucrt:tolower_toupper.obj
 0001:000425e3       ?internal_isupper_l@@YA_NHQAU__crt_locale_pointers@@@Z 100435e3 f   libucrt:tolower_toupper.obj
 0001:00042c95       ??$?RV<lambda_15ade71b0218206bbe3333a0c9b79046>@@AAV<lambda_da44e0f8b0f19ba52fefafb335991732>@@V<lambda_207f2d024fc103971653565357d6cd41>@@@?$__crt_seh_guarded_call@X@@QAEX$$QAV<lambda_15ade71b0218206bbe3333a0c9b79046>@@AAV<lambda_da44e0f8b0f19ba52fefafb335991732>@@$$QAV<lambda_207f2d024fc103971653565357d6cd41>@@@Z 10043c95 f   libucrt:per_thread_data.obj
 0001:00042cdd       ??$?RV<lambda_38edbb1296d33220d7e4dd0ed76b244a>@@AAV<lambda_5ce1d447e08cb34b2473517608e21441>@@V<lambda_fb385d3da700c9147fc39e65dd577a8c>@@@?$__crt_seh_guarded_call@X@@QAEX$$QAV<lambda_38edbb1296d33220d7e4dd0ed76b244a>@@AAV<lambda_5ce1d447e08cb34b2473517608e21441>@@$$QAV<lambda_fb385d3da700c9147fc39e65dd577a8c>@@@Z 10043cdd f   libucrt:per_thread_data.obj
 0001:00042d3e       ??$?RV<lambda_6affb1475c98b40b75cdec977db92e3c>@@AAV<lambda_b8d4b9c228a6ecc3f80208dbb4b4a104>@@V<lambda_608742c3c92a14382c1684fc64f96c88>@@@?$__crt_seh_guarded_call@X@@QAEX$$QAV<lambda_6affb1475c98b40b75cdec977db92e3c>@@AAV<lambda_b8d4b9c228a6ecc3f80208dbb4b4a104>@@$$QAV<lambda_608742c3c92a14382c1684fc64f96c88>@@@Z 10043d3e f   libucrt:per_thread_data.obj
 0001:00042d89       ??$?RV<lambda_a7e850c220f1c8d1e6efeecdedd162c6>@@AAV<lambda_46720907175c18b6c9d2717bc0d2d362>@@V<lambda_9048902d66e8d99359bc9897bbb930a8>@@@?$__crt_seh_guarded_call@X@@QAEX$$QAV<lambda_a7e850c220f1c8d1e6efeecdedd162c6>@@AAV<lambda_46720907175c18b6c9d2717bc0d2d362>@@$$QAV<lambda_9048902d66e8d99359bc9897bbb930a8>@@@Z 10043d89 f   libucrt:per_thread_data.obj
 0001:00042dd9       ?construct_ptd@@YAXQAU__acrt_ptd@@QAPAU__crt_locale_data@@@Z 10043dd9 f   libucrt:per_thread_data.obj
 0001:00042e74       ?destroy_fls@@YGXPAX@Z     10043e74 f   libucrt:per_thread_data.obj
 0001:00042e95       ?destroy_ptd@@YAXQAU__acrt_ptd@@@Z 10043e95 f   libucrt:per_thread_data.obj
 0001:00042f64       ?replace_current_thread_locale_nolock@@YAXQAU__acrt_ptd@@QAU__crt_locale_data@@@Z 10043f64 f   libucrt:per_thread_data.obj
 0001:000432e5       ?fp_format_a@@YAHQBNPADIQADIH_NIQAU__crt_locale_pointers@@@Z 100442e5 f   libucrt:cvt.obj
 0001:000435f2       ?fp_format_e@@YAHQBNQADI1IH_NIQAU__crt_locale_pointers@@@Z 100445f2 f   libucrt:cvt.obj
 0001:00043696       ?fp_format_e_internal@@YAHQADIH_NIQAU_strflt@@1QAU__crt_locale_pointers@@@Z 10044696 f   libucrt:cvt.obj
 0001:000437e0       ?fp_format_f@@YAHQBNQADI1IHQAU__crt_locale_pointers@@@Z 100447e0 f   libucrt:cvt.obj
 0001:0004386d       ?fp_format_f_internal@@YAHQADIHQAU_strflt@@_NQAU__crt_locale_pointers@@@Z 1004486d f   libucrt:cvt.obj
 0001:00043956       ?fp_format_g@@YAHQBNQADI1IH_NIQAU__crt_locale_pointers@@@Z 10044956 f   libucrt:cvt.obj
 0001:00043a19       ?fp_format_nan_or_infinity@@YAHW4__acrt_fp_class@@_NPADI1@Z 10044a19 f   libucrt:cvt.obj
 0001:00043b0e       ?shift_bytes@@YAXQADI0H@Z  10044b0e f   libucrt:cvt.obj
 0001:00043dcd       ??$?RV<lambda_e5124f882df8998aaf41531e079ba474>@@AAV<lambda_3e16ef9562a7dcce91392c22ab16ea36>@@V<lambda_e25ca0880e6ef98be67edffd8c599615>@@@?$__crt_seh_guarded_call@X@@QAEX$$QAV<lambda_e5124f882df8998aaf41531e079ba474>@@AAV<lambda_3e16ef9562a7dcce91392c22ab16ea36>@@$$QAV<lambda_e25ca0880e6ef98be67edffd8c599615>@@@Z 10044dcd f   libucrt:wsetlocale.obj
 0001:00043e65       ?initialize_inherited_file_handles_nolock@@YAXXZ 10044e65 f   libucrt:ioinit.obj
 0001:00043f1d       ?initialize_stdio_handles_nolock@@YAXXZ 10044f1d f   libucrt:ioinit.obj
 0001:00044151       ?find_or_allocate_unused_stream_nolock@@YA?AV__crt_stdio_stream@@XZ 10045151 f   libucrt:stream.obj
 0001:0004445e       ??$common_openfile@_W@@YAPAU_iobuf@@QB_W0HV__crt_stdio_stream@@@Z 1004545e f   libucrt:openfile.obj
 0001:000445e1       ??$?RV<lambda_218ce3db14220d0be481dae8ef3383b6>@@AAV<lambda_628dfdc04ba53c8bfc02c9951375f3f5>@@V<lambda_57dc472bd5c9d5f3b2cbca59b8a843ae>@@@?$__crt_seh_guarded_call@H@@QAEH$$QAV<lambda_218ce3db14220d0be481dae8ef3383b6>@@AAV<lambda_628dfdc04ba53c8bfc02c9951375f3f5>@@$$QAV<lambda_57dc472bd5c9d5f3b2cbca59b8a843ae>@@@Z 100455e1 f   libucrt:close.obj
 0001:000447cc       ??$?RV<lambda_cbab9ec6f41b0180b23cc171c22676b0>@@AAV<lambda_44731a7d0e6d81c3e6aa82d741081786>@@V<lambda_4b292cb8dd18144e164572427af410ab>@@@?$__crt_seh_guarded_call@P6AXH@Z@@QAEP6AXH@Z$$QAV<lambda_cbab9ec6f41b0180b23cc171c22676b0>@@AAV<lambda_44731a7d0e6d81c3e6aa82d741081786>@@$$QAV<lambda_4b292cb8dd18144e164572427af410ab>@@@Z 100457cc f   libucrt:signal.obj
 0001:00044826       ?get_global_action_nolock@@YAPAP6AXH@ZH@Z 10045826 f   libucrt:signal.obj
 0001:00044868       ?siglookup@@YAPAU__crt_signal_action_t@@HQAU1@@Z 10045868 f   libucrt:signal.obj
 0001:00044c61       ??$common_tcsncpy_s@D@@YAHQADIQBDI@Z 10045c61 f   libucrt:strncpy_s.obj
 0001:00044d1d       ?try_get_AreFileApisANSI@@YAP6GHXZXZ 10045d1d f   libucrt:winapi_thunks.obj
 0001:00044d37       ?try_get_CompareStringEx@@YAP6GHPB_WK0H0HPAU_nlsversioninfo@@PAXJ@ZXZ 10045d37 f   libucrt:winapi_thunks.obj
 0001:00044d51       ?try_get_LCMapStringEx@@YAP6GHPB_WK0HPA_WHPAU_nlsversioninfo@@PAXJ@ZXZ 10045d51 f   libucrt:winapi_thunks.obj
 0001:00044d6b       ?try_get_LocaleNameToLCID@@YAP6GKPB_WK@ZXZ 10045d6b f   libucrt:winapi_thunks.obj
 0001:00044d85       ?try_get_first_available_module@@YAPAUHINSTANCE__@@QBW4module_id@?A0x391cf84c@@0@Z 10045d85 f   libucrt:winapi_thunks.obj
 0001:00044e4d       ?try_get_function@@YAPAXW4function_id@?A0x391cf84c@@QBDQBW4module_id@2@2@Z 10045e4d f   libucrt:winapi_thunks.obj
 0001:0004535f       ??$translate_text_mode_nolock@D@@YAHHQADI@Z 1004635f f   libucrt:read.obj
 0001:000454ab       ??$translate_text_mode_nolock@_W@@YAHHQA_WI@Z 100464ab f   libucrt:read.obj
 0001:00045653       ?translate_ansi_or_utf8_nolock@@YAHHQADIQA_WI@Z 10046653 f   libucrt:read.obj
 0001:000457aa       ?translate_utf16_from_console_nolock@@YAHHQA_WI@Z 100467aa f   libucrt:read.obj
 0001:00045cdf       ??$common_refill_and_read_nolock@D@@YAHV__crt_stdio_stream@@@Z 10046cdf f   libucrt:_filbuf.obj
 0001:00045e6d       ??$common_lseek@J@@YAJHJH@Z 10046e6d f   libucrt:lseek.obj
 0001:00045f55       ??$common_lseek@_J@@YA_JH_JH@Z 10046f55 f   libucrt:lseek.obj
 0001:00046057       ??$common_lseek_nolock@J@@YAJHJH@Z 10047057 f   libucrt:lseek.obj
 0001:000460ae       ??$common_lseek_nolock@_J@@YA_JH_JH@Z 100470ae f   libucrt:lseek.obj
 0001:0004612c       ?common_lseek_do_seek_nolock@@YAJQAXJH@Z 1004712c f   libucrt:lseek.obj
 0001:000465b3       ??$common_getpath@_W@@YAPA_WQB_WQA_WI@Z 100475b3 f   libucrt:getpath.obj
 0001:00046a77       ??$common_fdopen@_W@@YAPAU_iobuf@@HQB_W@Z 10047a77 f   libucrt:fdopen.obj
 0001:00046b71       ??$?RV<lambda_9e9de3de5fa147e2223d7db92bc10aa6>@@AAV<lambda_38ce7e780aa69e748d6df282ebc68efe>@@V<lambda_8ca6da459f0f6780f1cff60fdc3d00e5>@@@?$__crt_seh_guarded_call@H@@QAEH$$QAV<lambda_9e9de3de5fa147e2223d7db92bc10aa6>@@AAV<lambda_38ce7e780aa69e748d6df282ebc68efe>@@$$QAV<lambda_8ca6da459f0f6780f1cff60fdc3d00e5>@@@Z 10047b71 f   libucrt:commit.obj
 0001:00046c88       ?write_double_translated_ansi_nolock@@YA?AUwrite_result@?A0x17268360@@HQBDI@Z 10047c88 f   libucrt:write.obj
 0001:00046e4c       ?write_double_translated_unicode_nolock@@YA?AUwrite_result@?A0x17268360@@QBDI@Z 10047e4c f   libucrt:write.obj
 0001:00046eb9       ?write_requires_double_translation_nolock@@YA_NH@Z 10047eb9 f   libucrt:write.obj
 0001:00046f2f       ?write_text_ansi_nolock@@YA?AUwrite_result@?A0x17268360@@HQBDI@Z 10047f2f f   libucrt:write.obj
 0001:0004700e       ?write_text_utf16le_nolock@@YA?AUwrite_result@?A0x17268360@@HQBDI@Z 1004800e f   libucrt:write.obj
 0001:000470fc       ?write_text_utf8_nolock@@YA?AUwrite_result@?A0x17268360@@HQBDI@Z 100480fc f   libucrt:write.obj
 0001:00047523       ??$common_flush_and_write_nolock@D@@YAHHV__crt_stdio_stream@@@Z 10048523 f   libucrt:_flsbuf.obj
 0001:00047634       ??$write_buffer_nolock@D@@YA_NDV__crt_stdio_stream@@@Z 10048634 f   libucrt:_flsbuf.obj
 0001:0004770a       ??$common_xtox@_KD@@YAH_KQADII_N@Z 1004870a f   libucrt:xtoa.obj
 0001:000477ac       ??$common_xtox_s@_KD@@YAH_KQADII_N@Z 100487ac f   libucrt:xtoa.obj
 0001:00047916       ??$common_sopen_dispatch@D@@YAHQBDHHHQAHH@Z 10048916 f   libucrt:open.obj
 0001:000479cd       ??$common_sopen_dispatch@_W@@YAHQB_WHHHQAHH@Z 100489cd f   libucrt:open.obj
 0001:00047a84       ?configure_text_mode@@YAHHUfile_options@?A0xa9d50aae@@HAAW4__crt_lowio_text_mode@@@Z 10048a84 f   libucrt:open.obj
 0001:00047ccd       ?create_file@@YAPAXQB_WQAU_SECURITY_ATTRIBUTES@@Ufile_options@?A0xa9d50aae@@@Z 10048ccd f   libucrt:open.obj
 0001:00047cf2       ?decode_open_create_flags@@YAKH@Z 10048cf2 f   libucrt:open.obj
 0001:00047d62       ?decode_options@@YA?AUfile_options@?A0xa9d50aae@@HHH@Z 10048d62 f   libucrt:open.obj
 0001:00047ede       ?truncate_ctrl_z_if_present@@YAHH@Z 10048ede f   libucrt:open.obj
 0001:000485db       ??$?RV<lambda_0d12ecb3bf3ca5a4f1a42c640a7c22e0>@@AAV<lambda_241ee9115c0d92402402ee49b68a53b6>@@V<lambda_c39bc7ceba6248164186568028d32970>@@@?$__crt_seh_guarded_call@_N@@QAE_N$$QAV<lambda_0d12ecb3bf3ca5a4f1a42c640a7c22e0>@@AAV<lambda_241ee9115c0d92402402ee49b68a53b6>@@$$QAV<lambda_c39bc7ceba6248164186568028d32970>@@@Z 100495db f   libucrt:spawnv.obj
 0001:0004862c       ??$common_spawnv@_W@@YAHHQB_WQBQB_W1@Z 1004962c f   libucrt:spawnv.obj
 0001:00048836       ??$execute_command@_W@@YAHHQB_WQBQB_W1@Z 10049836 f   libucrt:spawnv.obj
 0001:00048a4a       ??R<lambda_241ee9115c0d92402402ee49b68a53b6>@@QBE_NXZ 10049a4a f   libucrt:spawnv.obj
 0001:00048b8a       ?accumulate_inheritable_handles@@YA_NQAPAEQAI_N@Z 10049b8a f   libucrt:spawnv.obj
 0001:00048bd0       ??$common_spawnvp@_W@@YAHHQB_WQBQB_W1@Z 10049bd0 f   libucrt:spawnvp.obj
 0001:00048ef7       ?<lambda_invoker_cdecl>@<lambda_86056e3c024bff449830248dc1621ed2>@@CAHPBX0@Z 10049ef7 f   libucrt:argv_wildcards.obj
 0001:00048f0f       ??$common_expand_argv_wildcards@D@@YAHQAPADQAPAPAD@Z 10049f0f f   libucrt:argv_wildcards.obj
 0001:000490ef       ??$copy_and_add_argument_to_buffer@D@@YAHQBD0IAAV?$argument_list@D@?A0x5f5c8891@@@Z 1004a0ef f   libucrt:argv_wildcards.obj
 0001:000491a2       ??$expand_argument_wildcards@D@@YAHQAD0AAV?$argument_list@D@?A0x5f5c8891@@@Z 1004a1a2 f   libucrt:argv_wildcards.obj
 0001:00049322       ?expand_if_necessary@?$argument_list@D@?A0x5f5c8891@@AAEHXZ 1004a322 f   libucrt:argv_wildcards.obj
 0001:000493b4       ??$?RV<lambda_ceb1ee4838e85a9d631eb091e2fbe199>@@AAV<lambda_ae742caa10f662c28703da3d2ea5e57e>@@V<lambda_cd08b5d6af4937fe54fc07d0c9bf6b37>@@@?$__crt_seh_guarded_call@X@@QAEX$$QAV<lambda_ceb1ee4838e85a9d631eb091e2fbe199>@@AAV<lambda_ae742caa10f662c28703da3d2ea5e57e>@@$$QAV<lambda_cd08b5d6af4937fe54fc07d0c9bf6b37>@@@Z 1004a3b4 f   libucrt:mbctype.obj
 0001:000493f7       ??R<lambda_ae742caa10f662c28703da3d2ea5e57e>@@QBEXXZ 1004a3f7 f   libucrt:mbctype.obj
 0001:0004947a       ?CPtoLocaleName@@YAPB_WH@Z 1004a47a f   libucrt:mbctype.obj
 0001:000494b8       ?getSystemCP@@YAHH@Z       1004a4b8 f   libucrt:mbctype.obj
 0001:0004952b       ?setSBCS@@YAXPAU__crt_multibyte_data@@@Z 1004a52b f   libucrt:mbctype.obj
 0001:00049590       ?setSBUpLow@@YAXPAU__crt_multibyte_data@@@Z 1004a590 f   libucrt:mbctype.obj
 0001:00049724       ?setmbcp_internal@@YAHH_NQAU__acrt_ptd@@QAPAU__crt_multibyte_data@@@Z 1004a724 f   libucrt:mbctype.obj
 0001:0004983f       ?update_thread_multibyte_data_internal@@YAPAU__crt_multibyte_data@@QAU__acrt_ptd@@QAPAU1@@Z 1004a83f f   libucrt:mbctype.obj
 0001:00049b27       ?x_ismbbtype_l@@YAHPAU__crt_locale_pointers@@IHH@Z 1004ab27 f   libucrt:ismbbyte.obj
 0001:00049bb1       ?find_end_of_double_null_terminated_sequence@@YAPB_WQB_W@Z 1004abb1 f   libucrt:get_environment_from_os.obj
 0001:00049cbb       ??$common_set_variable_in_environment_nolock@_W@@YAHQA_WH@Z 1004acbb f   libucrt:setenv.obj
 0001:00049f16       ??$copy_environment@_W@@YAPAPA_WQAPA_W@Z 1004af16 f   libucrt:setenv.obj
 0001:00049fd4       ??$ensure_current_environment_is_not_initial_environment_nolock@_W@@YAXXZ 1004afd4 f   libucrt:setenv.obj
 0001:00049fee       ??$find_in_environment_nolock@_W@@YAHQB_WI@Z 1004afee f   libucrt:setenv.obj
 0001:0004a24b       ?__acrt_LCMapStringA_stat@@YAHPAU__crt_locale_pointers@@PB_WKPBDHPADHHH@Z 1004b24b f   libucrt:lcmapstringa.obj
 0001:0004be7c       ?free_crt_array_internal@@YAXQAPBXI@Z 1004ce7c f   libucrt:inittime.obj
 0001:0004c66b       ?GetTableIndexFromLocaleName@@YAHPB_W@Z 1004d66b f   libucrt:lcidtoname_downlevel.obj
 0001:0004cbb9       ??$translate_control_exception_mask@W4__acrt_fenv_machine_sse_control@@W4__acrt_fenv_abstract_control@@@@YA?AW4__acrt_fenv_machine_sse_control@@W4__acrt_fenv_abstract_control@@@Z 1004dbb9 f   libucrt:_fenvutils.obj
 0001:0004cc42       ?to_abstract_control@@YA?AW4__acrt_fenv_abstract_control@@W4__acrt_fenv_machine_sse_control@@@Z 1004dc42 f   libucrt:_fenvutils.obj
 0001:0004ccfe       ?to_abstract_control@@YA?AW4__acrt_fenv_abstract_control@@W4__acrt_fenv_machine_x87_control@@@Z 1004dcfe f   libucrt:_fenvutils.obj
 0001:0004cdbb       ?to_machine_sse_control@@YA?AW4__acrt_fenv_machine_sse_control@@W4__acrt_fenv_abstract_control@@@Z 1004ddbb f   libucrt:_fenvutils.obj
 0001:0004ce4f       ?to_machine_x87_control@@YA?AW4__acrt_fenv_machine_x87_control@@W4__acrt_fenv_abstract_control@@@Z 1004de4f f   libucrt:_fenvutils.obj
 0001:0004d268       ??$construct_command_line@_W@@YAHQBQB_WQAPA_W@Z 1004e268 f   libucrt:cenvarg.obj
 0001:0004d353       ??$construct_environment_block@_W@@YAHQBQB_WQAPA_W@Z 1004e353 f   libucrt:cenvarg.obj
 0001:0004d64f       ??R<lambda_31d3e4c6a34e5ddcb7af9cf02b7cd71c>@@QBEPA_WXZ 1004e64f f   libucrt:cenvarg.obj
 0001:0004d720       ?swap@@YAXPAD0I@Z          1004e720 f   libucrt:qsort.obj
 0001:0004dc32       ?initialize_multibyte@@YAHXZ 1004ec32 f   libucrt:multibyte_initializer.obj
 0001:0004dd20       $$000000                   1004ed20     libucrt:log10_impl.obj
 0001:0004de30       $$000000                   1004ee30     libucrt:ceil_pentium4.obj
 0001:0004df60       $$000000                   1004ef60     libucrt:_strnicm.obj
 0001:0004dfc1       ?__dcrt_lowio_initialize_console_output@@YAXXZ 1004efc1 f   libucrt:initcon.obj
 0001:0004e080       $$000000                   1004f080     libucrt:log10_pentium4.obj
 0001:0004e310       $$000000                   1004f310     libucrt:87tran.obj
 0001:0004e510       $$000000                   1004f510     libucrt:87disp.obj
 0001:0004e710       $$000000                   1004f710     libucrt:common.obj
 0001:0004e8a0       $$000000                   1004f8a0     libucrt:genexcep.obj
 0001:0004f8b0       $$000000                   100508b0     LIBCMT:ulldvrm.obj
 0001:0004f950       $$000000                   10050950     LIBCMT:_sehprolg4gs_.obj
 0001:0004f9b0       $$000000                   100509b0     LIBCMT:alloca16.obj
 0001:0004f9e0       ??__FDeleter@?1??InitializeSListHead@implementation@slist@@YGXPAT_SLIST_HEADER@@@Z@YAXXZ 100509e0 f   vc_crt_fix_impl.obj
 0001:0004fa20       __sehtable$___scrt_is_nonwritable_in_current_image 10050a20     LIBCMT:utility.obj
 0001:0004fa40       __sehtable$?dllmain_crt_process_attach@@YAHQAUHINSTANCE__@@QAX@Z 10050a40     LIBCMT:dll_dllmain.obj
 0001:0004fa60       __sehtable$?dllmain_crt_process_detach@@YAH_N@Z 10050a60     LIBCMT:dll_dllmain.obj
 0001:0004fa80       __sehtable$?dllmain_dispatch@@YAHQAUHINSTANCE__@@KQAX@Z 10050a80     LIBCMT:dll_dllmain.obj
 0001:0004faa0       __sehtable$___DestructExceptionObject 10050aa0     libvcruntime:ehhelpers.obj
 0001:0004fac0       __sehtable$??$?RV<lambda_80d7abc6eae2375db70be92ccaaf9b57>@@AAV<lambda_df52180bf14694d51fdefd82613e8f07>@@V<lambda_4fa1155033dff2042363dba4e2dc3802>@@@?$__crt_seh_guarded_call@H@@QAEH$$QAV<lambda_80d7abc6eae2375db70be92ccaaf9b57>@@AAV<lambda_df52180bf14694d51fdefd82613e8f07>@@$$QAV<lambda_4fa1155033dff2042363dba4e2dc3802>@@@Z 10050ac0     libucrt:output.obj
 0001:0004fae0       __sehtable$??$common_fsopen@_W@@YAPAU_iobuf@@QB_W0H@Z 10050ae0     libucrt:fopen.obj
 0001:0004fb00       __sehtable$_fclose         10050b00     libucrt:fclose.obj
 0001:0004fb20       __sehtable$??$common_freopen@_W@@YAHQAPAU_iobuf@@QB_W1V__crt_stdio_stream@@H@Z 10050b20     libucrt:freopen.obj
 0001:0004fb40       __sehtable$_fread_s        10050b40     libucrt:fread.obj
 0001:0004fb60       __sehtable$_fgetc          10050b60     libucrt:fgetc.obj
 0001:0004fb80       __sehtable$_rewind         10050b80     libucrt:rewind.obj
 0001:0004fba0       __sehtable$_ungetc         10050ba0     libucrt:ungetc.obj
 0001:0004fbc0       __sehtable$__pclose        10050bc0     libucrt:popen.obj
 0001:0004fbe0       __sehtable$??$common_popen@_W@@YAPAU_iobuf@@QB_W0@Z 10050be0     libucrt:popen.obj
 0001:0004fc00       __sehtable$_clearerr_s     10050c00     libucrt:clearerr.obj
 0001:0004fc20       __sehtable$??$?RV<lambda_2866be3712abc81a800a822484c830d8>@@AAV<lambda_39ca0ed439415581b5b15c265174cece>@@V<lambda_2b24c74d71094a6cd0cb82e44167d71b>@@@?$__crt_seh_guarded_call@X@@QAEX$$QAV<lambda_2866be3712abc81a800a822484c830d8>@@AAV<lambda_39ca0ed439415581b5b15c265174cece>@@$$QAV<lambda_2b24c74d71094a6cd0cb82e44167d71b>@@@Z 10050c20     libucrt:fflush.obj
 0001:0004fc40       __sehtable$??$?RV<lambda_2cc53f568c5a2bb6f192f930a45d44ea>@@AAV<lambda_ab61a845afdef5b7c387490eaf3616ee>@@V<lambda_c2ffc0b7726aa6be21d5f0026187e748>@@@?$__crt_seh_guarded_call@X@@QAEX$$QAV<lambda_2cc53f568c5a2bb6f192f930a45d44ea>@@AAV<lambda_ab61a845afdef5b7c387490eaf3616ee>@@$$QAV<lambda_c2ffc0b7726aa6be21d5f0026187e748>@@@Z 10050c40     libucrt:fflush.obj
 0001:0004fc60       __sehtable$??$?RV<lambda_6d20deecaf4856105ebacbad442d1079>@@AAV<lambda_9a32fed5bf61b6b509b2d3f6003082a1>@@V<lambda_63ea2239ed67c638ddbae41947fdf875>@@@?$__crt_seh_guarded_call@H@@QAEH$$QAV<lambda_6d20deecaf4856105ebacbad442d1079>@@AAV<lambda_9a32fed5bf61b6b509b2d3f6003082a1>@@$$QAV<lambda_63ea2239ed67c638ddbae41947fdf875>@@@Z 10050c60     libucrt:fflush.obj
 0001:0004fc80       __sehtable$??$common_fgets@D@@YAPADQADHV__crt_stdio_stream@@@Z 10050c80     libucrt:fgets.obj
 0001:0004fca0       __sehtable$?common_fseek@@YAHV__crt_stdio_stream@@_JH@Z 10050ca0     libucrt:fseek.obj
 0001:0004fcc0       __sehtable$??$common_ftell@J@@YAJV__crt_stdio_stream@@@Z 10050cc0     libucrt:ftell.obj
 0001:0004fce0       __sehtable$??$?RV<lambda_cd3bfd923e8d1349099e544c97b1bd8e>@@AAV<lambda_54dcfcba6f8e0c549fa430f4d53fb7dd>@@V<lambda_5e1d0fa2aa2b73b187bf8b7e1d30c7f8>@@@?$__crt_seh_guarded_call@I@@QAEI$$QAV<lambda_cd3bfd923e8d1349099e544c97b1bd8e>@@AAV<lambda_54dcfcba6f8e0c549fa430f4d53fb7dd>@@$$QAV<lambda_5e1d0fa2aa2b73b187bf8b7e1d30c7f8>@@@Z 10050ce0     libucrt:fwrite.obj
 0001:0004fd00       __sehtable$??$?RV<lambda_70c0770dcc4f6ec6272bb01dc82d3c91>@@AAV<lambda_ca71763b3c0644891230e4f79ea54fa6>@@V<lambda_ca266f0f09348b8765c113e3a39a2bc1>@@@?$__crt_seh_guarded_call@H@@QAEH$$QAV<lambda_70c0770dcc4f6ec6272bb01dc82d3c91>@@AAV<lambda_ca71763b3c0644891230e4f79ea54fa6>@@$$QAV<lambda_ca266f0f09348b8765c113e3a39a2bc1>@@@Z 10050d00     libucrt:setvbuf.obj
 0001:0004fd20       __sehtable$?common_tmpfile_nolock@@YAHQAPAU_iobuf@@H@Z 10050d20     libucrt:tmpfile.obj
 0001:0004fd40       __sehtable$?common_tmpfile@@YAHQAPAU_iobuf@@H@Z 10050d40     libucrt:tmpfile.obj
 0001:0004fd60       __sehtable$??$?RV<lambda_274ecf0a8038e561263518ab346655e8>@@AAV<lambda_21448eb78dd3c4a522ed7c65a98d88e6>@@V<lambda_0ca1de2171e49cefb1e8dc85c06db622>@@@?$__crt_seh_guarded_call@H@@QAEH$$QAV<lambda_274ecf0a8038e561263518ab346655e8>@@AAV<lambda_21448eb78dd3c4a522ed7c65a98d88e6>@@$$QAV<lambda_0ca1de2171e49cefb1e8dc85c06db622>@@@Z 10050d60     libucrt:input.obj
 0001:0004fd80       __sehtable$??$common_getenv@_W@@YAPA_WQB_W@Z 10050d80     libucrt:getenv.obj
 0001:0004fda0       __sehtable$??$common_dupenv_s@_W@@YAHQAPA_WQAIQB_WHQBDH@Z 10050da0     libucrt:getenv.obj
 0001:0004fdc0       __sehtable$??R<lambda_6e4b09c48022b2350581041d5f6b0c4c>@@QBE@XZ 10050dc0     libucrt:exit.obj
 0001:0004fde0       __sehtable$??$?RV<lambda_03b1d95aef87969028cfba75ccab2455>@@AAV<lambda_6e4b09c48022b2350581041d5f6b0c4c>@@V<lambda_22bdf7517842c4b3e53723af5aa32b9e>@@@?$__crt_seh_guarded_call@X@@QAEX$$QAV<lambda_03b1d95aef87969028cfba75ccab2455>@@AAV<lambda_6e4b09c48022b2350581041d5f6b0c4c>@@$$QAV<lambda_22bdf7517842c4b3e53723af5aa32b9e>@@@Z 10050de0     libucrt:exit.obj
 0001:0004fe00       __sehtable$??$?RV<lambda_7ac4055421038abea736e08bd20712a4>@@AAV<lambda_a10e4b102d4a2c3aac6f4f48bbdf488f>@@V<lambda_1da61822885009acd1bf848af4f9644b>@@@?$__crt_seh_guarded_call@H@@QAEH$$QAV<lambda_7ac4055421038abea736e08bd20712a4>@@AAV<lambda_a10e4b102d4a2c3aac6f4f48bbdf488f>@@$$QAV<lambda_1da61822885009acd1bf848af4f9644b>@@@Z 10050e00     libucrt:onexit.obj
 0001:0004fe20       __sehtable$??$?RV<lambda_69a2805e680e0e292e8ba93315fe43a8>@@AAV<lambda_f03950bc5685219e0bcd2087efbe011e>@@V<lambda_03fcd07e894ec930e3f35da366ca99d6>@@@?$__crt_seh_guarded_call@H@@QAEH$$QAV<lambda_69a2805e680e0e292e8ba93315fe43a8>@@AAV<lambda_f03950bc5685219e0bcd2087efbe011e>@@$$QAV<lambda_03fcd07e894ec930e3f35da366ca99d6>@@@Z 10050e20     libucrt:onexit.obj
 0001:0004fe40       __sehtable$_terminate      10050e40     libucrt:terminate.obj
 0001:0004fe60       __sehtable$??$?RV<lambda_15ade71b0218206bbe3333a0c9b79046>@@AAV<lambda_da44e0f8b0f19ba52fefafb335991732>@@V<lambda_207f2d024fc103971653565357d6cd41>@@@?$__crt_seh_guarded_call@X@@QAEX$$QAV<lambda_15ade71b0218206bbe3333a0c9b79046>@@AAV<lambda_da44e0f8b0f19ba52fefafb335991732>@@$$QAV<lambda_207f2d024fc103971653565357d6cd41>@@@Z 10050e60     libucrt:per_thread_data.obj
 0001:0004fe80       __sehtable$??$?RV<lambda_a7e850c220f1c8d1e6efeecdedd162c6>@@AAV<lambda_46720907175c18b6c9d2717bc0d2d362>@@V<lambda_9048902d66e8d99359bc9897bbb930a8>@@@?$__crt_seh_guarded_call@X@@QAEX$$QAV<lambda_a7e850c220f1c8d1e6efeecdedd162c6>@@AAV<lambda_46720907175c18b6c9d2717bc0d2d362>@@$$QAV<lambda_9048902d66e8d99359bc9897bbb930a8>@@@Z 10050e80     libucrt:per_thread_data.obj
 0001:0004fea0       __sehtable$??$?RV<lambda_38edbb1296d33220d7e4dd0ed76b244a>@@AAV<lambda_5ce1d447e08cb34b2473517608e21441>@@V<lambda_fb385d3da700c9147fc39e65dd577a8c>@@@?$__crt_seh_guarded_call@X@@QAEX$$QAV<lambda_38edbb1296d33220d7e4dd0ed76b244a>@@AAV<lambda_5ce1d447e08cb34b2473517608e21441>@@$$QAV<lambda_fb385d3da700c9147fc39e65dd577a8c>@@@Z 10050ea0     libucrt:per_thread_data.obj
 0001:0004fec0       __sehtable$??$?RV<lambda_6affb1475c98b40b75cdec977db92e3c>@@AAV<lambda_b8d4b9c228a6ecc3f80208dbb4b4a104>@@V<lambda_608742c3c92a14382c1684fc64f96c88>@@@?$__crt_seh_guarded_call@X@@QAEX$$QAV<lambda_6affb1475c98b40b75cdec977db92e3c>@@AAV<lambda_b8d4b9c228a6ecc3f80208dbb4b4a104>@@$$QAV<lambda_608742c3c92a14382c1684fc64f96c88>@@@Z 10050ec0     libucrt:per_thread_data.obj
 0001:0004fee0       __sehtable$??$?RV<lambda_e5124f882df8998aaf41531e079ba474>@@AAV<lambda_3e16ef9562a7dcce91392c22ab16ea36>@@V<lambda_e25ca0880e6ef98be67edffd8c599615>@@@?$__crt_seh_guarded_call@X@@QAEX$$QAV<lambda_e5124f882df8998aaf41531e079ba474>@@AAV<lambda_3e16ef9562a7dcce91392c22ab16ea36>@@$$QAV<lambda_e25ca0880e6ef98be67edffd8c599615>@@@Z 10050ee0     libucrt:wsetlocale.obj
 0001:0004ff00       __sehtable$___acrt_initialize_lowio 10050f00     libucrt:ioinit.obj
 0001:0004ff20       __sehtable$?__acrt_stdio_allocate_stream@@YA?AV__crt_stdio_stream@@XZ 10050f20     libucrt:stream.obj
 0001:0004ff40       __sehtable$??$?RV<lambda_218ce3db14220d0be481dae8ef3383b6>@@AAV<lambda_628dfdc04ba53c8bfc02c9951375f3f5>@@V<lambda_57dc472bd5c9d5f3b2cbca59b8a843ae>@@@?$__crt_seh_guarded_call@H@@QAEH$$QAV<lambda_218ce3db14220d0be481dae8ef3383b6>@@AAV<lambda_628dfdc04ba53c8bfc02c9951375f3f5>@@$$QAV<lambda_57dc472bd5c9d5f3b2cbca59b8a843ae>@@@Z 10050f40     libucrt:close.obj
 0001:0004ff60       __sehtable$_raise          10050f60     libucrt:signal.obj
 0001:0004ff80       __sehtable$??$?RV<lambda_cbab9ec6f41b0180b23cc171c22676b0>@@AAV<lambda_44731a7d0e6d81c3e6aa82d741081786>@@V<lambda_4b292cb8dd18144e164572427af410ab>@@@?$__crt_seh_guarded_call@P6AXH@Z@@QAEP6AXH@Z$$QAV<lambda_cbab9ec6f41b0180b23cc171c22676b0>@@AAV<lambda_44731a7d0e6d81c3e6aa82d741081786>@@$$QAV<lambda_4b292cb8dd18144e164572427af410ab>@@@Z 10050f80     libucrt:signal.obj
 0001:0004ffa0       __sehtable$___set_fpsr_sse2 10050fa0     libucrt:fpctrl.obj
 0001:0004ffc0       __sehtable$__fcloseall     10050fc0     libucrt:closeall.obj
 0001:0004ffe0       __sehtable$__read          10050fe0     libucrt:read.obj
 0001:00050000       __sehtable$??$common_lseek@J@@YAJHJH@Z 10051000     libucrt:lseek.obj
 0001:00050020       __sehtable$??$common_lseek@_J@@YA_JH_JH@Z 10051020     libucrt:lseek.obj
 0001:00050040       __sehtable$__pipe          10051040     libucrt:pipe.obj
 0001:00050068       __sehtable$??$common_fdopen@_W@@YAPAU_iobuf@@HQB_W@Z 10051068     libucrt:fdopen.obj
 0001:00050088       __sehtable$??$?RV<lambda_9e9de3de5fa147e2223d7db92bc10aa6>@@AAV<lambda_38ce7e780aa69e748d6df282ebc68efe>@@V<lambda_8ca6da459f0f6780f1cff60fdc3d00e5>@@@?$__crt_seh_guarded_call@H@@QAEH$$QAV<lambda_9e9de3de5fa147e2223d7db92bc10aa6>@@AAV<lambda_38ce7e780aa69e748d6df282ebc68efe>@@$$QAV<lambda_8ca6da459f0f6780f1cff60fdc3d00e5>@@@Z 10051088     libucrt:commit.obj
 0001:000500a8       __sehtable$__write         100510a8     libucrt:write.obj
 0001:000500c8       __sehtable$??$common_sopen_dispatch@D@@YAHQBDHHHQAHH@Z 100510c8     libucrt:open.obj
 0001:000500e8       __sehtable$??$common_sopen_dispatch@_W@@YAHQB_WHHHQAHH@Z 100510e8     libucrt:open.obj
 0001:00050108       __sehtable$__rmtmp         10051108     libucrt:rmtmp.obj
 0001:00050130       __sehtable$??$?RV<lambda_0d12ecb3bf3ca5a4f1a42c640a7c22e0>@@AAV<lambda_241ee9115c0d92402402ee49b68a53b6>@@V<lambda_c39bc7ceba6248164186568028d32970>@@@?$__crt_seh_guarded_call@_N@@QAE_N$$QAV<lambda_0d12ecb3bf3ca5a4f1a42c640a7c22e0>@@AAV<lambda_241ee9115c0d92402402ee49b68a53b6>@@$$QAV<lambda_c39bc7ceba6248164186568028d32970>@@@Z 10051130     libucrt:spawnv.obj
 0001:00050150       __sehtable$?update_thread_multibyte_data_internal@@YAPAU__crt_multibyte_data@@QAU__acrt_ptd@@QAPAU1@@Z 10051150     libucrt:mbctype.obj
 0001:00050170       __sehtable$??$?RV<lambda_ceb1ee4838e85a9d631eb091e2fbe199>@@AAV<lambda_ae742caa10f662c28703da3d2ea5e57e>@@V<lambda_cd08b5d6af4937fe54fc07d0c9bf6b37>@@@?$__crt_seh_guarded_call@X@@QAEX$$QAV<lambda_ceb1ee4838e85a9d631eb091e2fbe199>@@AAV<lambda_ae742caa10f662c28703da3d2ea5e57e>@@$$QAV<lambda_cd08b5d6af4937fe54fc07d0c9bf6b37>@@@Z 10051170     libucrt:mbctype.obj
 0001:00050190       __sehtable$__query_new_handler 10051190     libucrt:new_handler.obj
 0001:000501b0       __sehtable$___acrt_update_thread_locale_data 100511b0     libucrt:locale_refcounting.obj
 0001:000501d0       __sehtable$__alloc_osfhnd  100511d0     libucrt:osfinfo.obj
 0001:000501f0       __sehtable$___acrt_lowio_ensure_fh_exists 100511f0     libucrt:osfinfo.obj
 0001:00050210       __sehtable$__IsNonwritableInCurrentImage 10051210     LIBCMT:pesect.obj
 0001:00050230       .edata                     10051230     luafar3.exp
 0001:00050258       rgpv                       10051258     luafar3.exp
 0001:00050304       rgszName                   10051304     luafar3.exp
 0001:000503b0       rgwOrd                     100513b0     luafar3.exp
 0001:00050406       szName                     10051406     luafar3.exp
 0001:00050412       $N00001                    10051412     luafar3.exp
 0001:0005041d       $N00002                    1005141d     luafar3.exp
 0001:0005042d       $N00003                    1005142d     luafar3.exp
 0001:0005043b       $N00004                    1005143b     luafar3.exp
 0001:00050446       $N00005                    10051446     luafar3.exp
 0001:00050453       $N00006                    10051453     luafar3.exp
 0001:00050462       $N00007                    10051462     luafar3.exp
 0001:0005046d       $N00008                    1005146d     luafar3.exp
 0001:00050477       $N00009                    10051477     luafar3.exp
 0001:00050482       $N00010                    10051482     luafar3.exp
 0001:00050495       $N00011                    10051495     luafar3.exp
 0001:000504a5       $N00012                    100514a5     luafar3.exp
 0001:000504b7       $N00013                    100514b7     luafar3.exp
 0001:000504cb       $N00014                    100514cb     luafar3.exp
 0001:000504d7       $N00015                    100514d7     luafar3.exp
 0001:000504e6       $N00016                    100514e6     luafar3.exp
 0001:000504f7       $N00017                    100514f7     luafar3.exp
 0001:00050507       $N00018                    10051507     luafar3.exp
 0001:0005051b       $N00019                    1005151b     luafar3.exp
 0001:0005052c       $N00020                    1005152c     luafar3.exp
 0001:00050534       $N00021                    10051534     luafar3.exp
 0001:00050545       $N00022                    10051545     luafar3.exp
 0001:00050556       $N00023                    10051556     luafar3.exp
 0001:00050562       $N00024                    10051562     luafar3.exp
 0001:00050573       $N00025                    10051573     luafar3.exp
 0001:00050584       $N00026                    10051584     luafar3.exp
 0001:0005058f       $N00027                    1005158f     luafar3.exp
 0001:00050597       $N00028                    10051597     luafar3.exp
 0001:000505ae       $N00029                    100515ae     luafar3.exp
 0001:000505c4       $N00030                    100515c4     luafar3.exp
 0001:000505da       $N00031                    100515da     luafar3.exp
 0001:000505f0       $N00032                    100515f0     luafar3.exp
 0001:00050602       $N00033                    10051602     luafar3.exp
 0001:00050615       $N00034                    10051615     luafar3.exp
 0001:0005062a       $N00035                    1005162a     luafar3.exp
 0001:0005063f       $N00036                    1005163f     luafar3.exp
 0001:00050656       $N00037                    10051656     luafar3.exp
 0001:0005066c       $N00038                    1005166c     luafar3.exp
 0001:00050678       $N00039                    10051678     luafar3.exp
 0001:0005068c       $N00040                    1005168c     luafar3.exp
 0001:0005069d       $N00041                    1005169d     luafar3.exp
 0001:000506ad       $N00042                    100516ad     luafar3.exp
 0001:000506bc       $N00043                    100516bc     luafar3.exp
 0002:00000f28       _pageMap                   10052f28     slnunico.obj
 0002:00002628       _groupMap                  10054628     slnunico.obj
 0002:000043d8       _groups                    100563d8     slnunico.obj
 0002:00004610       ?__vcrt_flsindex@@3KA      10056610     libvcruntime:per_thread_data.obj
 0002:00004630       ?errno_no_memory@@3HA      10056630     libucrt:errno.obj
 0002:00004634       ?doserrno_no_memory@@3KA   10056634     libucrt:errno.obj
 0002:000046e4       ?__acrt_flsindex@@3KA      100566e4     libucrt:per_thread_data.obj
 0002:000047e0       ?__DAZ_ENABLED@?1??__set_fpsr_sse2@@9@9 100567e0     libucrt:fpctrl.obj
 0002:000048f0       __mbctypes                 100568f0     libucrt:mbctype.obj
 0002:000049f8       __mbcasemaps               100569f8     libucrt:mbctype.obj
 0002:00004af8       ?__rgctypeflag@@3PADA      10056af8     libucrt:mbctype.obj
 0002:00004b00       ?__rgcode_page_info@@3PAUcode_page_info@@A 10056b00     libucrt:mbctype.obj
 0002:00004e70       ?__dcrt_lowio_console_output_handle@@3PAXA 10056e70     libucrt:initcon.obj
 0002:00004e80       _luaopen_bit               10056e80     service.obj
 0002:00004e84       _luaopen_ffi               10056e84     service.obj
 0002:00004e88       _luaopen_jit               10056e88     service.obj
 0002:00004e90       ?Cookie@?1??XorPointer@@YAPAXPAX@Z@4IB 10056e90     vc_crt_fix_impl.obj
 0002:00004e94       ?$S1@?1??XorPointer@@YAPAXPAX@Z@4IA 10056e94     vc_crt_fix_impl.obj
 0002:00004e98       ?Function@?1??EncodePointerWrapper@@9@4@4Q6GPAXPAX@ZA 10056e98     vc_crt_fix_impl.obj
 0002:00004e9c       ?$S2@?1??EncodePointerWrapper@@9@4@4IA 10056e9c     vc_crt_fix_impl.obj
 0002:00004ea0       ?Function@?1??DecodePointerWrapper@@9@4@4Q6GPAXPAX@ZA 10056ea0     vc_crt_fix_impl.obj
 0002:00004ea4       ?$S3@?1??DecodePointerWrapper@@9@4@4IA 10056ea4     vc_crt_fix_impl.obj
 0002:00004ea8       ?Function@?1??GetModuleHandleExWWrapper@@9@12@4Q6GHKPB_WPAPAUHINSTANCE__@@@ZA 10056ea8     vc_crt_fix_impl.obj
 0002:00004eac       ?$S4@?1??GetModuleHandleExWWrapper@@9@12@4IA 10056eac     vc_crt_fix_impl.obj
 0002:00004eb0       ?Deleter@?1??InitializeSListHead@implementation@slist@@YGXPAT_SLIST_HEADER@@@Z@4Vservice_deleter@23@A 10056eb0     vc_crt_fix_impl.obj
 0002:00004ed0       ?$S5@?1??InitializeSListHead@implementation@slist@@YGXPAT_SLIST_HEADER@@@Z@4IA 10056ed0     vc_crt_fix_impl.obj
 0002:00004ed4       ?Function@?1??InitializeSListHeadWrapper@@9@4@4Q6GXPAT_SLIST_HEADER@@@ZA 10056ed4     vc_crt_fix_impl.obj
 0002:00004ed8       ?$S6@?1??InitializeSListHeadWrapper@@9@4@4IA 10056ed8     vc_crt_fix_impl.obj
 0002:00004edc       ?Function@?1??InterlockedFlushSListWrapper@@9@4@4Q6GPAU_SINGLE_LIST_ENTRY@@PAT_SLIST_HEADER@@@ZA 10056edc     vc_crt_fix_impl.obj
 0002:00004ee0       ?$S7@?1??InterlockedFlushSListWrapper@@9@4@4IA 10056ee0     vc_crt_fix_impl.obj
 0002:00004ee4       ?Function@?1??InterlockedPopEntrySListWrapper@@9@4@4Q6GPAU_SINGLE_LIST_ENTRY@@PAT_SLIST_HEADER@@@ZA 10056ee4     vc_crt_fix_impl.obj
 0002:00004ee8       ?$S8@?1??InterlockedPopEntrySListWrapper@@9@4@4IA 10056ee8     vc_crt_fix_impl.obj
 0002:00004eec       ?Function@?1??InterlockedPushEntrySListWrapper@@9@8@4Q6GPAU_SINGLE_LIST_ENTRY@@PAT_SLIST_HEADER@@PAU2@@ZA 10056eec     vc_crt_fix_impl.obj
 0002:00004ef0       ?$S9@?1??InterlockedPushEntrySListWrapper@@9@8@4IA 10056ef0     vc_crt_fix_impl.obj
 0002:00004ef4       ?Function@?1??InterlockedPushListSListExWrapper@@9@16@4Q6GPAU_SINGLE_LIST_ENTRY@@PAT_SLIST_HEADER@@PAU2@1K@ZA 10056ef4     vc_crt_fix_impl.obj
 0002:00004ef8       ?$S10@?1??InterlockedPushListSListExWrapper@@9@16@4IA 10056ef8     vc_crt_fix_impl.obj
 0002:00004efc       ?Function@?1??RtlFirstEntrySListWrapper@@9@4@4Q6GPAU_SINGLE_LIST_ENTRY@@PAT_SLIST_HEADER@@@ZA 10056efc     vc_crt_fix_impl.obj
 0002:00004f00       ?$S11@?1??RtlFirstEntrySListWrapper@@9@4@4IA 10056f00     vc_crt_fix_impl.obj
 0002:00004f04       ?Function@?1??QueryDepthSListWrapper@@9@4@4Q6GGPAT_SLIST_HEADER@@@ZA 10056f04     vc_crt_fix_impl.obj
 0002:00004f08       ?$S12@?1??QueryDepthSListWrapper@@9@4@4IA 10056f08     vc_crt_fix_impl.obj
 0002:00004f0c       ?Function@?1??GetNumaHighestNodeNumberWrapper@@9@4@4Q6GHPAK@ZA 10056f0c     vc_crt_fix_impl.obj
 0002:00004f10       ?$S13@?1??GetNumaHighestNodeNumberWrapper@@9@4@4IA 10056f10     vc_crt_fix_impl.obj
 0002:00004f14       ?Function@?1??GetLogicalProcessorInformationWrapper@@9@8@4Q6GHPAU_SYSTEM_LOGICAL_PROCESSOR_INFORMATION@@PAK@ZA 10056f14     vc_crt_fix_impl.obj
 0002:00004f18       ?$S14@?1??GetLogicalProcessorInformationWrapper@@9@8@4IA 10056f18     vc_crt_fix_impl.obj
 0002:00004f1c       ?module_local_atexit_table@@3U_onexit_table_t@@A 10056f1c     LIBCMT:utility.obj
 0002:00004f28       ?module_local_at_quick_exit_table@@3U_onexit_table_t@@A 10056f28     LIBCMT:utility.obj
 0002:00004f34       ?module_local_atexit_table_initialized@@3_NA 10056f34     LIBCMT:utility.obj
 0002:00004f40       ?is_initialized_as_dll@@3_NA 10056f40     LIBCMT:utility.obj
 0002:00004f44       ?__proc_attached@@3HA      10056f44     LIBCMT:dll_dllmain.obj
 0002:00004f60       _GS_ExceptionRecord        10056f60     LIBCMT:gs_report.obj
 0002:00004fb0       _GS_ContextRecord          10056fb0     LIBCMT:gs_report.obj
 0002:0000527c       ?__vcrt_startup_thread_ptd@@3U__vcrt_ptd@@A 1005727c     libvcruntime:per_thread_data.obj
 0002:000052a4       ___vcrt_lock_table         100572a4     libvcruntime:locks.obj
 0002:000052bc       ___vcrt_locks_initialized  100572bc     libvcruntime:locks.obj
 0002:000052c0       ?module_handles@@3PAPAUHINSTANCE__@@A 100572c0     libvcruntime:winapi_downlevel.obj
 0002:000052cc       ?encoded_function_pointers@@3PAPAXA 100572cc     libvcruntime:winapi_downlevel.obj
 0002:0000530c       ?heap@@3V_HeapManager@@A   1005730c     libvcruntime:undname.obj
 0002:00005330       ?__idtabsiz@@3IA           10057330     libucrt:popen.obj
 0002:00005334       ?__idpairs@@3PAUprocess_handle_pair@?A0xe43b7539@@A 10057334     libucrt:popen.obj
 0002:00005338       ?narrow_tmpfile_buffer_pointers@@3PAPADA 10057338     libucrt:tmpfile.obj
 0002:00005344       ?wide_tmpfile_buffer_pointers@@3PAPA_WA 10057344     libucrt:tmpfile.obj
 0002:00005350       ?c_termination_complete@@3JA 10057350     libucrt:exit.obj
 0002:00005354       ?thread_local_exit_callback_func@@3P6GXPAXK0@ZA 10057354     libucrt:exit.obj
 0002:00005360       ?program_name@?1???$common_configure_argv@D@@YAHW4_crt_argv_mode@@@Z@4PADA 10057360     libucrt:argv_parsing.obj
 0002:00005490       ?__acrt_invalid_parameter_handler@@3V?$dual_state_global@P6AXPB_W00II@Z@__crt_state_management@@A 10057490     libucrt:invalid_parameter.obj
 0002:00005494       ?enable_percent_n@@3IA     10057494     libucrt:printf_count_output.obj
 0002:000056ac       ?ctrlc_action@@3V?$dual_state_global@P6AXH@Z@__crt_state_management@@A 100576ac     libucrt:signal.obj
 0002:000056b0       ?ctrlbreak_action@@3V?$dual_state_global@P6AXH@Z@__crt_state_management@@A 100576b0     libucrt:signal.obj
 0002:000056b4       ?abort_action@@3V?$dual_state_global@P6AXH@Z@__crt_state_management@@A 100576b4     libucrt:signal.obj
 0002:000056b8       ?term_action@@3V?$dual_state_global@P6AXH@Z@__crt_state_management@@A 100576b8     libucrt:signal.obj
 0002:000056c0       ?module_handles@@3PAPAUHINSTANCE__@@A 100576c0     libucrt:winapi_thunks.obj
 0002:00005710       ?encoded_function_pointers@@3PAPAXA 10057710     libucrt:winapi_thunks.obj
 0002:00005798       ?__acrt_lock_table@@3PAU_RTL_CRITICAL_SECTION@@A 10057798     libucrt:locks.obj
 0002:000058e8       ?__acrt_locks_initialized@@3IA 100578e8     libucrt:locks.obj
 0002:000058fc       ?fSystemSet@@3HA           100578fc     libucrt:mbctype.obj
 0002:00005900       ?initialized@?1??__acrt_initialize_multibyte@@9@4_NA 10057900     libucrt:mbctype.obj
 0002:00005920       ?__acrt_new_handler@@3V?$dual_state_global@P6AHI@Z@__crt_state_management@@A 10057920     libucrt:new_handler.obj
 0002:00005924       ?user_matherr@@3V?$dual_state_global@P6AHPAU_exception@@@Z@__crt_state_management@@A 10057924     libucrt:matherr.obj
 0002:00005928       ?__acrt_global_new_mode@@3V?$dual_state_global@J@__crt_state_management@@A 10057928     libucrt:new_mode.obj
 0002:00005938       ?__acrt_app_type@@3W4_crt_app_type@@A 10057938     libucrt:report_runtime_error.obj
 0002:00005944       __pmatherr_set             10057944     libucrt:libm_error.obj
 0003:00000c22       .idata$6                   10058c22     kernel32:KERNEL32.dll
 0003:00000c3e       .idata$6                   10058c3e     user32:USER32.dll
 0003:00000ce2       .idata$6                   10058ce2     advapi32:ADVAPI32.dll
 0003:00000d14       .idata$6                   10058d14     shell32:SHELL32.dll
 0003:000012ac       .idata$6                   100592ac     lua51:lua51.dll
 0003:000012f8       .idata$6                   100592f8     rpcrt4:RPCRT4.dll
 0004:00000060       $R000000                   1005a060     luafar3.res
